
./main.o:     file format elf64-littleriscv


Disassembly of section .text._ZN106_$LT$core..ops..range..Range$LT$usize$GT$$u20$as$u20$core..slice..index..SliceIndex$LT$$u5b$T$u5d$$GT$$GT$17get_unchecked_mut17h97f5b57f479b560dE:

0000000000000000 <_ZN106_$LT$core..ops..range..Range$LT$usize$GT$$u20$as$u20$core..slice..index..SliceIndex$LT$$u5b$T$u5d$$GT$$GT$17get_unchecked_mut17h97f5b57f479b560dE>:
   0:	1101                	addi	sp,sp,-32
   2:	ec06                	sd	ra,24(sp)
   4:	e82a                	sd	a0,16(sp)
   6:	8532                	mv	a0,a2
   8:	e42e                	sd	a1,8(sp)
   a:	85b6                	mv	a1,a3
   c:	00000097          	auipc	ra,0x0
  10:	000080e7          	jalr	ra # c <_ZN106_$LT$core..ops..range..Range$LT$usize$GT$$u20$as$u20$core..slice..index..SliceIndex$LT$$u5b$T$u5d$$GT$$GT$17get_unchecked_mut17h97f5b57f479b560dE+0xc>
  14:	65c2                	ld	a1,16(sp)
  16:	00000097          	auipc	ra,0x0
  1a:	000080e7          	jalr	ra # 16 <_ZN106_$LT$core..ops..range..Range$LT$usize$GT$$u20$as$u20$core..slice..index..SliceIndex$LT$$u5b$T$u5d$$GT$$GT$17get_unchecked_mut17h97f5b57f479b560dE+0x16>
  1e:	65a2                	ld	a1,8(sp)
  20:	6642                	ld	a2,16(sp)
  22:	8d91                	sub	a1,a1,a2
  24:	00000097          	auipc	ra,0x0
  28:	000080e7          	jalr	ra # 24 <_ZN106_$LT$core..ops..range..Range$LT$usize$GT$$u20$as$u20$core..slice..index..SliceIndex$LT$$u5b$T$u5d$$GT$$GT$17get_unchecked_mut17h97f5b57f479b560dE+0x24>
  2c:	60e2                	ld	ra,24(sp)
  2e:	6105                	addi	sp,sp,32
  30:	8082                	ret

Disassembly of section .text._ZN106_$LT$core..ops..range..Range$LT$usize$GT$$u20$as$u20$core..slice..index..SliceIndex$LT$$u5b$T$u5d$$GT$$GT$9index_mut17h32227270b2655cadE:

0000000000000000 <_ZN106_$LT$core..ops..range..Range$LT$usize$GT$$u20$as$u20$core..slice..index..SliceIndex$LT$$u5b$T$u5d$$GT$$GT$9index_mut17h32227270b2655cadE>:
   0:	7139                	addi	sp,sp,-64
   2:	fc06                	sd	ra,56(sp)
   4:	f83a                	sd	a4,48(sp)
   6:	f436                	sd	a3,40(sp)
   8:	f032                	sd	a2,32(sp)
   a:	ec2e                	sd	a1,24(sp)
   c:	e82a                	sd	a0,16(sp)
   e:	00a5ed63          	bltu	a1,a0,28 <_ZN106_$LT$core..ops..range..Range$LT$usize$GT$$u20$as$u20$core..slice..index..SliceIndex$LT$$u5b$T$u5d$$GT$$GT$9index_mut17h32227270b2655cadE+0x28>
  12:	a009                	j	14 <_ZN106_$LT$core..ops..range..Range$LT$usize$GT$$u20$as$u20$core..slice..index..SliceIndex$LT$$u5b$T$u5d$$GT$$GT$9index_mut17h32227270b2655cadE+0x14>
  14:	7502                	ld	a0,32(sp)
  16:	75a2                	ld	a1,40(sp)
  18:	00000097          	auipc	ra,0x0
  1c:	000080e7          	jalr	ra # 18 <_ZN106_$LT$core..ops..range..Range$LT$usize$GT$$u20$as$u20$core..slice..index..SliceIndex$LT$$u5b$T$u5d$$GT$$GT$9index_mut17h32227270b2655cadE+0x18>
  20:	65e2                	ld	a1,24(sp)
  22:	02b56663          	bltu	a0,a1,4e <_ZN106_$LT$core..ops..range..Range$LT$usize$GT$$u20$as$u20$core..slice..index..SliceIndex$LT$$u5b$T$u5d$$GT$$GT$9index_mut17h32227270b2655cadE+0x4e>
  26:	a809                	j	38 <_ZN106_$LT$core..ops..range..Range$LT$usize$GT$$u20$as$u20$core..slice..index..SliceIndex$LT$$u5b$T$u5d$$GT$$GT$9index_mut17h32227270b2655cadE+0x38>
  28:	6542                	ld	a0,16(sp)
  2a:	65e2                	ld	a1,24(sp)
  2c:	7642                	ld	a2,48(sp)
  2e:	00000097          	auipc	ra,0x0
  32:	000080e7          	jalr	ra # 2e <_ZN106_$LT$core..ops..range..Range$LT$usize$GT$$u20$as$u20$core..slice..index..SliceIndex$LT$$u5b$T$u5d$$GT$$GT$9index_mut17h32227270b2655cadE+0x2e>
  36:	0000                	unimp
  38:	6542                	ld	a0,16(sp)
  3a:	65e2                	ld	a1,24(sp)
  3c:	7602                	ld	a2,32(sp)
  3e:	76a2                	ld	a3,40(sp)
  40:	00000097          	auipc	ra,0x0
  44:	000080e7          	jalr	ra # 40 <_ZN106_$LT$core..ops..range..Range$LT$usize$GT$$u20$as$u20$core..slice..index..SliceIndex$LT$$u5b$T$u5d$$GT$$GT$9index_mut17h32227270b2655cadE+0x40>
  48:	70e2                	ld	ra,56(sp)
  4a:	6121                	addi	sp,sp,64
  4c:	8082                	ret
  4e:	7502                	ld	a0,32(sp)
  50:	75a2                	ld	a1,40(sp)
  52:	00000097          	auipc	ra,0x0
  56:	000080e7          	jalr	ra # 52 <_ZN106_$LT$core..ops..range..Range$LT$usize$GT$$u20$as$u20$core..slice..index..SliceIndex$LT$$u5b$T$u5d$$GT$$GT$9index_mut17h32227270b2655cadE+0x52>
  5a:	65e2                	ld	a1,24(sp)
  5c:	e42a                	sd	a0,8(sp)
  5e:	852e                	mv	a0,a1
  60:	65a2                	ld	a1,8(sp)
  62:	7642                	ld	a2,48(sp)
  64:	00000097          	auipc	ra,0x0
  68:	000080e7          	jalr	ra # 64 <_ZN106_$LT$core..ops..range..Range$LT$usize$GT$$u20$as$u20$core..slice..index..SliceIndex$LT$$u5b$T$u5d$$GT$$GT$9index_mut17h32227270b2655cadE+0x64>
	...

Disassembly of section .text._ZN108_$LT$core..ops..range..RangeTo$LT$usize$GT$$u20$as$u20$core..slice..index..SliceIndex$LT$$u5b$T$u5d$$GT$$GT$9index_mut17h627fc986b5f2693bE:

0000000000000000 <_ZN108_$LT$core..ops..range..RangeTo$LT$usize$GT$$u20$as$u20$core..slice..index..SliceIndex$LT$$u5b$T$u5d$$GT$$GT$9index_mut17h627fc986b5f2693bE>:
   0:	7139                	addi	sp,sp,-64
   2:	fc06                	sd	ra,56(sp)
   4:	4701                	li	a4,0
   6:	f43a                	sd	a4,40(sp)
   8:	f82a                	sd	a0,48(sp)
   a:	f02a                	sd	a0,32(sp)
   c:	853a                	mv	a0,a4
   e:	7702                	ld	a4,32(sp)
  10:	ec2e                	sd	a1,24(sp)
  12:	85ba                	mv	a1,a4
  14:	67e2                	ld	a5,24(sp)
  16:	e832                	sd	a2,16(sp)
  18:	863e                	mv	a2,a5
  1a:	6842                	ld	a6,16(sp)
  1c:	e436                	sd	a3,8(sp)
  1e:	86c2                	mv	a3,a6
  20:	6722                	ld	a4,8(sp)
  22:	00000097          	auipc	ra,0x0
  26:	000080e7          	jalr	ra # 22 <_ZN108_$LT$core..ops..range..RangeTo$LT$usize$GT$$u20$as$u20$core..slice..index..SliceIndex$LT$$u5b$T$u5d$$GT$$GT$9index_mut17h627fc986b5f2693bE+0x22>
  2a:	70e2                	ld	ra,56(sp)
  2c:	6121                	addi	sp,sp,64
  2e:	8082                	ret

Disassembly of section .text._ZN44_$LT$$RF$T$u20$as$u20$core..fmt..Display$GT$3fmt17h03bed7aab6509a0eE:

0000000000000000 <_ZN44_$LT$$RF$T$u20$as$u20$core..fmt..Display$GT$3fmt17h03bed7aab6509a0eE>:
   0:	1101                	addi	sp,sp,-32
   2:	ec06                	sd	ra,24(sp)
   4:	6110                	ld	a2,0(a0)
   6:	6508                	ld	a0,8(a0)
   8:	e82a                	sd	a0,16(sp)
   a:	8532                	mv	a0,a2
   c:	6642                	ld	a2,16(sp)
   e:	e42e                	sd	a1,8(sp)
  10:	85b2                	mv	a1,a2
  12:	6622                	ld	a2,8(sp)
  14:	00000097          	auipc	ra,0x0
  18:	000080e7          	jalr	ra # 14 <_ZN44_$LT$$RF$T$u20$as$u20$core..fmt..Display$GT$3fmt17h03bed7aab6509a0eE+0x14>
  1c:	60e2                	ld	ra,24(sp)
  1e:	6105                	addi	sp,sp,32
  20:	8082                	ret

Disassembly of section .text._ZN44_$LT$$RF$T$u20$as$u20$core..fmt..Display$GT$3fmt17h41d7698a43e6d759E:

0000000000000000 <_ZN44_$LT$$RF$T$u20$as$u20$core..fmt..Display$GT$3fmt17h41d7698a43e6d759E>:
   0:	1141                	addi	sp,sp,-16
   2:	e406                	sd	ra,8(sp)
   4:	6108                	ld	a0,0(a0)
   6:	00000097          	auipc	ra,0x0
   a:	000080e7          	jalr	ra # 6 <_ZN44_$LT$$RF$T$u20$as$u20$core..fmt..Display$GT$3fmt17h41d7698a43e6d759E+0x6>
   e:	60a2                	ld	ra,8(sp)
  10:	0141                	addi	sp,sp,16
  12:	8082                	ret

Disassembly of section .text._ZN47_$LT$i32$u20$as$u20$core..iter..range..Step$GT$17forward_unchecked17hf12eada4627474f3E:

0000000000000000 <_ZN47_$LT$i32$u20$as$u20$core..iter..range..Step$GT$17forward_unchecked17hf12eada4627474f3E>:
   0:	1141                	addi	sp,sp,-16
   2:	e406                	sd	ra,8(sp)
   4:	862a                	mv	a2,a0
   6:	e032                	sd	a2,0(sp)
   8:	00000097          	auipc	ra,0x0
   c:	000080e7          	jalr	ra # 8 <_ZN47_$LT$i32$u20$as$u20$core..iter..range..Step$GT$17forward_unchecked17hf12eada4627474f3E+0x8>
  10:	60a2                	ld	ra,8(sp)
  12:	0141                	addi	sp,sp,16
  14:	8082                	ret

Disassembly of section .text._ZN4core10intrinsics19copy_nonoverlapping17h32669512e56f42d5E:

0000000000000000 <_ZN4core10intrinsics19copy_nonoverlapping17h32669512e56f42d5E>:
   0:	1141                	addi	sp,sp,-16
   2:	e406                	sd	ra,8(sp)
   4:	e02a                	sd	a0,0(sp)
   6:	852e                	mv	a0,a1
   8:	6582                	ld	a1,0(sp)
   a:	00000097          	auipc	ra,0x0
   e:	000080e7          	jalr	ra # a <_ZN4core10intrinsics19copy_nonoverlapping17h32669512e56f42d5E+0xa>
  12:	60a2                	ld	ra,8(sp)
  14:	0141                	addi	sp,sp,16
  16:	8082                	ret

Disassembly of section .text._ZN4core10intrinsics19copy_nonoverlapping17ha379d0d67ef5787dE:

0000000000000000 <_ZN4core10intrinsics19copy_nonoverlapping17ha379d0d67ef5787dE>:
   0:	1141                	addi	sp,sp,-16
   2:	e406                	sd	ra,8(sp)
   4:	060a                	slli	a2,a2,0x2
   6:	e02a                	sd	a0,0(sp)
   8:	852e                	mv	a0,a1
   a:	6582                	ld	a1,0(sp)
   c:	00000097          	auipc	ra,0x0
  10:	000080e7          	jalr	ra # c <_ZN4core10intrinsics19copy_nonoverlapping17ha379d0d67ef5787dE+0xc>
  14:	60a2                	ld	ra,8(sp)
  16:	0141                	addi	sp,sp,16
  18:	8082                	ret

Disassembly of section .text._ZN4core3cmp5impls55_$LT$impl$u20$core..cmp..PartialOrd$u20$for$u20$i32$GT$2lt17h62d0ea2653f8bdcbE:

0000000000000000 <_ZN4core3cmp5impls55_$LT$impl$u20$core..cmp..PartialOrd$u20$for$u20$i32$GT$2lt17h62d0ea2653f8bdcbE>:
   0:	4108                	lw	a0,0(a0)
   2:	418c                	lw	a1,0(a1)
   4:	00b52533          	slt	a0,a0,a1
   8:	8082                	ret

Disassembly of section .text._ZN4core3fmt10ArgumentV13new17h3dca20cdd01c5628E:

0000000000000000 <_ZN4core3fmt10ArgumentV13new17h3dca20cdd01c5628E>:
   0:	1101                	addi	sp,sp,-32
   2:	e82e                	sd	a1,16(sp)
   4:	ec2a                	sd	a0,24(sp)
   6:	e02a                	sd	a0,0(sp)
   8:	e42e                	sd	a1,8(sp)
   a:	6105                	addi	sp,sp,32
   c:	8082                	ret

Disassembly of section .text._ZN4core3fmt10ArgumentV13new17h8f09df2bb6746d3fE:

0000000000000000 <_ZN4core3fmt10ArgumentV13new17h8f09df2bb6746d3fE>:
   0:	1101                	addi	sp,sp,-32
   2:	e82e                	sd	a1,16(sp)
   4:	ec2a                	sd	a0,24(sp)
   6:	e02a                	sd	a0,0(sp)
   8:	e42e                	sd	a1,8(sp)
   a:	6105                	addi	sp,sp,32
   c:	8082                	ret

Disassembly of section .text._ZN4core3fmt10ArgumentV13new17h9a587f63706d1ecfE:

0000000000000000 <_ZN4core3fmt10ArgumentV13new17h9a587f63706d1ecfE>:
   0:	1101                	addi	sp,sp,-32
   2:	e82e                	sd	a1,16(sp)
   4:	ec2a                	sd	a0,24(sp)
   6:	e02a                	sd	a0,0(sp)
   8:	e42e                	sd	a1,8(sp)
   a:	6105                	addi	sp,sp,32
   c:	8082                	ret

Disassembly of section .text._ZN4core3fmt10ArgumentV13new17hafe335a54ab74929E:

0000000000000000 <_ZN4core3fmt10ArgumentV13new17hafe335a54ab74929E>:
   0:	1101                	addi	sp,sp,-32
   2:	e82e                	sd	a1,16(sp)
   4:	ec2a                	sd	a0,24(sp)
   6:	e02a                	sd	a0,0(sp)
   8:	e42e                	sd	a1,8(sp)
   a:	6105                	addi	sp,sp,32
   c:	8082                	ret

Disassembly of section .text._ZN4core3fmt10ArgumentV13new17hcef6fe4860a5dfcdE:

0000000000000000 <_ZN4core3fmt10ArgumentV13new17hcef6fe4860a5dfcdE>:
   0:	1101                	addi	sp,sp,-32
   2:	e82e                	sd	a1,16(sp)
   4:	ec2a                	sd	a0,24(sp)
   6:	e02a                	sd	a0,0(sp)
   8:	e42e                	sd	a1,8(sp)
   a:	6105                	addi	sp,sp,32
   c:	8082                	ret

Disassembly of section .text._ZN4core3fmt5Write10write_char17h01796003e2e4e90bE:

0000000000000000 <_ZN4core3fmt5Write10write_char17h01796003e2e4e90bE>:
   0:	7179                	addi	sp,sp,-48
   2:	f406                	sd	ra,40(sp)
   4:	862e                	mv	a2,a1
   6:	4681                	li	a3,0
   8:	d236                	sw	a3,36(sp)
   a:	1054                	addi	a3,sp,36
   c:	4711                	li	a4,4
   e:	ec2a                	sd	a0,24(sp)
  10:	852e                	mv	a0,a1
  12:	85b6                	mv	a1,a3
  14:	e832                	sd	a2,16(sp)
  16:	863a                	mv	a2,a4
  18:	00000097          	auipc	ra,0x0
  1c:	000080e7          	jalr	ra # 18 <_ZN4core3fmt5Write10write_char17h01796003e2e4e90bE+0x18>
  20:	6662                	ld	a2,24(sp)
  22:	e42a                	sd	a0,8(sp)
  24:	8532                	mv	a0,a2
  26:	66a2                	ld	a3,8(sp)
  28:	e02e                	sd	a1,0(sp)
  2a:	85b6                	mv	a1,a3
  2c:	6602                	ld	a2,0(sp)
  2e:	00000097          	auipc	ra,0x0
  32:	000080e7          	jalr	ra # 2e <_ZN4core3fmt5Write10write_char17h01796003e2e4e90bE+0x2e>
  36:	70a2                	ld	ra,40(sp)
  38:	6145                	addi	sp,sp,48
  3a:	8082                	ret

Disassembly of section .text._ZN4core3fmt5Write10write_char17h2acce1ea924f0579E:

0000000000000000 <_ZN4core3fmt5Write10write_char17h2acce1ea924f0579E>:
   0:	7179                	addi	sp,sp,-48
   2:	f406                	sd	ra,40(sp)
   4:	862e                	mv	a2,a1
   6:	4681                	li	a3,0
   8:	d236                	sw	a3,36(sp)
   a:	1054                	addi	a3,sp,36
   c:	4711                	li	a4,4
   e:	ec2a                	sd	a0,24(sp)
  10:	852e                	mv	a0,a1
  12:	85b6                	mv	a1,a3
  14:	e832                	sd	a2,16(sp)
  16:	863a                	mv	a2,a4
  18:	00000097          	auipc	ra,0x0
  1c:	000080e7          	jalr	ra # 18 <_ZN4core3fmt5Write10write_char17h2acce1ea924f0579E+0x18>
  20:	6662                	ld	a2,24(sp)
  22:	e42a                	sd	a0,8(sp)
  24:	8532                	mv	a0,a2
  26:	66a2                	ld	a3,8(sp)
  28:	e02e                	sd	a1,0(sp)
  2a:	85b6                	mv	a1,a3
  2c:	6602                	ld	a2,0(sp)
  2e:	00000097          	auipc	ra,0x0
  32:	000080e7          	jalr	ra # 2e <_ZN4core3fmt5Write10write_char17h2acce1ea924f0579E+0x2e>
  36:	70a2                	ld	ra,40(sp)
  38:	6145                	addi	sp,sp,48
  3a:	8082                	ret

Disassembly of section .text._ZN4core3fmt5Write10write_char17h313e2a4adc25b073E:

0000000000000000 <_ZN4core3fmt5Write10write_char17h313e2a4adc25b073E>:
   0:	7179                	addi	sp,sp,-48
   2:	f406                	sd	ra,40(sp)
   4:	862e                	mv	a2,a1
   6:	4681                	li	a3,0
   8:	d236                	sw	a3,36(sp)
   a:	1054                	addi	a3,sp,36
   c:	4711                	li	a4,4
   e:	ec2a                	sd	a0,24(sp)
  10:	852e                	mv	a0,a1
  12:	85b6                	mv	a1,a3
  14:	e832                	sd	a2,16(sp)
  16:	863a                	mv	a2,a4
  18:	00000097          	auipc	ra,0x0
  1c:	000080e7          	jalr	ra # 18 <_ZN4core3fmt5Write10write_char17h313e2a4adc25b073E+0x18>
  20:	6662                	ld	a2,24(sp)
  22:	e42a                	sd	a0,8(sp)
  24:	8532                	mv	a0,a2
  26:	66a2                	ld	a3,8(sp)
  28:	e02e                	sd	a1,0(sp)
  2a:	85b6                	mv	a1,a3
  2c:	6602                	ld	a2,0(sp)
  2e:	00000097          	auipc	ra,0x0
  32:	000080e7          	jalr	ra # 2e <_ZN4core3fmt5Write10write_char17h313e2a4adc25b073E+0x2e>
  36:	70a2                	ld	ra,40(sp)
  38:	6145                	addi	sp,sp,48
  3a:	8082                	ret

Disassembly of section .text._ZN4core3fmt5Write10write_char17h3bfbe1ceed0b7818E:

0000000000000000 <_ZN4core3fmt5Write10write_char17h3bfbe1ceed0b7818E>:
   0:	7179                	addi	sp,sp,-48
   2:	f406                	sd	ra,40(sp)
   4:	862e                	mv	a2,a1
   6:	4681                	li	a3,0
   8:	d236                	sw	a3,36(sp)
   a:	1054                	addi	a3,sp,36
   c:	4711                	li	a4,4
   e:	ec2a                	sd	a0,24(sp)
  10:	852e                	mv	a0,a1
  12:	85b6                	mv	a1,a3
  14:	e832                	sd	a2,16(sp)
  16:	863a                	mv	a2,a4
  18:	00000097          	auipc	ra,0x0
  1c:	000080e7          	jalr	ra # 18 <_ZN4core3fmt5Write10write_char17h3bfbe1ceed0b7818E+0x18>
  20:	6662                	ld	a2,24(sp)
  22:	e42a                	sd	a0,8(sp)
  24:	8532                	mv	a0,a2
  26:	66a2                	ld	a3,8(sp)
  28:	e02e                	sd	a1,0(sp)
  2a:	85b6                	mv	a1,a3
  2c:	6602                	ld	a2,0(sp)
  2e:	00000097          	auipc	ra,0x0
  32:	000080e7          	jalr	ra # 2e <_ZN4core3fmt5Write10write_char17h3bfbe1ceed0b7818E+0x2e>
  36:	70a2                	ld	ra,40(sp)
  38:	6145                	addi	sp,sp,48
  3a:	8082                	ret

Disassembly of section .text._ZN4core3fmt5Write10write_char17hd69353662a139e3aE:

0000000000000000 <_ZN4core3fmt5Write10write_char17hd69353662a139e3aE>:
   0:	7179                	addi	sp,sp,-48
   2:	f406                	sd	ra,40(sp)
   4:	862e                	mv	a2,a1
   6:	4681                	li	a3,0
   8:	d236                	sw	a3,36(sp)
   a:	1054                	addi	a3,sp,36
   c:	4711                	li	a4,4
   e:	ec2a                	sd	a0,24(sp)
  10:	852e                	mv	a0,a1
  12:	85b6                	mv	a1,a3
  14:	e832                	sd	a2,16(sp)
  16:	863a                	mv	a2,a4
  18:	00000097          	auipc	ra,0x0
  1c:	000080e7          	jalr	ra # 18 <_ZN4core3fmt5Write10write_char17hd69353662a139e3aE+0x18>
  20:	6662                	ld	a2,24(sp)
  22:	e42a                	sd	a0,8(sp)
  24:	8532                	mv	a0,a2
  26:	66a2                	ld	a3,8(sp)
  28:	e02e                	sd	a1,0(sp)
  2a:	85b6                	mv	a1,a3
  2c:	6602                	ld	a2,0(sp)
  2e:	00000097          	auipc	ra,0x0
  32:	000080e7          	jalr	ra # 2e <_ZN4core3fmt5Write10write_char17hd69353662a139e3aE+0x2e>
  36:	70a2                	ld	ra,40(sp)
  38:	6145                	addi	sp,sp,48
  3a:	8082                	ret

Disassembly of section .text._ZN4core3fmt5Write9write_fmt17h14ffed2b7bc6523bE:

0000000000000000 <_ZN4core3fmt5Write9write_fmt17h14ffed2b7bc6523bE>:
   0:	7139                	addi	sp,sp,-64
   2:	fc06                	sd	ra,56(sp)
   4:	e02a                	sd	a0,0(sp)
   6:	6188                	ld	a0,0(a1)
   8:	e42a                	sd	a0,8(sp)
   a:	6588                	ld	a0,8(a1)
   c:	e82a                	sd	a0,16(sp)
   e:	6988                	ld	a0,16(a1)
  10:	ec2a                	sd	a0,24(sp)
  12:	6d88                	ld	a0,24(a1)
  14:	f02a                	sd	a0,32(sp)
  16:	7188                	ld	a0,32(a1)
  18:	f42a                	sd	a0,40(sp)
  1a:	7588                	ld	a0,40(a1)
  1c:	f82a                	sd	a0,48(sp)

000000000000001e <.LBB19_1>:
  1e:	00000597          	auipc	a1,0x0
  22:	00058593          	mv	a1,a1
  26:	850a                	mv	a0,sp
  28:	0030                	addi	a2,sp,8
  2a:	00000097          	auipc	ra,0x0
  2e:	000080e7          	jalr	ra # 2a <.LBB19_1+0xc>
  32:	70e2                	ld	ra,56(sp)
  34:	6121                	addi	sp,sp,64
  36:	8082                	ret

Disassembly of section .text._ZN4core3fmt5Write9write_fmt17h6189dbd65f2c0b73E:

0000000000000000 <_ZN4core3fmt5Write9write_fmt17h6189dbd65f2c0b73E>:
   0:	7139                	addi	sp,sp,-64
   2:	fc06                	sd	ra,56(sp)
   4:	e02a                	sd	a0,0(sp)
   6:	6188                	ld	a0,0(a1)
   8:	e42a                	sd	a0,8(sp)
   a:	6588                	ld	a0,8(a1)
   c:	e82a                	sd	a0,16(sp)
   e:	6988                	ld	a0,16(a1)
  10:	ec2a                	sd	a0,24(sp)
  12:	6d88                	ld	a0,24(a1)
  14:	f02a                	sd	a0,32(sp)
  16:	7188                	ld	a0,32(a1)
  18:	f42a                	sd	a0,40(sp)
  1a:	7588                	ld	a0,40(a1)
  1c:	f82a                	sd	a0,48(sp)

000000000000001e <.LBB20_1>:
  1e:	00000597          	auipc	a1,0x0
  22:	00058593          	mv	a1,a1
  26:	850a                	mv	a0,sp
  28:	0030                	addi	a2,sp,8
  2a:	00000097          	auipc	ra,0x0
  2e:	000080e7          	jalr	ra # 2a <.LBB20_1+0xc>
  32:	70e2                	ld	ra,56(sp)
  34:	6121                	addi	sp,sp,64
  36:	8082                	ret

Disassembly of section .text._ZN4core3fmt5Write9write_fmt17hc87f7c7ddfec3b28E:

0000000000000000 <_ZN4core3fmt5Write9write_fmt17hc87f7c7ddfec3b28E>:
   0:	7139                	addi	sp,sp,-64
   2:	fc06                	sd	ra,56(sp)
   4:	e02a                	sd	a0,0(sp)
   6:	6188                	ld	a0,0(a1)
   8:	e42a                	sd	a0,8(sp)
   a:	6588                	ld	a0,8(a1)
   c:	e82a                	sd	a0,16(sp)
   e:	6988                	ld	a0,16(a1)
  10:	ec2a                	sd	a0,24(sp)
  12:	6d88                	ld	a0,24(a1)
  14:	f02a                	sd	a0,32(sp)
  16:	7188                	ld	a0,32(a1)
  18:	f42a                	sd	a0,40(sp)
  1a:	7588                	ld	a0,40(a1)
  1c:	f82a                	sd	a0,48(sp)

000000000000001e <.LBB21_1>:
  1e:	00000597          	auipc	a1,0x0
  22:	00058593          	mv	a1,a1
  26:	850a                	mv	a0,sp
  28:	0030                	addi	a2,sp,8
  2a:	00000097          	auipc	ra,0x0
  2e:	000080e7          	jalr	ra # 2a <.LBB21_1+0xc>
  32:	70e2                	ld	ra,56(sp)
  34:	6121                	addi	sp,sp,64
  36:	8082                	ret

Disassembly of section .text._ZN4core3fmt5Write9write_fmt17hd759890e748d84bbE:

0000000000000000 <_ZN4core3fmt5Write9write_fmt17hd759890e748d84bbE>:
   0:	7139                	addi	sp,sp,-64
   2:	fc06                	sd	ra,56(sp)
   4:	e02a                	sd	a0,0(sp)
   6:	6188                	ld	a0,0(a1)
   8:	e42a                	sd	a0,8(sp)
   a:	6588                	ld	a0,8(a1)
   c:	e82a                	sd	a0,16(sp)
   e:	6988                	ld	a0,16(a1)
  10:	ec2a                	sd	a0,24(sp)
  12:	6d88                	ld	a0,24(a1)
  14:	f02a                	sd	a0,32(sp)
  16:	7188                	ld	a0,32(a1)
  18:	f42a                	sd	a0,40(sp)
  1a:	7588                	ld	a0,40(a1)
  1c:	f82a                	sd	a0,48(sp)

000000000000001e <.LBB22_1>:
  1e:	00000597          	auipc	a1,0x0
  22:	00058593          	mv	a1,a1
  26:	850a                	mv	a0,sp
  28:	0030                	addi	a2,sp,8
  2a:	00000097          	auipc	ra,0x0
  2e:	000080e7          	jalr	ra # 2a <.LBB22_1+0xc>
  32:	70e2                	ld	ra,56(sp)
  34:	6121                	addi	sp,sp,64
  36:	8082                	ret

Disassembly of section .text._ZN4core3fmt5Write9write_fmt17hfb225cb6e35b7615E:

0000000000000000 <_ZN4core3fmt5Write9write_fmt17hfb225cb6e35b7615E>:
   0:	7139                	addi	sp,sp,-64
   2:	fc06                	sd	ra,56(sp)
   4:	e02a                	sd	a0,0(sp)
   6:	6188                	ld	a0,0(a1)
   8:	e42a                	sd	a0,8(sp)
   a:	6588                	ld	a0,8(a1)
   c:	e82a                	sd	a0,16(sp)
   e:	6988                	ld	a0,16(a1)
  10:	ec2a                	sd	a0,24(sp)
  12:	6d88                	ld	a0,24(a1)
  14:	f02a                	sd	a0,32(sp)
  16:	7188                	ld	a0,32(a1)
  18:	f42a                	sd	a0,40(sp)
  1a:	7588                	ld	a0,40(a1)
  1c:	f82a                	sd	a0,48(sp)

000000000000001e <.LBB23_1>:
  1e:	00000597          	auipc	a1,0x0
  22:	00058593          	mv	a1,a1
  26:	850a                	mv	a0,sp
  28:	0030                	addi	a2,sp,8
  2a:	00000097          	auipc	ra,0x0
  2e:	000080e7          	jalr	ra # 2a <.LBB23_1+0xc>
  32:	70e2                	ld	ra,56(sp)
  34:	6121                	addi	sp,sp,64
  36:	8082                	ret

Disassembly of section .text._ZN4core3fmt9Arguments6new_v117h5b30265b08afbc6eE:

0000000000000000 <_ZN4core3fmt9Arguments6new_v117h5b30265b08afbc6eE>:
   0:	1141                	addi	sp,sp,-16
   2:	4781                	li	a5,0
   4:	e03e                	sd	a5,0(sp)
   6:	e10c                	sd	a1,0(a0)
   8:	e510                	sd	a2,8(a0)
   a:	6582                	ld	a1,0(sp)
   c:	6622                	ld	a2,8(sp)
   e:	e90c                	sd	a1,16(a0)
  10:	ed10                	sd	a2,24(a0)
  12:	f114                	sd	a3,32(a0)
  14:	f518                	sd	a4,40(a0)
  16:	0141                	addi	sp,sp,16
  18:	8082                	ret

Disassembly of section .text._ZN4core3mem12maybe_uninit20MaybeUninit$LT$T$GT$10as_mut_ptr17hf3133e757a316c5aE:

0000000000000000 <_ZN4core3mem12maybe_uninit20MaybeUninit$LT$T$GT$10as_mut_ptr17hf3133e757a316c5aE>:
   0:	8082                	ret

Disassembly of section .text._ZN4core3mem12maybe_uninit20MaybeUninit$LT$T$GT$10as_mut_ptr17hf9cc0e1c1b1fb1c7E:

0000000000000000 <_ZN4core3mem12maybe_uninit20MaybeUninit$LT$T$GT$10as_mut_ptr17hf9cc0e1c1b1fb1c7E>:
   0:	8082                	ret

Disassembly of section .text._ZN4core3mem12maybe_uninit20MaybeUninit$LT$T$GT$10as_mut_ptr17hfa5266f4a9f987ceE:

0000000000000000 <_ZN4core3mem12maybe_uninit20MaybeUninit$LT$T$GT$10as_mut_ptr17hfa5266f4a9f987ceE>:
   0:	8082                	ret

Disassembly of section .text._ZN4core3mem12maybe_uninit20MaybeUninit$LT$T$GT$11assume_init17h58823d1bbcaea228E:

0000000000000000 <_ZN4core3mem12maybe_uninit20MaybeUninit$LT$T$GT$11assume_init17h58823d1bbcaea228E>:
   0:	1141                	addi	sp,sp,-16
   2:	e406                	sd	ra,8(sp)
   4:	85aa                	mv	a1,a0
   6:	e02e                	sd	a1,0(sp)
   8:	00000097          	auipc	ra,0x0
   c:	000080e7          	jalr	ra # 8 <_ZN4core3mem12maybe_uninit20MaybeUninit$LT$T$GT$11assume_init17h58823d1bbcaea228E+0x8>
  10:	60a2                	ld	ra,8(sp)
  12:	0141                	addi	sp,sp,16
  14:	8082                	ret

Disassembly of section .text._ZN4core3mem12maybe_uninit20MaybeUninit$LT$T$GT$6uninit17h3131fc1774874b9fE:

0000000000000000 <_ZN4core3mem12maybe_uninit20MaybeUninit$LT$T$GT$6uninit17h3131fc1774874b9fE>:
   0:	1141                	addi	sp,sp,-16
   2:	4512                	lw	a0,4(sp)
   4:	0141                	addi	sp,sp,16
   6:	8082                	ret

Disassembly of section .text._ZN4core3mem12maybe_uninit20MaybeUninit$LT$T$GT$6uninit17h356fd329b70cdf88E:

0000000000000000 <_ZN4core3mem12maybe_uninit20MaybeUninit$LT$T$GT$6uninit17h356fd329b70cdf88E>:
   0:	1141                	addi	sp,sp,-16
   2:	0141                	addi	sp,sp,16
   4:	8082                	ret

Disassembly of section .text._ZN4core3mem12maybe_uninit20MaybeUninit$LT$T$GT$6uninit17h48a81a167b3ffebbE:

0000000000000000 <_ZN4core3mem12maybe_uninit20MaybeUninit$LT$T$GT$6uninit17h48a81a167b3ffebbE>:
   0:	1141                	addi	sp,sp,-16
   2:	0141                	addi	sp,sp,16
   4:	8082                	ret

Disassembly of section .text._ZN4core3mem13manually_drop21ManuallyDrop$LT$T$GT$10into_inner17hd4c133d3cc3597bdE:

0000000000000000 <_ZN4core3mem13manually_drop21ManuallyDrop$LT$T$GT$10into_inner17hd4c133d3cc3597bdE>:
   0:	85aa                	mv	a1,a0
   2:	8082                	ret

Disassembly of section .text._ZN4core3mem4swap17h7138d7c415ac5e1eE:

0000000000000000 <_ZN4core3mem4swap17h7138d7c415ac5e1eE>:
   0:	1141                	addi	sp,sp,-16
   2:	e406                	sd	ra,8(sp)
   4:	00000097          	auipc	ra,0x0
   8:	000080e7          	jalr	ra # 4 <_ZN4core3mem4swap17h7138d7c415ac5e1eE+0x4>
   c:	60a2                	ld	ra,8(sp)
   e:	0141                	addi	sp,sp,16
  10:	8082                	ret

Disassembly of section .text._ZN4core3mem7replace17h58f1910041f9e98cE:

0000000000000000 <_ZN4core3mem7replace17h58f1910041f9e98cE>:
   0:	7179                	addi	sp,sp,-48
   2:	f406                	sd	ra,40(sp)
   4:	862e                	mv	a2,a1
   6:	ca2e                	sw	a1,20(sp)
   8:	084c                	addi	a1,sp,20
   a:	e432                	sd	a2,8(sp)
   c:	00000097          	auipc	ra,0x0
  10:	000080e7          	jalr	ra # c <_ZN4core3mem7replace17h58f1910041f9e98cE+0xc>
  14:	4552                	lw	a0,20(sp)
  16:	70a2                	ld	ra,40(sp)
  18:	6145                	addi	sp,sp,48
  1a:	8082                	ret

Disassembly of section .text._ZN4core3mem7size_of17h3f40db87ffefcd91E:

0000000000000000 <_ZN4core3mem7size_of17h3f40db87ffefcd91E>:
   0:	1141                	addi	sp,sp,-16
   2:	4505                	li	a0,1
   4:	e42a                	sd	a0,8(sp)
   6:	0141                	addi	sp,sp,16
   8:	8082                	ret

Disassembly of section .text._ZN4core3mem7size_of17h7db91f8f921ea98cE:

0000000000000000 <_ZN4core3mem7size_of17h7db91f8f921ea98cE>:
   0:	1141                	addi	sp,sp,-16
   2:	4511                	li	a0,4
   4:	e42a                	sd	a0,8(sp)
   6:	0141                	addi	sp,sp,16
   8:	8082                	ret

Disassembly of section .text._ZN4core3mem7size_of17hbce675de9b4f9e89E:

0000000000000000 <_ZN4core3mem7size_of17hbce675de9b4f9e89E>:
   0:	1141                	addi	sp,sp,-16
   2:	02000513          	li	a0,32
   6:	e42a                	sd	a0,8(sp)
   8:	0141                	addi	sp,sp,16
   a:	8082                	ret

Disassembly of section .text._ZN4core3num21_$LT$impl$u20$i32$GT$13unchecked_add17hb7baeb7ffac3d159E:

0000000000000000 <_ZN4core3num21_$LT$impl$u20$i32$GT$13unchecked_add17hb7baeb7ffac3d159E>:
   0:	1141                	addi	sp,sp,-16
   2:	862e                	mv	a2,a1
   4:	86aa                	mv	a3,a0
   6:	00b5073b          	addw	a4,a0,a1
   a:	952e                	add	a0,a0,a1
   c:	c62a                	sw	a0,12(sp)
   e:	853a                	mv	a0,a4
  10:	0141                	addi	sp,sp,16
  12:	8082                	ret

Disassembly of section .text._ZN4core3ptr13drop_in_place17h0abd15e9e0c5a486E:

0000000000000000 <_ZN4core3ptr13drop_in_place17h0abd15e9e0c5a486E>:
   0:	1141                	addi	sp,sp,-16
   2:	0141                	addi	sp,sp,16
   4:	8082                	ret

Disassembly of section .text._ZN4core3ptr13drop_in_place17h5416e7492d58a19cE:

0000000000000000 <_ZN4core3ptr13drop_in_place17h5416e7492d58a19cE>:
   0:	1141                	addi	sp,sp,-16
   2:	0141                	addi	sp,sp,16
   4:	8082                	ret

Disassembly of section .text._ZN4core3ptr13drop_in_place17h86d0e5b703edc0baE:

0000000000000000 <_ZN4core3ptr13drop_in_place17h86d0e5b703edc0baE>:
   0:	1141                	addi	sp,sp,-16
   2:	0141                	addi	sp,sp,16
   4:	8082                	ret

Disassembly of section .text._ZN4core3ptr13drop_in_place17ha589032ce9430742E:

0000000000000000 <_ZN4core3ptr13drop_in_place17ha589032ce9430742E>:
   0:	1141                	addi	sp,sp,-16
   2:	0141                	addi	sp,sp,16
   4:	8082                	ret

Disassembly of section .text._ZN4core3ptr13drop_in_place17hb852785f97bc591cE:

0000000000000000 <_ZN4core3ptr13drop_in_place17hb852785f97bc591cE>:
   0:	1141                	addi	sp,sp,-16
   2:	0141                	addi	sp,sp,16
   4:	8082                	ret

Disassembly of section .text._ZN4core3ptr19swap_nonoverlapping17hde424540d8b0a3dfE:

0000000000000000 <_ZN4core3ptr19swap_nonoverlapping17hde424540d8b0a3dfE>:
   0:	1101                	addi	sp,sp,-32
   2:	ec06                	sd	ra,24(sp)
   4:	e832                	sd	a2,16(sp)
   6:	e42e                	sd	a1,8(sp)
   8:	e02a                	sd	a0,0(sp)
   a:	00000097          	auipc	ra,0x0
   e:	000080e7          	jalr	ra # a <_ZN4core3ptr19swap_nonoverlapping17hde424540d8b0a3dfE+0xa>
  12:	65c2                	ld	a1,16(sp)
  14:	02b50633          	mul	a2,a0,a1
  18:	6502                	ld	a0,0(sp)
  1a:	65a2                	ld	a1,8(sp)
  1c:	00000097          	auipc	ra,0x0
  20:	000080e7          	jalr	ra # 1c <_ZN4core3ptr19swap_nonoverlapping17hde424540d8b0a3dfE+0x1c>
  24:	60e2                	ld	ra,24(sp)
  26:	6105                	addi	sp,sp,32
  28:	8082                	ret

Disassembly of section .text._ZN4core3ptr23swap_nonoverlapping_one17hc5273d53809f096bE:

0000000000000000 <_ZN4core3ptr23swap_nonoverlapping_one17hc5273d53809f096bE>:
   0:	715d                	addi	sp,sp,-80
   2:	e486                	sd	ra,72(sp)
   4:	4601                	li	a2,0
   6:	02c10ba3          	sb	a2,55(sp)
   a:	f42e                	sd	a1,40(sp)
   c:	f02a                	sd	a0,32(sp)
   e:	00000097          	auipc	ra,0x0
  12:	000080e7          	jalr	ra # e <_ZN4core3ptr23swap_nonoverlapping_one17hc5273d53809f096bE+0xe>
  16:	02000593          	li	a1,32
  1a:	00b56b63          	bltu	a0,a1,30 <_ZN4core3ptr23swap_nonoverlapping_one17hc5273d53809f096bE+0x30>
  1e:	a009                	j	20 <_ZN4core3ptr23swap_nonoverlapping_one17hc5273d53809f096bE+0x20>
  20:	4605                	li	a2,1
  22:	7502                	ld	a0,32(sp)
  24:	75a2                	ld	a1,40(sp)
  26:	00000097          	auipc	ra,0x0
  2a:	000080e7          	jalr	ra # 26 <_ZN4core3ptr23swap_nonoverlapping_one17hc5273d53809f096bE+0x26>
  2e:	a099                	j	74 <_ZN4core3ptr23swap_nonoverlapping_one17hc5273d53809f096bE+0x74>
  30:	4505                	li	a0,1
  32:	02a10ba3          	sb	a0,55(sp)
  36:	7582                	ld	a1,32(sp)
  38:	ec2a                	sd	a0,24(sp)
  3a:	852e                	mv	a0,a1
  3c:	00000097          	auipc	ra,0x0
  40:	000080e7          	jalr	ra # 3c <_ZN4core3ptr23swap_nonoverlapping_one17hc5273d53809f096bE+0x3c>
  44:	75a2                	ld	a1,40(sp)
  46:	e82a                	sd	a0,16(sp)
  48:	852e                	mv	a0,a1
  4a:	7582                	ld	a1,32(sp)
  4c:	6662                	ld	a2,24(sp)
  4e:	00000097          	auipc	ra,0x0
  52:	000080e7          	jalr	ra # 4e <_ZN4core3ptr23swap_nonoverlapping_one17hc5273d53809f096bE+0x4e>
  56:	4501                	li	a0,0
  58:	02a10ba3          	sb	a0,55(sp)
  5c:	75a2                	ld	a1,40(sp)
  5e:	e42a                	sd	a0,8(sp)
  60:	852e                	mv	a0,a1
  62:	65c2                	ld	a1,16(sp)
  64:	00000097          	auipc	ra,0x0
  68:	000080e7          	jalr	ra # 64 <_ZN4core3ptr23swap_nonoverlapping_one17hc5273d53809f096bE+0x64>
  6c:	6522                	ld	a0,8(sp)
  6e:	02a10ba3          	sb	a0,55(sp)
  72:	a009                	j	74 <_ZN4core3ptr23swap_nonoverlapping_one17hc5273d53809f096bE+0x74>
  74:	60a6                	ld	ra,72(sp)
  76:	6161                	addi	sp,sp,80
  78:	8082                	ret

Disassembly of section .text._ZN4core3ptr24slice_from_raw_parts_mut17h6c8e9fe076134ba9E:

0000000000000000 <_ZN4core3ptr24slice_from_raw_parts_mut17h6c8e9fe076134ba9E>:
   0:	1101                	addi	sp,sp,-32
   2:	e82a                	sd	a0,16(sp)
   4:	ec2e                	sd	a1,24(sp)
   6:	e02a                	sd	a0,0(sp)
   8:	e42e                	sd	a1,8(sp)
   a:	6105                	addi	sp,sp,32
   c:	8082                	ret

Disassembly of section .text._ZN4core3ptr25swap_nonoverlapping_bytes17hea1090d3cc2cd31cE:

0000000000000000 <_ZN4core3ptr25swap_nonoverlapping_bytes17hea1090d3cc2cd31cE>:
   0:	7111                	addi	sp,sp,-256
   2:	fd86                	sd	ra,248(sp)
   4:	f9a2                	sd	s0,240(sp)
   6:	0200                	addi	s0,sp,256
   8:	fe017113          	andi	sp,sp,-32
   c:	e532                	sd	a2,136(sp)
   e:	e12e                	sd	a1,128(sp)
  10:	fcaa                	sd	a0,120(sp)
  12:	00000097          	auipc	ra,0x0
  16:	000080e7          	jalr	ra # 12 <_ZN4core3ptr25swap_nonoverlapping_bytes17hea1090d3cc2cd31cE+0x12>
  1a:	4581                	li	a1,0
  1c:	ed2e                	sd	a1,152(sp)
  1e:	f8aa                	sd	a0,112(sp)
  20:	a009                	j	22 <_ZN4core3ptr25swap_nonoverlapping_bytes17hea1090d3cc2cd31cE+0x22>
  22:	656a                	ld	a0,152(sp)
  24:	75c6                	ld	a1,112(sp)
  26:	952e                	add	a0,a0,a1
  28:	662a                	ld	a2,136(sp)
  2a:	00a67863          	bgeu	a2,a0,3a <_ZN4core3ptr25swap_nonoverlapping_bytes17hea1090d3cc2cd31cE+0x3a>
  2e:	a009                	j	30 <_ZN4core3ptr25swap_nonoverlapping_bytes17hea1090d3cc2cd31cE+0x30>
  30:	656a                	ld	a0,152(sp)
  32:	65aa                	ld	a1,136(sp)
  34:	06b56a63          	bltu	a0,a1,a8 <_ZN4core3ptr25swap_nonoverlapping_bytes17hea1090d3cc2cd31cE+0xa8>
  38:	a0cd                	j	11a <_ZN4core3ptr25swap_nonoverlapping_bytes17hea1090d3cc2cd31cE+0x11a>
  3a:	1108                	addi	a0,sp,160
  3c:	f4aa                	sd	a0,104(sp)
  3e:	00000097          	auipc	ra,0x0
  42:	000080e7          	jalr	ra # 3e <_ZN4core3ptr25swap_nonoverlapping_bytes17hea1090d3cc2cd31cE+0x3e>
  46:	7526                	ld	a0,104(sp)
  48:	00000097          	auipc	ra,0x0
  4c:	000080e7          	jalr	ra # 48 <_ZN4core3ptr25swap_nonoverlapping_bytes17hea1090d3cc2cd31cE+0x48>
  50:	65ea                	ld	a1,152(sp)
  52:	7666                	ld	a2,120(sp)
  54:	f0aa                	sd	a0,96(sp)
  56:	8532                	mv	a0,a2
  58:	00000097          	auipc	ra,0x0
  5c:	000080e7          	jalr	ra # 58 <_ZN4core3ptr25swap_nonoverlapping_bytes17hea1090d3cc2cd31cE+0x58>
  60:	65ea                	ld	a1,152(sp)
  62:	660a                	ld	a2,128(sp)
  64:	ecaa                	sd	a0,88(sp)
  66:	8532                	mv	a0,a2
  68:	00000097          	auipc	ra,0x0
  6c:	000080e7          	jalr	ra # 68 <_ZN4core3ptr25swap_nonoverlapping_bytes17hea1090d3cc2cd31cE+0x68>
  70:	65e6                	ld	a1,88(sp)
  72:	e8aa                	sd	a0,80(sp)
  74:	852e                	mv	a0,a1
  76:	7586                	ld	a1,96(sp)
  78:	7646                	ld	a2,112(sp)
  7a:	00000097          	auipc	ra,0x0
  7e:	000080e7          	jalr	ra # 7a <_ZN4core3ptr25swap_nonoverlapping_bytes17hea1090d3cc2cd31cE+0x7a>
  82:	6546                	ld	a0,80(sp)
  84:	65e6                	ld	a1,88(sp)
  86:	7646                	ld	a2,112(sp)
  88:	00000097          	auipc	ra,0x0
  8c:	000080e7          	jalr	ra # 88 <_ZN4core3ptr25swap_nonoverlapping_bytes17hea1090d3cc2cd31cE+0x88>
  90:	7506                	ld	a0,96(sp)
  92:	65c6                	ld	a1,80(sp)
  94:	7646                	ld	a2,112(sp)
  96:	00000097          	auipc	ra,0x0
  9a:	000080e7          	jalr	ra # 96 <_ZN4core3ptr25swap_nonoverlapping_bytes17hea1090d3cc2cd31cE+0x96>
  9e:	656a                	ld	a0,152(sp)
  a0:	75c6                	ld	a1,112(sp)
  a2:	952e                	add	a0,a0,a1
  a4:	ed2a                	sd	a0,152(sp)
  a6:	bfb5                	j	22 <_ZN4core3ptr25swap_nonoverlapping_bytes17hea1090d3cc2cd31cE+0x22>
  a8:	0988                	addi	a0,sp,208
  aa:	e4aa                	sd	a0,72(sp)
  ac:	00000097          	auipc	ra,0x0
  b0:	000080e7          	jalr	ra # ac <_ZN4core3ptr25swap_nonoverlapping_bytes17hea1090d3cc2cd31cE+0xac>
  b4:	656a                	ld	a0,152(sp)
  b6:	65aa                	ld	a1,136(sp)
  b8:	40a58533          	sub	a0,a1,a0
  bc:	6626                	ld	a2,72(sp)
  be:	e0aa                	sd	a0,64(sp)
  c0:	8532                	mv	a0,a2
  c2:	00000097          	auipc	ra,0x0
  c6:	000080e7          	jalr	ra # c2 <_ZN4core3ptr25swap_nonoverlapping_bytes17hea1090d3cc2cd31cE+0xc2>
  ca:	65ea                	ld	a1,152(sp)
  cc:	7666                	ld	a2,120(sp)
  ce:	fc2a                	sd	a0,56(sp)
  d0:	8532                	mv	a0,a2
  d2:	00000097          	auipc	ra,0x0
  d6:	000080e7          	jalr	ra # d2 <_ZN4core3ptr25swap_nonoverlapping_bytes17hea1090d3cc2cd31cE+0xd2>
  da:	65ea                	ld	a1,152(sp)
  dc:	660a                	ld	a2,128(sp)
  de:	f82a                	sd	a0,48(sp)
  e0:	8532                	mv	a0,a2
  e2:	00000097          	auipc	ra,0x0
  e6:	000080e7          	jalr	ra # e2 <_ZN4core3ptr25swap_nonoverlapping_bytes17hea1090d3cc2cd31cE+0xe2>
  ea:	75c2                	ld	a1,48(sp)
  ec:	f42a                	sd	a0,40(sp)
  ee:	852e                	mv	a0,a1
  f0:	75e2                	ld	a1,56(sp)
  f2:	6606                	ld	a2,64(sp)
  f4:	00000097          	auipc	ra,0x0
  f8:	000080e7          	jalr	ra # f4 <_ZN4core3ptr25swap_nonoverlapping_bytes17hea1090d3cc2cd31cE+0xf4>
  fc:	7522                	ld	a0,40(sp)
  fe:	75c2                	ld	a1,48(sp)
 100:	6606                	ld	a2,64(sp)
 102:	00000097          	auipc	ra,0x0
 106:	000080e7          	jalr	ra # 102 <_ZN4core3ptr25swap_nonoverlapping_bytes17hea1090d3cc2cd31cE+0x102>
 10a:	7562                	ld	a0,56(sp)
 10c:	75a2                	ld	a1,40(sp)
 10e:	6606                	ld	a2,64(sp)
 110:	00000097          	auipc	ra,0x0
 114:	000080e7          	jalr	ra # 110 <_ZN4core3ptr25swap_nonoverlapping_bytes17hea1090d3cc2cd31cE+0x110>
 118:	a009                	j	11a <_ZN4core3ptr25swap_nonoverlapping_bytes17hea1090d3cc2cd31cE+0x11a>
 11a:	f0040113          	addi	sp,s0,-256
 11e:	744e                	ld	s0,240(sp)
 120:	70ee                	ld	ra,248(sp)
 122:	6111                	addi	sp,sp,256
 124:	8082                	ret

Disassembly of section .text._ZN4core3ptr4null17hb4a269ecd696117cE:

0000000000000000 <_ZN4core3ptr4null17hb4a269ecd696117cE>:
   0:	4501                	li	a0,0
   2:	8082                	ret

Disassembly of section .text._ZN4core3ptr4read17h37e1083bf2d7add9E:

0000000000000000 <_ZN4core3ptr4read17h37e1083bf2d7add9E>:
   0:	1101                	addi	sp,sp,-32
   2:	ec06                	sd	ra,24(sp)
   4:	e42a                	sd	a0,8(sp)
   6:	00000097          	auipc	ra,0x0
   a:	000080e7          	jalr	ra # 6 <_ZN4core3ptr4read17h37e1083bf2d7add9E+0x6>
   e:	ca2a                	sw	a0,20(sp)
  10:	0848                	addi	a0,sp,20
  12:	00000097          	auipc	ra,0x0
  16:	000080e7          	jalr	ra # 12 <_ZN4core3ptr4read17h37e1083bf2d7add9E+0x12>
  1a:	4605                	li	a2,1
  1c:	65a2                	ld	a1,8(sp)
  1e:	e02a                	sd	a0,0(sp)
  20:	852e                	mv	a0,a1
  22:	6582                	ld	a1,0(sp)
  24:	00000097          	auipc	ra,0x0
  28:	000080e7          	jalr	ra # 24 <_ZN4core3ptr4read17h37e1083bf2d7add9E+0x24>
  2c:	4552                	lw	a0,20(sp)
  2e:	00000097          	auipc	ra,0x0
  32:	000080e7          	jalr	ra # 2e <_ZN4core3ptr4read17h37e1083bf2d7add9E+0x2e>
  36:	60e2                	ld	ra,24(sp)
  38:	6105                	addi	sp,sp,32
  3a:	8082                	ret

Disassembly of section .text._ZN4core3ptr5write17h246520c56c73c72fE:

0000000000000000 <_ZN4core3ptr5write17h246520c56c73c72fE>:
   0:	1141                	addi	sp,sp,-16
   2:	862e                	mv	a2,a1
   4:	c10c                	sw	a1,0(a0)
   6:	0141                	addi	sp,sp,16
   8:	8082                	ret

Disassembly of section .text._ZN4core3ptr7mut_ptr31_$LT$impl$u20$$BP$mut$u20$T$GT$13guaranteed_eq17h81da283228e02ae1E:

0000000000000000 <_ZN4core3ptr7mut_ptr31_$LT$impl$u20$$BP$mut$u20$T$GT$13guaranteed_eq17h81da283228e02ae1E>:
   0:	1141                	addi	sp,sp,-16
   2:	8d2d                	xor	a0,a0,a1
   4:	00153513          	seqz	a0,a0
   8:	00a107a3          	sb	a0,15(sp)
   c:	0141                	addi	sp,sp,16
   e:	8082                	ret

Disassembly of section .text._ZN4core3ptr7mut_ptr31_$LT$impl$u20$$BP$mut$u20$T$GT$3add17hbf57ab5661014a8fE:

0000000000000000 <_ZN4core3ptr7mut_ptr31_$LT$impl$u20$$BP$mut$u20$T$GT$3add17hbf57ab5661014a8fE>:
   0:	1141                	addi	sp,sp,-16
   2:	e406                	sd	ra,8(sp)
   4:	00000097          	auipc	ra,0x0
   8:	000080e7          	jalr	ra # 4 <_ZN4core3ptr7mut_ptr31_$LT$impl$u20$$BP$mut$u20$T$GT$3add17hbf57ab5661014a8fE+0x4>
   c:	60a2                	ld	ra,8(sp)
   e:	0141                	addi	sp,sp,16
  10:	8082                	ret

Disassembly of section .text._ZN4core3ptr7mut_ptr31_$LT$impl$u20$$BP$mut$u20$T$GT$6offset17hbdbe5f96a0c3526fE:

0000000000000000 <_ZN4core3ptr7mut_ptr31_$LT$impl$u20$$BP$mut$u20$T$GT$6offset17hbdbe5f96a0c3526fE>:
   0:	1141                	addi	sp,sp,-16
   2:	952e                	add	a0,a0,a1
   4:	e42a                	sd	a0,8(sp)
   6:	0141                	addi	sp,sp,16
   8:	8082                	ret

Disassembly of section .text._ZN4core3ptr7mut_ptr31_$LT$impl$u20$$BP$mut$u20$T$GT$7is_null17hf76e879a55d9c912E:

0000000000000000 <_ZN4core3ptr7mut_ptr31_$LT$impl$u20$$BP$mut$u20$T$GT$7is_null17hf76e879a55d9c912E>:
   0:	1101                	addi	sp,sp,-32
   2:	ec06                	sd	ra,24(sp)
   4:	e82a                	sd	a0,16(sp)
   6:	00000097          	auipc	ra,0x0
   a:	000080e7          	jalr	ra # 6 <_ZN4core3ptr7mut_ptr31_$LT$impl$u20$$BP$mut$u20$T$GT$7is_null17hf76e879a55d9c912E+0x6>
   e:	65c2                	ld	a1,16(sp)
  10:	e42a                	sd	a0,8(sp)
  12:	852e                	mv	a0,a1
  14:	65a2                	ld	a1,8(sp)
  16:	00000097          	auipc	ra,0x0
  1a:	000080e7          	jalr	ra # 16 <_ZN4core3ptr7mut_ptr31_$LT$impl$u20$$BP$mut$u20$T$GT$7is_null17hf76e879a55d9c912E+0x16>
  1e:	60e2                	ld	ra,24(sp)
  20:	6105                	addi	sp,sp,32
  22:	8082                	ret

Disassembly of section .text._ZN4core3ptr7mut_ptr41_$LT$impl$u20$$BP$mut$u20$$u5b$T$u5d$$GT$10as_mut_ptr17hc5721e54a5ca9cbeE:

0000000000000000 <_ZN4core3ptr7mut_ptr41_$LT$impl$u20$$BP$mut$u20$$u5b$T$u5d$$GT$10as_mut_ptr17hc5721e54a5ca9cbeE>:
   0:	8082                	ret

Disassembly of section .text._ZN4core3ptr8non_null16NonNull$LT$T$GT$13new_unchecked17h285d9dd25468d833E:

0000000000000000 <_ZN4core3ptr8non_null16NonNull$LT$T$GT$13new_unchecked17h285d9dd25468d833E>:
   0:	1141                	addi	sp,sp,-16
   2:	e42a                	sd	a0,8(sp)
   4:	0141                	addi	sp,sp,16
   6:	8082                	ret

Disassembly of section .text._ZN4core3ptr8non_null16NonNull$LT$T$GT$6as_ptr17ha364e7dc4c4c017fE:

0000000000000000 <_ZN4core3ptr8non_null16NonNull$LT$T$GT$6as_ptr17ha364e7dc4c4c017fE>:
   0:	8082                	ret

Disassembly of section .text._ZN4core3ptr8null_mut17h705a7be6e34f0921E:

0000000000000000 <_ZN4core3ptr8null_mut17h705a7be6e34f0921E>:
   0:	4501                	li	a0,0
   2:	8082                	ret

Disassembly of section .text._ZN4core3ptr9const_ptr33_$LT$impl$u20$$BP$const$u20$T$GT$12wrapping_add17hdc37a53c008a64faE:

0000000000000000 <_ZN4core3ptr9const_ptr33_$LT$impl$u20$$BP$const$u20$T$GT$12wrapping_add17hdc37a53c008a64faE>:
   0:	1141                	addi	sp,sp,-16
   2:	e406                	sd	ra,8(sp)
   4:	00000097          	auipc	ra,0x0
   8:	000080e7          	jalr	ra # 4 <_ZN4core3ptr9const_ptr33_$LT$impl$u20$$BP$const$u20$T$GT$12wrapping_add17hdc37a53c008a64faE+0x4>
   c:	60a2                	ld	ra,8(sp)
   e:	0141                	addi	sp,sp,16
  10:	8082                	ret

Disassembly of section .text._ZN4core3ptr9const_ptr33_$LT$impl$u20$$BP$const$u20$T$GT$13guaranteed_eq17h01c88e1d74cc4a4bE:

0000000000000000 <_ZN4core3ptr9const_ptr33_$LT$impl$u20$$BP$const$u20$T$GT$13guaranteed_eq17h01c88e1d74cc4a4bE>:
   0:	1141                	addi	sp,sp,-16
   2:	8d2d                	xor	a0,a0,a1
   4:	00153513          	seqz	a0,a0
   8:	00a107a3          	sb	a0,15(sp)
   c:	0141                	addi	sp,sp,16
   e:	8082                	ret

Disassembly of section .text._ZN4core3ptr9const_ptr33_$LT$impl$u20$$BP$const$u20$T$GT$15wrapping_offset17h5243096fe1bc1337E:

0000000000000000 <_ZN4core3ptr9const_ptr33_$LT$impl$u20$$BP$const$u20$T$GT$15wrapping_offset17h5243096fe1bc1337E>:
   0:	1141                	addi	sp,sp,-16
   2:	952e                	add	a0,a0,a1
   4:	e42a                	sd	a0,8(sp)
   6:	0141                	addi	sp,sp,16
   8:	8082                	ret

Disassembly of section .text._ZN4core3ptr9const_ptr33_$LT$impl$u20$$BP$const$u20$T$GT$3add17h4f8106d99b4d69f0E:

0000000000000000 <_ZN4core3ptr9const_ptr33_$LT$impl$u20$$BP$const$u20$T$GT$3add17h4f8106d99b4d69f0E>:
   0:	1141                	addi	sp,sp,-16
   2:	e406                	sd	ra,8(sp)
   4:	00000097          	auipc	ra,0x0
   8:	000080e7          	jalr	ra # 4 <_ZN4core3ptr9const_ptr33_$LT$impl$u20$$BP$const$u20$T$GT$3add17h4f8106d99b4d69f0E+0x4>
   c:	60a2                	ld	ra,8(sp)
   e:	0141                	addi	sp,sp,16
  10:	8082                	ret

Disassembly of section .text._ZN4core3ptr9const_ptr33_$LT$impl$u20$$BP$const$u20$T$GT$6offset17h8e461d62c3e887eaE:

0000000000000000 <_ZN4core3ptr9const_ptr33_$LT$impl$u20$$BP$const$u20$T$GT$6offset17h8e461d62c3e887eaE>:
   0:	1141                	addi	sp,sp,-16
   2:	952e                	add	a0,a0,a1
   4:	e42a                	sd	a0,8(sp)
   6:	0141                	addi	sp,sp,16
   8:	8082                	ret

Disassembly of section .text._ZN4core3ptr9const_ptr33_$LT$impl$u20$$BP$const$u20$T$GT$7is_null17h55cea2ae11f2f979E:

0000000000000000 <_ZN4core3ptr9const_ptr33_$LT$impl$u20$$BP$const$u20$T$GT$7is_null17h55cea2ae11f2f979E>:
   0:	1101                	addi	sp,sp,-32
   2:	ec06                	sd	ra,24(sp)
   4:	e82a                	sd	a0,16(sp)
   6:	00000097          	auipc	ra,0x0
   a:	000080e7          	jalr	ra # 6 <_ZN4core3ptr9const_ptr33_$LT$impl$u20$$BP$const$u20$T$GT$7is_null17h55cea2ae11f2f979E+0x6>
   e:	65c2                	ld	a1,16(sp)
  10:	e42a                	sd	a0,8(sp)
  12:	852e                	mv	a0,a1
  14:	65a2                	ld	a1,8(sp)
  16:	00000097          	auipc	ra,0x0
  1a:	000080e7          	jalr	ra # 16 <_ZN4core3ptr9const_ptr33_$LT$impl$u20$$BP$const$u20$T$GT$7is_null17h55cea2ae11f2f979E+0x16>
  1e:	60e2                	ld	ra,24(sp)
  20:	6105                	addi	sp,sp,32
  22:	8082                	ret

Disassembly of section .text._ZN4core3str11validations11unwrap_or_017h6ce1257ed996a28bE:

0000000000000000 <_ZN4core3str11validations11unwrap_or_017h6ce1257ed996a28bE>:
   0:	1141                	addi	sp,sp,-16
   2:	e02a                	sd	a0,0(sp)
   4:	4581                	li	a1,0
   6:	00b51763          	bne	a0,a1,14 <_ZN4core3str11validations11unwrap_or_017h6ce1257ed996a28bE+0x14>
   a:	a009                	j	c <_ZN4core3str11validations11unwrap_or_017h6ce1257ed996a28bE+0xc>
   c:	4501                	li	a0,0
   e:	00a107a3          	sb	a0,15(sp)
  12:	a039                	j	20 <_ZN4core3str11validations11unwrap_or_017h6ce1257ed996a28bE+0x20>
  14:	6502                	ld	a0,0(sp)
  16:	00050503          	lb	a0,0(a0)
  1a:	00a107a3          	sb	a0,15(sp)
  1e:	a009                	j	20 <_ZN4core3str11validations11unwrap_or_017h6ce1257ed996a28bE+0x20>
  20:	00f10503          	lb	a0,15(sp)
  24:	0141                	addi	sp,sp,16
  26:	8082                	ret

Disassembly of section .text._ZN4core3str11validations15next_code_point17he8e495c947b1b4ecE:

0000000000000000 <_ZN4core3str11validations15next_code_point17he8e495c947b1b4ecE>:
   0:	7159                	addi	sp,sp,-112
   2:	f486                	sd	ra,104(sp)
   4:	e4aa                	sd	a0,72(sp)
   6:	00000097          	auipc	ra,0x0
   a:	000080e7          	jalr	ra # 6 <_ZN4core3str11validations15next_code_point17he8e495c947b1b4ecE+0x6>
   e:	00000097          	auipc	ra,0x0
  12:	000080e7          	jalr	ra # e <_ZN4core3str11validations15next_code_point17he8e495c947b1b4ecE+0xe>
  16:	ecaa                	sd	a0,88(sp)
  18:	4581                	li	a1,0
  1a:	00b50d63          	beq	a0,a1,34 <_ZN4core3str11validations15next_code_point17he8e495c947b1b4ecE+0x34>
  1e:	a009                	j	20 <_ZN4core3str11validations15next_code_point17he8e495c947b1b4ecE+0x20>
  20:	6566                	ld	a0,88(sp)
  22:	00050503          	lb	a0,0(a0)
  26:	0ff57593          	andi	a1,a0,255
  2a:	567d                	li	a2,-1
  2c:	e0ae                	sd	a1,64(sp)
  2e:	06a64363          	blt	a2,a0,94 <_ZN4core3str11validations15next_code_point17he8e495c947b1b4ecE+0x94>
  32:	a821                	j	4a <_ZN4core3str11validations15next_code_point17he8e495c947b1b4ecE+0x4a>
  34:	00000097          	auipc	ra,0x0
  38:	000080e7          	jalr	ra # 34 <_ZN4core3str11validations15next_code_point17he8e495c947b1b4ecE+0x34>
  3c:	00000097          	auipc	ra,0x0
  40:	000080e7          	jalr	ra # 3c <_ZN4core3str11validations15next_code_point17he8e495c947b1b4ecE+0x3c>
  44:	c8aa                	sw	a0,80(sp)
  46:	caae                	sw	a1,84(sp)
  48:	a8d1                	j	11c <_ZN4core3str11validations15next_code_point17he8e495c947b1b4ecE+0x11c>
  4a:	4589                	li	a1,2
  4c:	6506                	ld	a0,64(sp)
  4e:	00000097          	auipc	ra,0x0
  52:	000080e7          	jalr	ra # 4e <_ZN4core3str11validations15next_code_point17he8e495c947b1b4ecE+0x4e>
  56:	85aa                	mv	a1,a0
  58:	6626                	ld	a2,72(sp)
  5a:	fc2a                	sd	a0,56(sp)
  5c:	8532                	mv	a0,a2
  5e:	f82e                	sd	a1,48(sp)
  60:	00000097          	auipc	ra,0x0
  64:	000080e7          	jalr	ra # 60 <_ZN4core3str11validations15next_code_point17he8e495c947b1b4ecE+0x60>
  68:	00000097          	auipc	ra,0x0
  6c:	000080e7          	jalr	ra # 68 <_ZN4core3str11validations15next_code_point17he8e495c947b1b4ecE+0x68>
  70:	85aa                	mv	a1,a0
  72:	7662                	ld	a2,56(sp)
  74:	f42a                	sd	a0,40(sp)
  76:	8532                	mv	a0,a2
  78:	76a2                	ld	a3,40(sp)
  7a:	f02e                	sd	a1,32(sp)
  7c:	85b6                	mv	a1,a3
  7e:	00000097          	auipc	ra,0x0
  82:	000080e7          	jalr	ra # 7e <_ZN4core3str11validations15next_code_point17he8e495c947b1b4ecE+0x7e>
  86:	d2aa                	sw	a0,100(sp)
  88:	0df00513          	li	a0,223
  8c:	6586                	ld	a1,64(sp)
  8e:	00b56863          	bltu	a0,a1,9e <_ZN4core3str11validations15next_code_point17he8e495c947b1b4ecE+0x9e>
  92:	a041                	j	112 <_ZN4core3str11validations15next_code_point17he8e495c947b1b4ecE+0x112>
  94:	6506                	ld	a0,64(sp)
  96:	caaa                	sw	a0,84(sp)
  98:	4585                	li	a1,1
  9a:	c8ae                	sw	a1,80(sp)
  9c:	a041                	j	11c <_ZN4core3str11validations15next_code_point17he8e495c947b1b4ecE+0x11c>
  9e:	6526                	ld	a0,72(sp)
  a0:	00000097          	auipc	ra,0x0
  a4:	000080e7          	jalr	ra # a0 <_ZN4core3str11validations15next_code_point17he8e495c947b1b4ecE+0xa0>
  a8:	00000097          	auipc	ra,0x0
  ac:	000080e7          	jalr	ra # a8 <_ZN4core3str11validations15next_code_point17he8e495c947b1b4ecE+0xa8>
  b0:	7582                	ld	a1,32(sp)
  b2:	03f5f613          	andi	a2,a1,63
  b6:	ec2a                	sd	a0,24(sp)
  b8:	8532                	mv	a0,a2
  ba:	65e2                	ld	a1,24(sp)
  bc:	00000097          	auipc	ra,0x0
  c0:	000080e7          	jalr	ra # bc <_ZN4core3str11validations15next_code_point17he8e495c947b1b4ecE+0xbc>
  c4:	85aa                	mv	a1,a0
  c6:	7642                	ld	a2,48(sp)
  c8:	00c61693          	slli	a3,a2,0xc
  cc:	8d55                	or	a0,a0,a3
  ce:	d2aa                	sw	a0,100(sp)
  d0:	0f000513          	li	a0,240
  d4:	6686                	ld	a3,64(sp)
  d6:	e82e                	sd	a1,16(sp)
  d8:	02a6ed63          	bltu	a3,a0,112 <_ZN4core3str11validations15next_code_point17he8e495c947b1b4ecE+0x112>
  dc:	a009                	j	de <_ZN4core3str11validations15next_code_point17he8e495c947b1b4ecE+0xde>
  de:	6526                	ld	a0,72(sp)
  e0:	00000097          	auipc	ra,0x0
  e4:	000080e7          	jalr	ra # e0 <_ZN4core3str11validations15next_code_point17he8e495c947b1b4ecE+0xe0>
  e8:	00000097          	auipc	ra,0x0
  ec:	000080e7          	jalr	ra # e8 <_ZN4core3str11validations15next_code_point17he8e495c947b1b4ecE+0xe8>
  f0:	75c2                	ld	a1,48(sp)
  f2:	0075f613          	andi	a2,a1,7
  f6:	064a                	slli	a2,a2,0x12
  f8:	66c2                	ld	a3,16(sp)
  fa:	e42a                	sd	a0,8(sp)
  fc:	8536                	mv	a0,a3
  fe:	65a2                	ld	a1,8(sp)
 100:	e032                	sd	a2,0(sp)
 102:	00000097          	auipc	ra,0x0
 106:	000080e7          	jalr	ra # 102 <_ZN4core3str11validations15next_code_point17he8e495c947b1b4ecE+0x102>
 10a:	6582                	ld	a1,0(sp)
 10c:	8d4d                	or	a0,a0,a1
 10e:	d2aa                	sw	a0,100(sp)
 110:	a009                	j	112 <_ZN4core3str11validations15next_code_point17he8e495c947b1b4ecE+0x112>
 112:	5516                	lw	a0,100(sp)
 114:	caaa                	sw	a0,84(sp)
 116:	4505                	li	a0,1
 118:	c8aa                	sw	a0,80(sp)
 11a:	a009                	j	11c <_ZN4core3str11validations15next_code_point17he8e495c947b1b4ecE+0x11c>
 11c:	4546                	lw	a0,80(sp)
 11e:	45d6                	lw	a1,84(sp)
 120:	70a6                	ld	ra,104(sp)
 122:	6165                	addi	sp,sp,112
 124:	8082                	ret

Disassembly of section .text._ZN4core3str11validations15utf8_first_byte17h1d30ecef13ee352bE:

0000000000000000 <_ZN4core3str11validations15utf8_first_byte17h1d30ecef13ee352bE>:
   0:	862e                	mv	a2,a1
   2:	86aa                	mv	a3,a0
   4:	899d                	andi	a1,a1,7
   6:	07f00713          	li	a4,127
   a:	00b755b3          	srl	a1,a4,a1
   e:	8d6d                	and	a0,a0,a1
  10:	8082                	ret

Disassembly of section .text._ZN4core3str11validations18utf8_acc_cont_byte17h90a510a118fd0f9fE:

0000000000000000 <_ZN4core3str11validations18utf8_acc_cont_byte17h90a510a118fd0f9fE>:
   0:	862e                	mv	a2,a1
   2:	86aa                	mv	a3,a0
   4:	051a                	slli	a0,a0,0x6
   6:	03f5f593          	andi	a1,a1,63
   a:	8d4d                	or	a0,a0,a1
   c:	8082                	ret

Disassembly of section .text._ZN4core3str21_$LT$impl$u20$str$GT$5chars17hb013d1d579903d21E:

0000000000000000 <_ZN4core3str21_$LT$impl$u20$str$GT$5chars17hb013d1d579903d21E>:
   0:	1101                	addi	sp,sp,-32
   2:	ec06                	sd	ra,24(sp)
   4:	00000097          	auipc	ra,0x0
   8:	000080e7          	jalr	ra # 4 <_ZN4core3str21_$LT$impl$u20$str$GT$5chars17hb013d1d579903d21E+0x4>
   c:	00000097          	auipc	ra,0x0
  10:	000080e7          	jalr	ra # c <_ZN4core3str21_$LT$impl$u20$str$GT$5chars17hb013d1d579903d21E+0xc>
  14:	e42a                	sd	a0,8(sp)
  16:	e82e                	sd	a1,16(sp)
  18:	60e2                	ld	ra,24(sp)
  1a:	6105                	addi	sp,sp,32
  1c:	8082                	ret

Disassembly of section .text._ZN4core3str21_$LT$impl$u20$str$GT$8as_bytes17h462480eb37c5bf91E:

0000000000000000 <_ZN4core3str21_$LT$impl$u20$str$GT$8as_bytes17h462480eb37c5bf91E>:
   0:	1141                	addi	sp,sp,-16
   2:	e02a                	sd	a0,0(sp)
   4:	e42e                	sd	a1,8(sp)
   6:	0141                	addi	sp,sp,16
   8:	8082                	ret

Disassembly of section .text._ZN4core3str8converts23from_utf8_unchecked_mut17h61d5d743d6eeca77E:

0000000000000000 <_ZN4core3str8converts23from_utf8_unchecked_mut17h61d5d743d6eeca77E>:
   0:	8082                	ret

Disassembly of section .text._ZN4core4char7convert18from_u32_unchecked17h30a4204f364e3398E:

0000000000000000 <_ZN4core4char7convert18from_u32_unchecked17h30a4204f364e3398E>:
   0:	1141                	addi	sp,sp,-16
   2:	85aa                	mv	a1,a0
   4:	c62a                	sw	a0,12(sp)
   6:	0141                	addi	sp,sp,16
   8:	8082                	ret

Disassembly of section .text._ZN4core4char7methods15encode_utf8_raw17h0f6cc194f059b576E:

0000000000000000 <_ZN4core4char7methods15encode_utf8_raw17h0f6cc194f059b576E>:
   0:	7169                	addi	sp,sp,-304
   2:	f606                	sd	ra,296(sp)
   4:	86aa                	mv	a3,a0
   6:	daaa                	sw	a0,116(sp)
   8:	f4b2                	sd	a2,104(sp)
   a:	f0ae                	sd	a1,96(sp)
   c:	ecb6                	sd	a3,88(sp)
   e:	00000097          	auipc	ra,0x0
  12:	000080e7          	jalr	ra # e <_ZN4core4char7methods15encode_utf8_raw17h0f6cc194f059b576E+0xe>
  16:	fcaa                	sd	a0,120(sp)

0000000000000018 <.LBB73_14>:
  18:	00000617          	auipc	a2,0x0
  1c:	00060613          	mv	a2,a2
  20:	7586                	ld	a1,96(sp)
  22:	e8aa                	sd	a0,80(sp)
  24:	852e                	mv	a0,a1
  26:	75a6                	ld	a1,104(sp)
  28:	00000097          	auipc	ra,0x0
  2c:	000080e7          	jalr	ra # 28 <.LBB73_14+0x10>
  30:	6646                	ld	a2,80(sp)
  32:	e132                	sd	a2,128(sp)
  34:	e52a                	sd	a0,136(sp)
  36:	e92e                	sd	a1,144(sp)
  38:	4505                	li	a0,1
  3a:	65c6                	ld	a1,80(sp)
  3c:	e4b2                	sd	a2,72(sp)
  3e:	02a58263          	beq	a1,a0,62 <.LBB73_14+0x4a>
  42:	a009                	j	44 <.LBB73_14+0x2c>
  44:	4509                	li	a0,2
  46:	65a6                	ld	a1,72(sp)
  48:	0ca58463          	beq	a1,a0,110 <.LBB73_18+0x14>
  4c:	a009                	j	4e <.LBB73_14+0x36>
  4e:	450d                	li	a0,3
  50:	65a6                	ld	a1,72(sp)
  52:	0ca58463          	beq	a1,a0,11a <.LBB73_18+0x1e>
  56:	a009                	j	58 <.LBB73_14+0x40>
  58:	4511                	li	a0,4
  5a:	65a6                	ld	a1,72(sp)
  5c:	0ca58463          	beq	a1,a0,124 <.LBB73_18+0x28>
  60:	a031                	j	6c <.LBB73_14+0x54>
  62:	654a                	ld	a0,144(sp)
  64:	4581                	li	a1,0
  66:	0cb51463          	bne	a0,a1,12e <.LBB73_18+0x32>
  6a:	a009                	j	6c <.LBB73_14+0x54>
  6c:	7506                	ld	a0,96(sp)
  6e:	75a6                	ld	a1,104(sp)
  70:	00000097          	auipc	ra,0x0
  74:	000080e7          	jalr	ra # 70 <.LBB73_14+0x58>
  78:	ee2a                	sd	a0,280(sp)
  7a:	18a8                	addi	a0,sp,120
  7c:	e22a                	sd	a0,256(sp)
  7e:	18cc                	addi	a1,sp,116
  80:	e62e                	sd	a1,264(sp)
  82:	0a30                	addi	a2,sp,280
  84:	ea32                	sd	a2,272(sp)

0000000000000086 <.LBB73_15>:
  86:	00000697          	auipc	a3,0x0
  8a:	00068693          	mv	a3,a3
  8e:	e0ae                	sd	a1,64(sp)
  90:	85b6                	mv	a1,a3
  92:	fc32                	sd	a2,56(sp)
  94:	f836                	sd	a3,48(sp)
  96:	00000097          	auipc	ra,0x0
  9a:	000080e7          	jalr	ra # 96 <.LBB73_15+0x10>

000000000000009e <.LBB73_16>:
  9e:	00000617          	auipc	a2,0x0
  a2:	00060613          	mv	a2,a2
  a6:	6686                	ld	a3,64(sp)
  a8:	f42a                	sd	a0,40(sp)
  aa:	8536                	mv	a0,a3
  ac:	f02e                	sd	a1,32(sp)
  ae:	85b2                	mv	a1,a2
  b0:	00000097          	auipc	ra,0x0
  b4:	000080e7          	jalr	ra # b0 <.LBB73_16+0x12>
  b8:	7662                	ld	a2,56(sp)
  ba:	ec2a                	sd	a0,24(sp)
  bc:	8532                	mv	a0,a2
  be:	76c2                	ld	a3,48(sp)
  c0:	e82e                	sd	a1,16(sp)
  c2:	85b6                	mv	a1,a3
  c4:	00000097          	auipc	ra,0x0
  c8:	000080e7          	jalr	ra # c4 <.LBB73_16+0x26>
  cc:	7622                	ld	a2,40(sp)
  ce:	e9b2                	sd	a2,208(sp)
  d0:	7682                	ld	a3,32(sp)
  d2:	edb6                	sd	a3,216(sp)
  d4:	6762                	ld	a4,24(sp)
  d6:	f1ba                	sd	a4,224(sp)
  d8:	67c2                	ld	a5,16(sp)
  da:	f5be                	sd	a5,232(sp)
  dc:	f9aa                	sd	a0,240(sp)
  de:	fdae                	sd	a1,248(sp)

00000000000000e0 <.LBB73_17>:
  e0:	00000597          	auipc	a1,0x0
  e4:	00058593          	mv	a1,a1
  e8:	1108                	addi	a0,sp,160
  ea:	0994                	addi	a3,sp,208
  ec:	480d                	li	a6,3
  ee:	e42a                	sd	a0,8(sp)
  f0:	8642                	mv	a2,a6
  f2:	8742                	mv	a4,a6
  f4:	00000097          	auipc	ra,0x0
  f8:	000080e7          	jalr	ra # f4 <.LBB73_17+0x14>

00000000000000fc <.LBB73_18>:
  fc:	00000597          	auipc	a1,0x0
 100:	00058593          	mv	a1,a1
 104:	6522                	ld	a0,8(sp)
 106:	00000097          	auipc	ra,0x0
 10a:	000080e7          	jalr	ra # 106 <.LBB73_18+0xa>
 10e:	0000                	unimp
 110:	654a                	ld	a0,144(sp)
 112:	4585                	li	a1,1
 114:	02a5e363          	bltu	a1,a0,13a <.LBB73_18+0x3e>
 118:	bf91                	j	6c <.LBB73_14+0x54>
 11a:	654a                	ld	a0,144(sp)
 11c:	4589                	li	a1,2
 11e:	02a5ef63          	bltu	a1,a0,15c <.LBB73_18+0x60>
 122:	b7a9                	j	6c <.LBB73_14+0x54>
 124:	654a                	ld	a0,144(sp)
 126:	458d                	li	a1,3
 128:	06a5e363          	bltu	a1,a0,18e <.LBB73_18+0x92>
 12c:	b781                	j	6c <.LBB73_14+0x54>
 12e:	652a                	ld	a0,136(sp)
 130:	07410583          	lb	a1,116(sp)
 134:	00b50023          	sb	a1,0(a0)
 138:	a861                	j	1d0 <.LBB73_18+0xd4>
 13a:	652a                	ld	a0,136(sp)
 13c:	55d6                	lw	a1,116(sp)
 13e:	8199                	srli	a1,a1,0x6
 140:	89fd                	andi	a1,a1,31
 142:	0c05e593          	ori	a1,a1,192
 146:	00b50023          	sb	a1,0(a0)
 14a:	07414583          	lbu	a1,116(sp)
 14e:	03f5f593          	andi	a1,a1,63
 152:	0805e593          	ori	a1,a1,128
 156:	00b500a3          	sb	a1,1(a0)
 15a:	a89d                	j	1d0 <.LBB73_18+0xd4>
 15c:	652a                	ld	a0,136(sp)
 15e:	55d6                	lw	a1,116(sp)
 160:	81b1                	srli	a1,a1,0xc
 162:	89bd                	andi	a1,a1,15
 164:	0e05e593          	ori	a1,a1,224
 168:	00b50023          	sb	a1,0(a0)
 16c:	55d6                	lw	a1,116(sp)
 16e:	8199                	srli	a1,a1,0x6
 170:	03f5f593          	andi	a1,a1,63
 174:	0805e593          	ori	a1,a1,128
 178:	00b500a3          	sb	a1,1(a0)
 17c:	07414583          	lbu	a1,116(sp)
 180:	03f5f593          	andi	a1,a1,63
 184:	0805e593          	ori	a1,a1,128
 188:	00b50123          	sb	a1,2(a0)
 18c:	a091                	j	1d0 <.LBB73_18+0xd4>
 18e:	652a                	ld	a0,136(sp)
 190:	55d6                	lw	a1,116(sp)
 192:	81c9                	srli	a1,a1,0x12
 194:	899d                	andi	a1,a1,7
 196:	0f05e593          	ori	a1,a1,240
 19a:	00b50023          	sb	a1,0(a0)
 19e:	55d6                	lw	a1,116(sp)
 1a0:	81b1                	srli	a1,a1,0xc
 1a2:	03f5f593          	andi	a1,a1,63
 1a6:	0805e593          	ori	a1,a1,128
 1aa:	00b500a3          	sb	a1,1(a0)
 1ae:	55d6                	lw	a1,116(sp)
 1b0:	8199                	srli	a1,a1,0x6
 1b2:	03f5f593          	andi	a1,a1,63
 1b6:	0805e593          	ori	a1,a1,128
 1ba:	00b50123          	sb	a1,2(a0)
 1be:	07414583          	lbu	a1,116(sp)
 1c2:	03f5f593          	andi	a1,a1,63
 1c6:	0805e593          	ori	a1,a1,128
 1ca:	00b501a3          	sb	a1,3(a0)
 1ce:	a009                	j	1d0 <.LBB73_18+0xd4>
 1d0:	7566                	ld	a0,120(sp)
 1d2:	f22a                	sd	a0,288(sp)

00000000000001d4 <.LBB73_19>:
 1d4:	00000697          	auipc	a3,0x0
 1d8:	00068693          	mv	a3,a3
 1dc:	7586                	ld	a1,96(sp)
 1de:	e02a                	sd	a0,0(sp)
 1e0:	852e                	mv	a0,a1
 1e2:	75a6                	ld	a1,104(sp)
 1e4:	6602                	ld	a2,0(sp)
 1e6:	00000097          	auipc	ra,0x0
 1ea:	000080e7          	jalr	ra # 1e6 <.LBB73_19+0x12>
 1ee:	70b2                	ld	ra,296(sp)
 1f0:	6155                	addi	sp,sp,304
 1f2:	8082                	ret

Disassembly of section .text._ZN4core4char7methods22_$LT$impl$u20$char$GT$11encode_utf817hc6d6808654a2c1aeE:

0000000000000000 <_ZN4core4char7methods22_$LT$impl$u20$char$GT$11encode_utf817hc6d6808654a2c1aeE>:
   0:	1141                	addi	sp,sp,-16
   2:	e406                	sd	ra,8(sp)
   4:	86aa                	mv	a3,a0
   6:	e036                	sd	a3,0(sp)
   8:	00000097          	auipc	ra,0x0
   c:	000080e7          	jalr	ra # 8 <_ZN4core4char7methods22_$LT$impl$u20$char$GT$11encode_utf817hc6d6808654a2c1aeE+0x8>
  10:	00000097          	auipc	ra,0x0
  14:	000080e7          	jalr	ra # 10 <_ZN4core4char7methods22_$LT$impl$u20$char$GT$11encode_utf817hc6d6808654a2c1aeE+0x10>
  18:	60a2                	ld	ra,8(sp)
  1a:	0141                	addi	sp,sp,16
  1c:	8082                	ret

Disassembly of section .text._ZN4core4char7methods8len_utf817hc0c87783aa9b531eE:

0000000000000000 <_ZN4core4char7methods8len_utf817hc0c87783aa9b531eE>:
   0:	1141                	addi	sp,sp,-16
   2:	0005059b          	sext.w	a1,a0
   6:	08000613          	li	a2,128
   a:	e02a                	sd	a0,0(sp)
   c:	00c5ea63          	bltu	a1,a2,20 <_ZN4core4char7methods8len_utf817hc0c87783aa9b531eE+0x20>
  10:	a009                	j	12 <_ZN4core4char7methods8len_utf817hc0c87783aa9b531eE+0x12>
  12:	6502                	ld	a0,0(sp)
  14:	00b5559b          	srliw	a1,a0,0xb
  18:	4601                	li	a2,0
  1a:	00c58d63          	beq	a1,a2,34 <_ZN4core4char7methods8len_utf817hc0c87783aa9b531eE+0x34>
  1e:	a021                	j	26 <_ZN4core4char7methods8len_utf817hc0c87783aa9b531eE+0x26>
  20:	4505                	li	a0,1
  22:	e42a                	sd	a0,8(sp)
  24:	a00d                	j	46 <_ZN4core4char7methods8len_utf817hc0c87783aa9b531eE+0x46>
  26:	6502                	ld	a0,0(sp)
  28:	0105559b          	srliw	a1,a0,0x10
  2c:	4601                	li	a2,0
  2e:	00c58963          	beq	a1,a2,40 <_ZN4core4char7methods8len_utf817hc0c87783aa9b531eE+0x40>
  32:	a021                	j	3a <_ZN4core4char7methods8len_utf817hc0c87783aa9b531eE+0x3a>
  34:	4509                	li	a0,2
  36:	e42a                	sd	a0,8(sp)
  38:	a039                	j	46 <_ZN4core4char7methods8len_utf817hc0c87783aa9b531eE+0x46>
  3a:	4511                	li	a0,4
  3c:	e42a                	sd	a0,8(sp)
  3e:	a021                	j	46 <_ZN4core4char7methods8len_utf817hc0c87783aa9b531eE+0x46>
  40:	450d                	li	a0,3
  42:	e42a                	sd	a0,8(sp)
  44:	a009                	j	46 <_ZN4core4char7methods8len_utf817hc0c87783aa9b531eE+0x46>
  46:	6522                	ld	a0,8(sp)
  48:	0141                	addi	sp,sp,16
  4a:	8082                	ret

Disassembly of section .text._ZN4core4iter5range101_$LT$impl$u20$core..iter..traits..iterator..Iterator$u20$for$u20$core..ops..range..Range$LT$A$GT$$GT$4next17h0e55921054be0607E:

0000000000000000 <_ZN4core4iter5range101_$LT$impl$u20$core..iter..traits..iterator..Iterator$u20$for$u20$core..ops..range..Range$LT$A$GT$$GT$4next17h0e55921054be0607E>:
   0:	7179                	addi	sp,sp,-48
   2:	f406                	sd	ra,40(sp)
   4:	00450593          	addi	a1,a0,4
   8:	ec2a                	sd	a0,24(sp)
   a:	00000097          	auipc	ra,0x0
   e:	000080e7          	jalr	ra # a <_ZN4core4iter5range101_$LT$impl$u20$core..iter..traits..iterator..Iterator$u20$for$u20$core..ops..range..Range$LT$A$GT$$GT$4next17h0e55921054be0607E+0xa>
  12:	e509                	bnez	a0,1c <_ZN4core4iter5range101_$LT$impl$u20$core..iter..traits..iterator..Iterator$u20$for$u20$core..ops..range..Range$LT$A$GT$$GT$4next17h0e55921054be0607E+0x1c>
  14:	a009                	j	16 <_ZN4core4iter5range101_$LT$impl$u20$core..iter..traits..iterator..Iterator$u20$for$u20$core..ops..range..Range$LT$A$GT$$GT$4next17h0e55921054be0607E+0x16>
  16:	4501                	li	a0,0
  18:	d02a                	sw	a0,32(sp)
  1a:	a805                	j	4a <_ZN4core4iter5range101_$LT$impl$u20$core..iter..traits..iterator..Iterator$u20$for$u20$core..ops..range..Range$LT$A$GT$$GT$4next17h0e55921054be0607E+0x4a>
  1c:	6562                	ld	a0,24(sp)
  1e:	00000097          	auipc	ra,0x0
  22:	000080e7          	jalr	ra # 1e <_ZN4core4iter5range101_$LT$impl$u20$core..iter..traits..iterator..Iterator$u20$for$u20$core..ops..range..Range$LT$A$GT$$GT$4next17h0e55921054be0607E+0x1e>
  26:	4585                	li	a1,1
  28:	e82e                	sd	a1,16(sp)
  2a:	00000097          	auipc	ra,0x0
  2e:	000080e7          	jalr	ra # 2a <_ZN4core4iter5range101_$LT$impl$u20$core..iter..traits..iterator..Iterator$u20$for$u20$core..ops..range..Range$LT$A$GT$$GT$4next17h0e55921054be0607E+0x2a>
  32:	65e2                	ld	a1,24(sp)
  34:	e42a                	sd	a0,8(sp)
  36:	852e                	mv	a0,a1
  38:	65a2                	ld	a1,8(sp)
  3a:	00000097          	auipc	ra,0x0
  3e:	000080e7          	jalr	ra # 3a <_ZN4core4iter5range101_$LT$impl$u20$core..iter..traits..iterator..Iterator$u20$for$u20$core..ops..range..Range$LT$A$GT$$GT$4next17h0e55921054be0607E+0x3a>
  42:	d22a                	sw	a0,36(sp)
  44:	6542                	ld	a0,16(sp)
  46:	d02a                	sw	a0,32(sp)
  48:	a009                	j	4a <_ZN4core4iter5range101_$LT$impl$u20$core..iter..traits..iterator..Iterator$u20$for$u20$core..ops..range..Range$LT$A$GT$$GT$4next17h0e55921054be0607E+0x4a>
  4a:	5502                	lw	a0,32(sp)
  4c:	5592                	lw	a1,36(sp)
  4e:	70a2                	ld	ra,40(sp)
  50:	6145                	addi	sp,sp,48
  52:	8082                	ret

Disassembly of section .text._ZN4core5clone5impls52_$LT$impl$u20$core..clone..Clone$u20$for$u20$i32$GT$5clone17h95bc9168300e557bE:

0000000000000000 <_ZN4core5clone5impls52_$LT$impl$u20$core..clone..Clone$u20$for$u20$i32$GT$5clone17h95bc9168300e557bE>:
   0:	4108                	lw	a0,0(a0)
   2:	8082                	ret

Disassembly of section .text._ZN4core5slice29_$LT$impl$u20$$u5b$T$u5d$$GT$3len17h1f0782c67b061a39E:

0000000000000000 <_ZN4core5slice29_$LT$impl$u20$$u5b$T$u5d$$GT$3len17h1f0782c67b061a39E>:
   0:	1141                	addi	sp,sp,-16
   2:	e02a                	sd	a0,0(sp)
   4:	e42e                	sd	a1,8(sp)
   6:	852e                	mv	a0,a1
   8:	0141                	addi	sp,sp,16
   a:	8082                	ret

Disassembly of section .text._ZN4core5slice29_$LT$impl$u20$$u5b$T$u5d$$GT$4iter17hfb8dd7d2d4905c4fE:

0000000000000000 <_ZN4core5slice29_$LT$impl$u20$$u5b$T$u5d$$GT$4iter17hfb8dd7d2d4905c4fE>:
   0:	1141                	addi	sp,sp,-16
   2:	e406                	sd	ra,8(sp)
   4:	00000097          	auipc	ra,0x0
   8:	000080e7          	jalr	ra # 4 <_ZN4core5slice29_$LT$impl$u20$$u5b$T$u5d$$GT$4iter17hfb8dd7d2d4905c4fE+0x4>
   c:	60a2                	ld	ra,8(sp)
   e:	0141                	addi	sp,sp,16
  10:	8082                	ret

Disassembly of section .text._ZN4core5slice29_$LT$impl$u20$$u5b$T$u5d$$GT$6as_ptr17hd6c4e567226c7d95E:

0000000000000000 <_ZN4core5slice29_$LT$impl$u20$$u5b$T$u5d$$GT$6as_ptr17hd6c4e567226c7d95E>:
   0:	8082                	ret

Disassembly of section .text._ZN4core5slice4iter13Iter$LT$T$GT$14post_inc_start17h07ce45462a1c9fafE:

0000000000000000 <_ZN4core5slice4iter13Iter$LT$T$GT$14post_inc_start17h07ce45462a1c9fafE>:
   0:	7179                	addi	sp,sp,-48
   2:	f406                	sd	ra,40(sp)
   4:	ec2e                	sd	a1,24(sp)
   6:	e82a                	sd	a0,16(sp)
   8:	00000097          	auipc	ra,0x0
   c:	000080e7          	jalr	ra # 8 <_ZN4core5slice4iter13Iter$LT$T$GT$14post_inc_start17h07ce45462a1c9fafE+0x8>
  10:	4581                	li	a1,0
  12:	02b50f63          	beq	a0,a1,50 <_ZN4core5slice4iter13Iter$LT$T$GT$14post_inc_start17h07ce45462a1c9fafE+0x50>
  16:	a009                	j	18 <_ZN4core5slice4iter13Iter$LT$T$GT$14post_inc_start17h07ce45462a1c9fafE+0x18>
  18:	6542                	ld	a0,16(sp)
  1a:	6108                	ld	a0,0(a0)
  1c:	00000097          	auipc	ra,0x0
  20:	000080e7          	jalr	ra # 1c <_ZN4core5slice4iter13Iter$LT$T$GT$14post_inc_start17h07ce45462a1c9fafE+0x1c>
  24:	65c2                	ld	a1,16(sp)
  26:	6190                	ld	a2,0(a1)
  28:	e42a                	sd	a0,8(sp)
  2a:	8532                	mv	a0,a2
  2c:	00000097          	auipc	ra,0x0
  30:	000080e7          	jalr	ra # 2c <_ZN4core5slice4iter13Iter$LT$T$GT$14post_inc_start17h07ce45462a1c9fafE+0x2c>
  34:	65e2                	ld	a1,24(sp)
  36:	00000097          	auipc	ra,0x0
  3a:	000080e7          	jalr	ra # 36 <_ZN4core5slice4iter13Iter$LT$T$GT$14post_inc_start17h07ce45462a1c9fafE+0x36>
  3e:	00000097          	auipc	ra,0x0
  42:	000080e7          	jalr	ra # 3e <_ZN4core5slice4iter13Iter$LT$T$GT$14post_inc_start17h07ce45462a1c9fafE+0x3e>
  46:	65c2                	ld	a1,16(sp)
  48:	e188                	sd	a0,0(a1)
  4a:	6522                	ld	a0,8(sp)
  4c:	f02a                	sd	a0,32(sp)
  4e:	a01d                	j	74 <_ZN4core5slice4iter13Iter$LT$T$GT$14post_inc_start17h07ce45462a1c9fafE+0x74>
  50:	6542                	ld	a0,16(sp)
  52:	6508                	ld	a0,8(a0)
  54:	4581                	li	a1,0
  56:	6662                	ld	a2,24(sp)
  58:	8d91                	sub	a1,a1,a2
  5a:	00000097          	auipc	ra,0x0
  5e:	000080e7          	jalr	ra # 5a <_ZN4core5slice4iter13Iter$LT$T$GT$14post_inc_start17h07ce45462a1c9fafE+0x5a>
  62:	65c2                	ld	a1,16(sp)
  64:	e588                	sd	a0,8(a1)
  66:	6188                	ld	a0,0(a1)
  68:	00000097          	auipc	ra,0x0
  6c:	000080e7          	jalr	ra # 68 <_ZN4core5slice4iter13Iter$LT$T$GT$14post_inc_start17h07ce45462a1c9fafE+0x68>
  70:	f02a                	sd	a0,32(sp)
  72:	a009                	j	74 <_ZN4core5slice4iter13Iter$LT$T$GT$14post_inc_start17h07ce45462a1c9fafE+0x74>
  74:	7502                	ld	a0,32(sp)
  76:	70a2                	ld	ra,40(sp)
  78:	6145                	addi	sp,sp,48
  7a:	8082                	ret

Disassembly of section .text._ZN4core5slice4iter13Iter$LT$T$GT$3new17h5e5bf2c1aa08cd80E:

0000000000000000 <_ZN4core5slice4iter13Iter$LT$T$GT$3new17h5e5bf2c1aa08cd80E>:
   0:	715d                	addi	sp,sp,-80
   2:	e486                	sd	ra,72(sp)
   4:	f42a                	sd	a0,40(sp)
   6:	f02e                	sd	a1,32(sp)
   8:	00000097          	auipc	ra,0x0
   c:	000080e7          	jalr	ra # 8 <_ZN4core5slice4iter13Iter$LT$T$GT$3new17h5e5bf2c1aa08cd80E+0x8>
  10:	85aa                	mv	a1,a0
  12:	ec2e                	sd	a1,24(sp)
  14:	00000097          	auipc	ra,0x0
  18:	000080e7          	jalr	ra # 14 <_ZN4core5slice4iter13Iter$LT$T$GT$3new17h5e5bf2c1aa08cd80E+0x14>
  1c:	e82a                	sd	a0,16(sp)
  1e:	00000097          	auipc	ra,0x0
  22:	000080e7          	jalr	ra # 1e <_ZN4core5slice4iter13Iter$LT$T$GT$3new17h5e5bf2c1aa08cd80E+0x1e>
  26:	75a2                	ld	a1,40(sp)
  28:	e42a                	sd	a0,8(sp)
  2a:	852e                	mv	a0,a1
  2c:	7582                	ld	a1,32(sp)
  2e:	00000097          	auipc	ra,0x0
  32:	000080e7          	jalr	ra # 2e <_ZN4core5slice4iter13Iter$LT$T$GT$3new17h5e5bf2c1aa08cd80E+0x2e>
  36:	4581                	li	a1,0
  38:	6622                	ld	a2,8(sp)
  3a:	e02a                	sd	a0,0(sp)
  3c:	00b60b63          	beq	a2,a1,52 <_ZN4core5slice4iter13Iter$LT$T$GT$3new17h5e5bf2c1aa08cd80E+0x52>
  40:	a009                	j	42 <_ZN4core5slice4iter13Iter$LT$T$GT$3new17h5e5bf2c1aa08cd80E+0x42>
  42:	6562                	ld	a0,24(sp)
  44:	6582                	ld	a1,0(sp)
  46:	00000097          	auipc	ra,0x0
  4a:	000080e7          	jalr	ra # 46 <_ZN4core5slice4iter13Iter$LT$T$GT$3new17h5e5bf2c1aa08cd80E+0x46>
  4e:	e0aa                	sd	a0,64(sp)
  50:	a809                	j	62 <_ZN4core5slice4iter13Iter$LT$T$GT$3new17h5e5bf2c1aa08cd80E+0x62>
  52:	6562                	ld	a0,24(sp)
  54:	6582                	ld	a1,0(sp)
  56:	00000097          	auipc	ra,0x0
  5a:	000080e7          	jalr	ra # 56 <_ZN4core5slice4iter13Iter$LT$T$GT$3new17h5e5bf2c1aa08cd80E+0x56>
  5e:	e0aa                	sd	a0,64(sp)
  60:	a009                	j	62 <_ZN4core5slice4iter13Iter$LT$T$GT$3new17h5e5bf2c1aa08cd80E+0x62>
  62:	6562                	ld	a0,24(sp)
  64:	00000097          	auipc	ra,0x0
  68:	000080e7          	jalr	ra # 64 <_ZN4core5slice4iter13Iter$LT$T$GT$3new17h5e5bf2c1aa08cd80E+0x64>
  6c:	6586                	ld	a1,64(sp)
  6e:	f82a                	sd	a0,48(sp)
  70:	fc2e                	sd	a1,56(sp)
  72:	60a6                	ld	ra,72(sp)
  74:	6161                	addi	sp,sp,80
  76:	8082                	ret

Disassembly of section .text._ZN4core5slice5index77_$LT$impl$u20$core..ops..index..IndexMut$LT$I$GT$$u20$for$u20$$u5b$T$u5d$$GT$9index_mut17hf10571f4d8ff040aE:

0000000000000000 <_ZN4core5slice5index77_$LT$impl$u20$core..ops..index..IndexMut$LT$I$GT$$u20$for$u20$$u5b$T$u5d$$GT$9index_mut17hf10571f4d8ff040aE>:
   0:	1101                	addi	sp,sp,-32
   2:	ec06                	sd	ra,24(sp)
   4:	e82a                	sd	a0,16(sp)
   6:	8532                	mv	a0,a2
   8:	6642                	ld	a2,16(sp)
   a:	e42e                	sd	a1,8(sp)
   c:	85b2                	mv	a1,a2
   e:	6622                	ld	a2,8(sp)
  10:	00000097          	auipc	ra,0x0
  14:	000080e7          	jalr	ra # 10 <_ZN4core5slice5index77_$LT$impl$u20$core..ops..index..IndexMut$LT$I$GT$$u20$for$u20$$u5b$T$u5d$$GT$9index_mut17hf10571f4d8ff040aE+0x10>
  18:	60e2                	ld	ra,24(sp)
  1a:	6105                	addi	sp,sp,32
  1c:	8082                	ret

Disassembly of section .text._ZN4core5slice5index77_$LT$impl$u20$core..ops..index..IndexMut$LT$I$GT$$u20$for$u20$$u5b$T$u5d$$GT$9index_mut17hfff88c5a43a38da4E:

0000000000000000 <_ZN4core5slice5index77_$LT$impl$u20$core..ops..index..IndexMut$LT$I$GT$$u20$for$u20$$u5b$T$u5d$$GT$9index_mut17hfff88c5a43a38da4E>:
   0:	1141                	addi	sp,sp,-16
   2:	e406                	sd	ra,8(sp)
   4:	00000097          	auipc	ra,0x0
   8:	000080e7          	jalr	ra # 4 <_ZN4core5slice5index77_$LT$impl$u20$core..ops..index..IndexMut$LT$I$GT$$u20$for$u20$$u5b$T$u5d$$GT$9index_mut17hfff88c5a43a38da4E+0x4>
   c:	60a2                	ld	ra,8(sp)
   e:	0141                	addi	sp,sp,16
  10:	8082                	ret

Disassembly of section .text._ZN4core6option15Option$LT$T$GT$3map17hb245302b35b50634E:

0000000000000000 <_ZN4core6option15Option$LT$T$GT$3map17hb245302b35b50634E>:
   0:	1101                	addi	sp,sp,-32
   2:	ec06                	sd	ra,24(sp)
   4:	862e                	mv	a2,a1
   6:	86aa                	mv	a3,a0
   8:	c02a                	sw	a0,0(sp)
   a:	c22e                	sw	a1,4(sp)
   c:	4585                	li	a1,1
   e:	00b10ba3          	sb	a1,23(sp)
  12:	1502                	slli	a0,a0,0x20
  14:	9101                	srli	a0,a0,0x20
  16:	4581                	li	a1,0
  18:	00b51763          	bne	a0,a1,26 <_ZN4core6option15Option$LT$T$GT$3map17hb245302b35b50634E+0x26>
  1c:	a009                	j	1e <_ZN4core6option15Option$LT$T$GT$3map17hb245302b35b50634E+0x1e>
  1e:	00110537          	lui	a0,0x110
  22:	c62a                	sw	a0,12(sp)
  24:	a831                	j	40 <_ZN4core6option15Option$LT$T$GT$3map17hb245302b35b50634E+0x40>
  26:	4512                	lw	a0,4(sp)
  28:	4581                	li	a1,0
  2a:	00b10ba3          	sb	a1,23(sp)
  2e:	c82a                	sw	a0,16(sp)
  30:	00000097          	auipc	ra,0x0
  34:	000080e7          	jalr	ra # 30 <_ZN4core6option15Option$LT$T$GT$3map17hb245302b35b50634E+0x30>
  38:	1502                	slli	a0,a0,0x20
  3a:	9101                	srli	a0,a0,0x20
  3c:	c62a                	sw	a0,12(sp)
  3e:	a009                	j	40 <_ZN4core6option15Option$LT$T$GT$3map17hb245302b35b50634E+0x40>
  40:	4532                	lw	a0,12(sp)
  42:	60e2                	ld	ra,24(sp)
  44:	6105                	addi	sp,sp,32
  46:	8082                	ret

Disassembly of section .text._ZN4core6option15Option$LT$T$GT$5ok_or17h6cc6080637db9991E:

0000000000000000 <_ZN4core6option15Option$LT$T$GT$5ok_or17h6cc6080637db9991E>:
   0:	1101                	addi	sp,sp,-32
   2:	e42a                	sd	a0,8(sp)
   4:	4585                	li	a1,1
   6:	00b10fa3          	sb	a1,31(sp)
   a:	4581                	li	a1,0
   c:	00b51863          	bne	a0,a1,1c <_ZN4core6option15Option$LT$T$GT$5ok_or17h6cc6080637db9991E+0x1c>
  10:	a009                	j	12 <_ZN4core6option15Option$LT$T$GT$5ok_or17h6cc6080637db9991E+0x12>
  12:	4501                	li	a0,0
  14:	00a10fa3          	sb	a0,31(sp)
  18:	e82a                	sd	a0,16(sp)
  1a:	a021                	j	22 <_ZN4core6option15Option$LT$T$GT$5ok_or17h6cc6080637db9991E+0x22>
  1c:	6522                	ld	a0,8(sp)
  1e:	e82a                	sd	a0,16(sp)
  20:	a009                	j	22 <_ZN4core6option15Option$LT$T$GT$5ok_or17h6cc6080637db9991E+0x22>
  22:	6542                	ld	a0,16(sp)
  24:	6105                	addi	sp,sp,32
  26:	8082                	ret

Disassembly of section .text._ZN50_$LT$$RF$mut$u20$W$u20$as$u20$core..fmt..Write$GT$10write_char17h03f8fd123d125f6eE:

0000000000000000 <_ZN50_$LT$$RF$mut$u20$W$u20$as$u20$core..fmt..Write$GT$10write_char17h03f8fd123d125f6eE>:
   0:	1141                	addi	sp,sp,-16
   2:	e406                	sd	ra,8(sp)
   4:	862e                	mv	a2,a1
   6:	6108                	ld	a0,0(a0)
   8:	e032                	sd	a2,0(sp)
   a:	00000097          	auipc	ra,0x0
   e:	000080e7          	jalr	ra # a <_ZN50_$LT$$RF$mut$u20$W$u20$as$u20$core..fmt..Write$GT$10write_char17h03f8fd123d125f6eE+0xa>
  12:	60a2                	ld	ra,8(sp)
  14:	0141                	addi	sp,sp,16
  16:	8082                	ret

Disassembly of section .text._ZN50_$LT$$RF$mut$u20$W$u20$as$u20$core..fmt..Write$GT$10write_char17h90a3128abd0c241bE:

0000000000000000 <_ZN50_$LT$$RF$mut$u20$W$u20$as$u20$core..fmt..Write$GT$10write_char17h90a3128abd0c241bE>:
   0:	1141                	addi	sp,sp,-16
   2:	e406                	sd	ra,8(sp)
   4:	862e                	mv	a2,a1
   6:	6108                	ld	a0,0(a0)
   8:	e032                	sd	a2,0(sp)
   a:	00000097          	auipc	ra,0x0
   e:	000080e7          	jalr	ra # a <_ZN50_$LT$$RF$mut$u20$W$u20$as$u20$core..fmt..Write$GT$10write_char17h90a3128abd0c241bE+0xa>
  12:	60a2                	ld	ra,8(sp)
  14:	0141                	addi	sp,sp,16
  16:	8082                	ret

Disassembly of section .text._ZN50_$LT$$RF$mut$u20$W$u20$as$u20$core..fmt..Write$GT$10write_char17hc2a8a11d47f35888E:

0000000000000000 <_ZN50_$LT$$RF$mut$u20$W$u20$as$u20$core..fmt..Write$GT$10write_char17hc2a8a11d47f35888E>:
   0:	1141                	addi	sp,sp,-16
   2:	e406                	sd	ra,8(sp)
   4:	862e                	mv	a2,a1
   6:	6108                	ld	a0,0(a0)
   8:	e032                	sd	a2,0(sp)
   a:	00000097          	auipc	ra,0x0
   e:	000080e7          	jalr	ra # a <_ZN50_$LT$$RF$mut$u20$W$u20$as$u20$core..fmt..Write$GT$10write_char17hc2a8a11d47f35888E+0xa>
  12:	60a2                	ld	ra,8(sp)
  14:	0141                	addi	sp,sp,16
  16:	8082                	ret

Disassembly of section .text._ZN50_$LT$$RF$mut$u20$W$u20$as$u20$core..fmt..Write$GT$10write_char17hc3feefa5ef7b514fE:

0000000000000000 <_ZN50_$LT$$RF$mut$u20$W$u20$as$u20$core..fmt..Write$GT$10write_char17hc3feefa5ef7b514fE>:
   0:	1141                	addi	sp,sp,-16
   2:	e406                	sd	ra,8(sp)
   4:	862e                	mv	a2,a1
   6:	6108                	ld	a0,0(a0)
   8:	e032                	sd	a2,0(sp)
   a:	00000097          	auipc	ra,0x0
   e:	000080e7          	jalr	ra # a <_ZN50_$LT$$RF$mut$u20$W$u20$as$u20$core..fmt..Write$GT$10write_char17hc3feefa5ef7b514fE+0xa>
  12:	60a2                	ld	ra,8(sp)
  14:	0141                	addi	sp,sp,16
  16:	8082                	ret

Disassembly of section .text._ZN50_$LT$$RF$mut$u20$W$u20$as$u20$core..fmt..Write$GT$10write_char17hfbbdb628f51c7336E:

0000000000000000 <_ZN50_$LT$$RF$mut$u20$W$u20$as$u20$core..fmt..Write$GT$10write_char17hfbbdb628f51c7336E>:
   0:	1141                	addi	sp,sp,-16
   2:	e406                	sd	ra,8(sp)
   4:	862e                	mv	a2,a1
   6:	6108                	ld	a0,0(a0)
   8:	e032                	sd	a2,0(sp)
   a:	00000097          	auipc	ra,0x0
   e:	000080e7          	jalr	ra # a <_ZN50_$LT$$RF$mut$u20$W$u20$as$u20$core..fmt..Write$GT$10write_char17hfbbdb628f51c7336E+0xa>
  12:	60a2                	ld	ra,8(sp)
  14:	0141                	addi	sp,sp,16
  16:	8082                	ret

Disassembly of section .text._ZN50_$LT$$RF$mut$u20$W$u20$as$u20$core..fmt..Write$GT$9write_fmt17h084aac68e6735941E:

0000000000000000 <_ZN50_$LT$$RF$mut$u20$W$u20$as$u20$core..fmt..Write$GT$9write_fmt17h084aac68e6735941E>:
   0:	7139                	addi	sp,sp,-64
   2:	fc06                	sd	ra,56(sp)
   4:	6108                	ld	a0,0(a0)
   6:	7590                	ld	a2,40(a1)
   8:	f832                	sd	a2,48(sp)
   a:	7190                	ld	a2,32(a1)
   c:	f432                	sd	a2,40(sp)
   e:	6d90                	ld	a2,24(a1)
  10:	f032                	sd	a2,32(sp)
  12:	6990                	ld	a2,16(a1)
  14:	ec32                	sd	a2,24(sp)
  16:	6590                	ld	a2,8(a1)
  18:	e832                	sd	a2,16(sp)
  1a:	618c                	ld	a1,0(a1)
  1c:	e42e                	sd	a1,8(sp)
  1e:	002c                	addi	a1,sp,8
  20:	00000097          	auipc	ra,0x0
  24:	000080e7          	jalr	ra # 20 <_ZN50_$LT$$RF$mut$u20$W$u20$as$u20$core..fmt..Write$GT$9write_fmt17h084aac68e6735941E+0x20>
  28:	70e2                	ld	ra,56(sp)
  2a:	6121                	addi	sp,sp,64
  2c:	8082                	ret

Disassembly of section .text._ZN50_$LT$$RF$mut$u20$W$u20$as$u20$core..fmt..Write$GT$9write_fmt17h26e04e7590a7b555E:

0000000000000000 <_ZN50_$LT$$RF$mut$u20$W$u20$as$u20$core..fmt..Write$GT$9write_fmt17h26e04e7590a7b555E>:
   0:	7139                	addi	sp,sp,-64
   2:	fc06                	sd	ra,56(sp)
   4:	6108                	ld	a0,0(a0)
   6:	7590                	ld	a2,40(a1)
   8:	f832                	sd	a2,48(sp)
   a:	7190                	ld	a2,32(a1)
   c:	f432                	sd	a2,40(sp)
   e:	6d90                	ld	a2,24(a1)
  10:	f032                	sd	a2,32(sp)
  12:	6990                	ld	a2,16(a1)
  14:	ec32                	sd	a2,24(sp)
  16:	6590                	ld	a2,8(a1)
  18:	e832                	sd	a2,16(sp)
  1a:	618c                	ld	a1,0(a1)
  1c:	e42e                	sd	a1,8(sp)
  1e:	002c                	addi	a1,sp,8
  20:	00000097          	auipc	ra,0x0
  24:	000080e7          	jalr	ra # 20 <_ZN50_$LT$$RF$mut$u20$W$u20$as$u20$core..fmt..Write$GT$9write_fmt17h26e04e7590a7b555E+0x20>
  28:	70e2                	ld	ra,56(sp)
  2a:	6121                	addi	sp,sp,64
  2c:	8082                	ret

Disassembly of section .text._ZN50_$LT$$RF$mut$u20$W$u20$as$u20$core..fmt..Write$GT$9write_fmt17h79d1e2c6fc04e557E:

0000000000000000 <_ZN50_$LT$$RF$mut$u20$W$u20$as$u20$core..fmt..Write$GT$9write_fmt17h79d1e2c6fc04e557E>:
   0:	7139                	addi	sp,sp,-64
   2:	fc06                	sd	ra,56(sp)
   4:	6108                	ld	a0,0(a0)
   6:	7590                	ld	a2,40(a1)
   8:	f832                	sd	a2,48(sp)
   a:	7190                	ld	a2,32(a1)
   c:	f432                	sd	a2,40(sp)
   e:	6d90                	ld	a2,24(a1)
  10:	f032                	sd	a2,32(sp)
  12:	6990                	ld	a2,16(a1)
  14:	ec32                	sd	a2,24(sp)
  16:	6590                	ld	a2,8(a1)
  18:	e832                	sd	a2,16(sp)
  1a:	618c                	ld	a1,0(a1)
  1c:	e42e                	sd	a1,8(sp)
  1e:	002c                	addi	a1,sp,8
  20:	00000097          	auipc	ra,0x0
  24:	000080e7          	jalr	ra # 20 <_ZN50_$LT$$RF$mut$u20$W$u20$as$u20$core..fmt..Write$GT$9write_fmt17h79d1e2c6fc04e557E+0x20>
  28:	70e2                	ld	ra,56(sp)
  2a:	6121                	addi	sp,sp,64
  2c:	8082                	ret

Disassembly of section .text._ZN50_$LT$$RF$mut$u20$W$u20$as$u20$core..fmt..Write$GT$9write_fmt17h7fa6cc1438bc0cd0E:

0000000000000000 <_ZN50_$LT$$RF$mut$u20$W$u20$as$u20$core..fmt..Write$GT$9write_fmt17h7fa6cc1438bc0cd0E>:
   0:	7139                	addi	sp,sp,-64
   2:	fc06                	sd	ra,56(sp)
   4:	6108                	ld	a0,0(a0)
   6:	7590                	ld	a2,40(a1)
   8:	f832                	sd	a2,48(sp)
   a:	7190                	ld	a2,32(a1)
   c:	f432                	sd	a2,40(sp)
   e:	6d90                	ld	a2,24(a1)
  10:	f032                	sd	a2,32(sp)
  12:	6990                	ld	a2,16(a1)
  14:	ec32                	sd	a2,24(sp)
  16:	6590                	ld	a2,8(a1)
  18:	e832                	sd	a2,16(sp)
  1a:	618c                	ld	a1,0(a1)
  1c:	e42e                	sd	a1,8(sp)
  1e:	002c                	addi	a1,sp,8
  20:	00000097          	auipc	ra,0x0
  24:	000080e7          	jalr	ra # 20 <_ZN50_$LT$$RF$mut$u20$W$u20$as$u20$core..fmt..Write$GT$9write_fmt17h7fa6cc1438bc0cd0E+0x20>
  28:	70e2                	ld	ra,56(sp)
  2a:	6121                	addi	sp,sp,64
  2c:	8082                	ret

Disassembly of section .text._ZN50_$LT$$RF$mut$u20$W$u20$as$u20$core..fmt..Write$GT$9write_fmt17hf15ff2da81f43e1aE:

0000000000000000 <_ZN50_$LT$$RF$mut$u20$W$u20$as$u20$core..fmt..Write$GT$9write_fmt17hf15ff2da81f43e1aE>:
   0:	7139                	addi	sp,sp,-64
   2:	fc06                	sd	ra,56(sp)
   4:	6108                	ld	a0,0(a0)
   6:	7590                	ld	a2,40(a1)
   8:	f832                	sd	a2,48(sp)
   a:	7190                	ld	a2,32(a1)
   c:	f432                	sd	a2,40(sp)
   e:	6d90                	ld	a2,24(a1)
  10:	f032                	sd	a2,32(sp)
  12:	6990                	ld	a2,16(a1)
  14:	ec32                	sd	a2,24(sp)
  16:	6590                	ld	a2,8(a1)
  18:	e832                	sd	a2,16(sp)
  1a:	618c                	ld	a1,0(a1)
  1c:	e42e                	sd	a1,8(sp)
  1e:	002c                	addi	a1,sp,8
  20:	00000097          	auipc	ra,0x0
  24:	000080e7          	jalr	ra # 20 <_ZN50_$LT$$RF$mut$u20$W$u20$as$u20$core..fmt..Write$GT$9write_fmt17hf15ff2da81f43e1aE+0x20>
  28:	70e2                	ld	ra,56(sp)
  2a:	6121                	addi	sp,sp,64
  2c:	8082                	ret

Disassembly of section .text._ZN50_$LT$$RF$mut$u20$W$u20$as$u20$core..fmt..Write$GT$9write_str17h46e1f1cc7509d35aE:

0000000000000000 <_ZN50_$LT$$RF$mut$u20$W$u20$as$u20$core..fmt..Write$GT$9write_str17h46e1f1cc7509d35aE>:
   0:	1141                	addi	sp,sp,-16
   2:	e406                	sd	ra,8(sp)
   4:	6108                	ld	a0,0(a0)
   6:	00000097          	auipc	ra,0x0
   a:	000080e7          	jalr	ra # 6 <_ZN50_$LT$$RF$mut$u20$W$u20$as$u20$core..fmt..Write$GT$9write_str17h46e1f1cc7509d35aE+0x6>
   e:	60a2                	ld	ra,8(sp)
  10:	0141                	addi	sp,sp,16
  12:	8082                	ret

Disassembly of section .text._ZN50_$LT$$RF$mut$u20$W$u20$as$u20$core..fmt..Write$GT$9write_str17h7d6dc6487ec078feE:

0000000000000000 <_ZN50_$LT$$RF$mut$u20$W$u20$as$u20$core..fmt..Write$GT$9write_str17h7d6dc6487ec078feE>:
   0:	1141                	addi	sp,sp,-16
   2:	e406                	sd	ra,8(sp)
   4:	6108                	ld	a0,0(a0)
   6:	00000097          	auipc	ra,0x0
   a:	000080e7          	jalr	ra # 6 <_ZN50_$LT$$RF$mut$u20$W$u20$as$u20$core..fmt..Write$GT$9write_str17h7d6dc6487ec078feE+0x6>
   e:	60a2                	ld	ra,8(sp)
  10:	0141                	addi	sp,sp,16
  12:	8082                	ret

Disassembly of section .text._ZN50_$LT$$RF$mut$u20$W$u20$as$u20$core..fmt..Write$GT$9write_str17h9d94d703d7673659E:

0000000000000000 <_ZN50_$LT$$RF$mut$u20$W$u20$as$u20$core..fmt..Write$GT$9write_str17h9d94d703d7673659E>:
   0:	1141                	addi	sp,sp,-16
   2:	e406                	sd	ra,8(sp)
   4:	6108                	ld	a0,0(a0)
   6:	00000097          	auipc	ra,0x0
   a:	000080e7          	jalr	ra # 6 <_ZN50_$LT$$RF$mut$u20$W$u20$as$u20$core..fmt..Write$GT$9write_str17h9d94d703d7673659E+0x6>
   e:	60a2                	ld	ra,8(sp)
  10:	0141                	addi	sp,sp,16
  12:	8082                	ret

Disassembly of section .text._ZN50_$LT$$RF$mut$u20$W$u20$as$u20$core..fmt..Write$GT$9write_str17hc99cd8b31b01b822E:

0000000000000000 <_ZN50_$LT$$RF$mut$u20$W$u20$as$u20$core..fmt..Write$GT$9write_str17hc99cd8b31b01b822E>:
   0:	1141                	addi	sp,sp,-16
   2:	e406                	sd	ra,8(sp)
   4:	6108                	ld	a0,0(a0)
   6:	00000097          	auipc	ra,0x0
   a:	000080e7          	jalr	ra # 6 <_ZN50_$LT$$RF$mut$u20$W$u20$as$u20$core..fmt..Write$GT$9write_str17hc99cd8b31b01b822E+0x6>
   e:	60a2                	ld	ra,8(sp)
  10:	0141                	addi	sp,sp,16
  12:	8082                	ret

Disassembly of section .text._ZN50_$LT$$RF$mut$u20$W$u20$as$u20$core..fmt..Write$GT$9write_str17hf492ac2efdd4ef2dE:

0000000000000000 <_ZN50_$LT$$RF$mut$u20$W$u20$as$u20$core..fmt..Write$GT$9write_str17hf492ac2efdd4ef2dE>:
   0:	1141                	addi	sp,sp,-16
   2:	e406                	sd	ra,8(sp)
   4:	6108                	ld	a0,0(a0)
   6:	00000097          	auipc	ra,0x0
   a:	000080e7          	jalr	ra # 6 <_ZN50_$LT$$RF$mut$u20$W$u20$as$u20$core..fmt..Write$GT$9write_str17hf492ac2efdd4ef2dE+0x6>
   e:	60a2                	ld	ra,8(sp)
  10:	0141                	addi	sp,sp,16
  12:	8082                	ret

Disassembly of section .text._ZN50_$LT$T$u20$as$u20$core..convert..From$LT$T$GT$$GT$4from17h9201dc672112c2a6E:

0000000000000000 <_ZN50_$LT$T$u20$as$u20$core..convert..From$LT$T$GT$$GT$4from17h9201dc672112c2a6E>:
   0:	8082                	ret

Disassembly of section .text._ZN63_$LT$I$u20$as$u20$core..iter..traits..collect..IntoIterator$GT$9into_iter17h0f4869994a91f83bE:

0000000000000000 <_ZN63_$LT$I$u20$as$u20$core..iter..traits..collect..IntoIterator$GT$9into_iter17h0f4869994a91f83bE>:
   0:	862e                	mv	a2,a1
   2:	86aa                	mv	a3,a0
   4:	8082                	ret

Disassembly of section .text._ZN63_$LT$I$u20$as$u20$core..iter..traits..collect..IntoIterator$GT$9into_iter17h117a1887a51e185aE:

0000000000000000 <_ZN63_$LT$I$u20$as$u20$core..iter..traits..collect..IntoIterator$GT$9into_iter17h117a1887a51e185aE>:
   0:	8082                	ret

Disassembly of section .text._ZN69_$LT$core..option..Option$LT$T$GT$$u20$as$u20$core..ops..try..Try$GT$10from_error17h9d77fdd99fd547e8E:

0000000000000000 <_ZN69_$LT$core..option..Option$LT$T$GT$$u20$as$u20$core..ops..try..Try$GT$10from_error17h9d77fdd99fd547e8E>:
   0:	1141                	addi	sp,sp,-16
   2:	4501                	li	a0,0
   4:	c42a                	sw	a0,8(sp)
   6:	45b2                	lw	a1,12(sp)
   8:	0141                	addi	sp,sp,16
   a:	8082                	ret

Disassembly of section .text._ZN69_$LT$core..option..Option$LT$T$GT$$u20$as$u20$core..ops..try..Try$GT$11into_result17habd757ebf9db451bE:

0000000000000000 <_ZN69_$LT$core..option..Option$LT$T$GT$$u20$as$u20$core..ops..try..Try$GT$11into_result17habd757ebf9db451bE>:
   0:	1141                	addi	sp,sp,-16
   2:	e406                	sd	ra,8(sp)
   4:	00000097          	auipc	ra,0x0
   8:	000080e7          	jalr	ra # 4 <_ZN69_$LT$core..option..Option$LT$T$GT$$u20$as$u20$core..ops..try..Try$GT$11into_result17habd757ebf9db451bE+0x4>
   c:	60a2                	ld	ra,8(sp)
   e:	0141                	addi	sp,sp,16
  10:	8082                	ret

Disassembly of section .text._ZN81_$LT$core..str..iter..Chars$u20$as$u20$core..iter..traits..iterator..Iterator$GT$4next17h3c3c9bf87d2f1576E:

0000000000000000 <_ZN81_$LT$core..str..iter..Chars$u20$as$u20$core..iter..traits..iterator..Iterator$GT$4next17h3c3c9bf87d2f1576E>:
   0:	1141                	addi	sp,sp,-16
   2:	e406                	sd	ra,8(sp)
   4:	00000097          	auipc	ra,0x0
   8:	000080e7          	jalr	ra # 4 <_ZN81_$LT$core..str..iter..Chars$u20$as$u20$core..iter..traits..iterator..Iterator$GT$4next17h3c3c9bf87d2f1576E+0x4>
   c:	00000097          	auipc	ra,0x0
  10:	000080e7          	jalr	ra # c <_ZN81_$LT$core..str..iter..Chars$u20$as$u20$core..iter..traits..iterator..Iterator$GT$4next17h3c3c9bf87d2f1576E+0xc>
  14:	1502                	slli	a0,a0,0x20
  16:	9101                	srli	a0,a0,0x20
  18:	60a2                	ld	ra,8(sp)
  1a:	0141                	addi	sp,sp,16
  1c:	8082                	ret

Disassembly of section .text._ZN81_$LT$core..str..iter..Chars$u20$as$u20$core..iter..traits..iterator..Iterator$GT$4next28_$u7b$$u7b$closure$u7d$$u7d$17h9df08781dd5ffb05E:

0000000000000000 <_ZN81_$LT$core..str..iter..Chars$u20$as$u20$core..iter..traits..iterator..Iterator$GT$4next28_$u7b$$u7b$closure$u7d$$u7d$17h9df08781dd5ffb05E>:
   0:	1141                	addi	sp,sp,-16
   2:	e406                	sd	ra,8(sp)
   4:	85aa                	mv	a1,a0
   6:	e02e                	sd	a1,0(sp)
   8:	00000097          	auipc	ra,0x0
   c:	000080e7          	jalr	ra # 8 <_ZN81_$LT$core..str..iter..Chars$u20$as$u20$core..iter..traits..iterator..Iterator$GT$4next28_$u7b$$u7b$closure$u7d$$u7d$17h9df08781dd5ffb05E+0x8>
  10:	1502                	slli	a0,a0,0x20
  12:	9101                	srli	a0,a0,0x20
  14:	60a2                	ld	ra,8(sp)
  16:	0141                	addi	sp,sp,16
  18:	8082                	ret

Disassembly of section .text._ZN91_$LT$core..slice..iter..Iter$LT$T$GT$$u20$as$u20$core..iter..traits..iterator..Iterator$GT$4next17h023612bb33cf7b8fE:

0000000000000000 <_ZN91_$LT$core..slice..iter..Iter$LT$T$GT$$u20$as$u20$core..iter..traits..iterator..Iterator$GT$4next17h023612bb33cf7b8fE>:
   0:	1101                	addi	sp,sp,-32
   2:	ec06                	sd	ra,24(sp)
   4:	610c                	ld	a1,0(a0)
   6:	e42a                	sd	a0,8(sp)
   8:	852e                	mv	a0,a1
   a:	00000097          	auipc	ra,0x0
   e:	000080e7          	jalr	ra # a <_ZN91_$LT$core..slice..iter..Iter$LT$T$GT$$u20$as$u20$core..iter..traits..iterator..Iterator$GT$4next17h023612bb33cf7b8fE+0xa>
  12:	00000097          	auipc	ra,0x0
  16:	000080e7          	jalr	ra # 12 <_ZN91_$LT$core..slice..iter..Iter$LT$T$GT$$u20$as$u20$core..iter..traits..iterator..Iterator$GT$4next17h023612bb33cf7b8fE+0x12>
  1a:	e02a                	sd	a0,0(sp)
  1c:	00000097          	auipc	ra,0x0
  20:	000080e7          	jalr	ra # 1c <_ZN91_$LT$core..slice..iter..Iter$LT$T$GT$$u20$as$u20$core..iter..traits..iterator..Iterator$GT$4next17h023612bb33cf7b8fE+0x1c>
  24:	4581                	li	a1,0
  26:	00b50a63          	beq	a0,a1,3a <_ZN91_$LT$core..slice..iter..Iter$LT$T$GT$$u20$as$u20$core..iter..traits..iterator..Iterator$GT$4next17h023612bb33cf7b8fE+0x3a>
  2a:	a009                	j	2c <_ZN91_$LT$core..slice..iter..Iter$LT$T$GT$$u20$as$u20$core..iter..traits..iterator..Iterator$GT$4next17h023612bb33cf7b8fE+0x2c>
  2c:	6522                	ld	a0,8(sp)
  2e:	6508                	ld	a0,8(a0)
  30:	00000097          	auipc	ra,0x0
  34:	000080e7          	jalr	ra # 30 <_ZN91_$LT$core..slice..iter..Iter$LT$T$GT$$u20$as$u20$core..iter..traits..iterator..Iterator$GT$4next17h023612bb33cf7b8fE+0x30>
  38:	a009                	j	3a <_ZN91_$LT$core..slice..iter..Iter$LT$T$GT$$u20$as$u20$core..iter..traits..iterator..Iterator$GT$4next17h023612bb33cf7b8fE+0x3a>
  3a:	6522                	ld	a0,8(sp)
  3c:	6108                	ld	a0,0(a0)
  3e:	00000097          	auipc	ra,0x0
  42:	000080e7          	jalr	ra # 3e <_ZN91_$LT$core..slice..iter..Iter$LT$T$GT$$u20$as$u20$core..iter..traits..iterator..Iterator$GT$4next17h023612bb33cf7b8fE+0x3e>
  46:	65a2                	ld	a1,8(sp)
  48:	6590                	ld	a2,8(a1)
  4a:	00c50b63          	beq	a0,a2,60 <_ZN91_$LT$core..slice..iter..Iter$LT$T$GT$$u20$as$u20$core..iter..traits..iterator..Iterator$GT$4next17h023612bb33cf7b8fE+0x60>
  4e:	a009                	j	50 <_ZN91_$LT$core..slice..iter..Iter$LT$T$GT$$u20$as$u20$core..iter..traits..iterator..Iterator$GT$4next17h023612bb33cf7b8fE+0x50>
  50:	4585                	li	a1,1
  52:	6522                	ld	a0,8(sp)
  54:	00000097          	auipc	ra,0x0
  58:	000080e7          	jalr	ra # 54 <_ZN91_$LT$core..slice..iter..Iter$LT$T$GT$$u20$as$u20$core..iter..traits..iterator..Iterator$GT$4next17h023612bb33cf7b8fE+0x54>
  5c:	e82a                	sd	a0,16(sp)
  5e:	a021                	j	66 <_ZN91_$LT$core..slice..iter..Iter$LT$T$GT$$u20$as$u20$core..iter..traits..iterator..Iterator$GT$4next17h023612bb33cf7b8fE+0x66>
  60:	4501                	li	a0,0
  62:	e82a                	sd	a0,16(sp)
  64:	a009                	j	66 <_ZN91_$LT$core..slice..iter..Iter$LT$T$GT$$u20$as$u20$core..iter..traits..iterator..Iterator$GT$4next17h023612bb33cf7b8fE+0x66>
  66:	6542                	ld	a0,16(sp)
  68:	60e2                	ld	ra,24(sp)
  6a:	6105                	addi	sp,sp,32
  6c:	8082                	ret

Disassembly of section .text._ZN97_$LT$core..ops..range..RangeFull$u20$as$u20$core..slice..index..SliceIndex$LT$$u5b$T$u5d$$GT$$GT$9index_mut17he7eccd50c5e62c2aE:

0000000000000000 <_ZN97_$LT$core..ops..range..RangeFull$u20$as$u20$core..slice..index..SliceIndex$LT$$u5b$T$u5d$$GT$$GT$9index_mut17he7eccd50c5e62c2aE>:
   0:	8082                	ret

Disassembly of section .text.rust_main:

0000000000000000 <rust_main>:
   0:	1141                	addi	sp,sp,-16
   2:	e406                	sd	ra,8(sp)
   4:	00000097          	auipc	ra,0x0
   8:	000080e7          	jalr	ra # 4 <rust_main+0x4>

000000000000000c <.LBB111_1>:
   c:	00000517          	auipc	a0,0x0
  10:	00050513          	mv	a0,a0

0000000000000014 <.LBB111_2>:
  14:	00000617          	auipc	a2,0x0
  18:	00060613          	mv	a2,a2
  1c:	45c9                	li	a1,18
  1e:	00000097          	auipc	ra,0x0
  22:	000080e7          	jalr	ra # 1e <.LBB111_2+0xa>
	...

Disassembly of section .text._ZN4main3fib17hfb0d1fd1713c09abE:

0000000000000000 <_ZN4main3fib17hfb0d1fd1713c09abE>:
   0:	7139                	addi	sp,sp,-64
   2:	fc06                	sd	ra,56(sp)
   4:	4505                	li	a0,1
   6:	cc2a                	sw	a0,24(sp)
   8:	ce2a                	sw	a0,28(sp)
   a:	4515                	li	a0,5
   c:	1506                	slli	a0,a0,0x21
   e:	f02a                	sd	a0,32(sp)
  10:	4501                	li	a0,0
  12:	45a9                	li	a1,10
  14:	00000097          	auipc	ra,0x0
  18:	000080e7          	jalr	ra # 14 <_ZN4main3fib17hfb0d1fd1713c09abE+0x14>
  1c:	d42a                	sw	a0,40(sp)
  1e:	d62e                	sw	a1,44(sp)
  20:	a009                	j	22 <_ZN4main3fib17hfb0d1fd1713c09abE+0x22>
  22:	1028                	addi	a0,sp,40
  24:	00000097          	auipc	ra,0x0
  28:	000080e7          	jalr	ra # 24 <_ZN4main3fib17hfb0d1fd1713c09abE+0x24>
  2c:	d82a                	sw	a0,48(sp)
  2e:	da2e                	sw	a1,52(sp)
  30:	5542                	lw	a0,48(sp)
  32:	4581                	li	a1,0
  34:	00b51663          	bne	a0,a1,40 <_ZN4main3fib17hfb0d1fd1713c09abE+0x40>
  38:	a009                	j	3a <_ZN4main3fib17hfb0d1fd1713c09abE+0x3a>
  3a:	70e2                	ld	ra,56(sp)
  3c:	6121                	addi	sp,sp,64
  3e:	8082                	ret
  40:	4572                	lw	a0,28(sp)
  42:	00000097          	auipc	ra,0x0
  46:	000080e7          	jalr	ra # 42 <_ZN4main3fib17hfb0d1fd1713c09abE+0x42>
  4a:	4572                	lw	a0,28(sp)
  4c:	02051593          	slli	a1,a0,0x20
  50:	9181                	srli	a1,a1,0x20
  52:	4662                	lw	a2,24(sp)
  54:	00c506b3          	add	a3,a0,a2
  58:	9d31                	addw	a0,a0,a2
  5a:	e82e                	sd	a1,16(sp)
  5c:	e436                	sd	a3,8(sp)
  5e:	00d51863          	bne	a0,a3,6e <.LBB112_6>
  62:	a009                	j	64 <_ZN4main3fib17hfb0d1fd1713c09abE+0x64>
  64:	6522                	ld	a0,8(sp)
  66:	ce2a                	sw	a0,28(sp)
  68:	65c2                	ld	a1,16(sp)
  6a:	cc2e                	sw	a1,24(sp)
  6c:	bf5d                	j	22 <_ZN4main3fib17hfb0d1fd1713c09abE+0x22>

000000000000006e <.LBB112_6>:
  6e:	00000517          	auipc	a0,0x0
  72:	00050513          	mv	a0,a0

0000000000000076 <.LBB112_7>:
  76:	00000617          	auipc	a2,0x0
  7a:	00060613          	mv	a2,a2
  7e:	45f1                	li	a1,28
  80:	00000097          	auipc	ra,0x0
  84:	000080e7          	jalr	ra # 80 <.LBB112_7+0xa>
	...

Disassembly of section .text._ZN4main4test17hb706e43d441cd80cE:

0000000000000000 <_ZN4main4test17hb706e43d441cd80cE>:
   0:	7175                	addi	sp,sp,-144
   2:	e506                	sd	ra,136(sp)
   4:	85aa                	mv	a1,a0
   6:	da2a                	sw	a0,52(sp)
   8:	1848                	addi	a0,sp,52
   a:	e12a                	sd	a0,128(sp)

000000000000000c <.LBB113_1>:
   c:	00000617          	auipc	a2,0x0
  10:	00060613          	mv	a2,a2
  14:	f42e                	sd	a1,40(sp)
  16:	85b2                	mv	a1,a2
  18:	00000097          	auipc	ra,0x0
  1c:	000080e7          	jalr	ra # 18 <.LBB113_1+0xc>
  20:	f8aa                	sd	a0,112(sp)
  22:	fcae                	sd	a1,120(sp)

0000000000000024 <.LBB113_2>:
  24:	00000597          	auipc	a1,0x0
  28:	00058593          	mv	a1,a1
  2c:	0088                	addi	a0,sp,64
  2e:	1894                	addi	a3,sp,112
  30:	4605                	li	a2,1
  32:	f02a                	sd	a0,32(sp)
  34:	ec32                	sd	a2,24(sp)
  36:	6762                	ld	a4,24(sp)
  38:	00000097          	auipc	ra,0x0
  3c:	000080e7          	jalr	ra # 38 <.LBB113_2+0x14>
  40:	1828                	addi	a0,sp,56
  42:	e82a                	sd	a0,16(sp)
  44:	7582                	ld	a1,32(sp)
  46:	00000097          	auipc	ra,0x0
  4a:	000080e7          	jalr	ra # 46 <.LBB113_2+0x22>

000000000000004e <.LBB113_3>:
  4e:	00000597          	auipc	a1,0x0
  52:	00058593          	mv	a1,a1
  56:	6642                	ld	a2,16(sp)
  58:	e42a                	sd	a0,8(sp)
  5a:	8532                	mv	a0,a2
  5c:	6662                	ld	a2,24(sp)
  5e:	00000097          	auipc	ra,0x0
  62:	000080e7          	jalr	ra # 5e <.LBB113_3+0x10>
  66:	60aa                	ld	ra,136(sp)
  68:	6149                	addi	sp,sp,144
  6a:	8082                	ret

Disassembly of section .text.rust_begin_unwind:

0000000000000000 <rust_begin_unwind>:
   0:	df010113          	addi	sp,sp,-528
   4:	20113423          	sd	ra,520(sp)
   8:	e92a                	sd	a0,144(sp)
   a:	00000097          	auipc	ra,0x0
   e:	000080e7          	jalr	ra # a <rust_begin_unwind+0xa>
  12:	ed2a                	sd	a0,152(sp)
  14:	4581                	li	a1,0
  16:	02b51a63          	bne	a0,a1,4a <.LBB114_9+0x26>
  1a:	a009                	j	1c <.LBB114_8>

000000000000001c <.LBB114_8>:
  1c:	00000597          	auipc	a1,0x0
  20:	00058593          	mv	a1,a1

0000000000000024 <.LBB114_9>:
  24:	00000697          	auipc	a3,0x0
  28:	00068693          	mv	a3,a3
  2c:	0208                	addi	a0,sp,256
  2e:	4605                	li	a2,1
  30:	4701                	li	a4,0
  32:	e52a                	sd	a0,136(sp)
  34:	00000097          	auipc	ra,0x0
  38:	000080e7          	jalr	ra # 34 <.LBB114_9+0x10>
  3c:	19a8                	addi	a0,sp,248
  3e:	65aa                	ld	a1,136(sp)
  40:	00000097          	auipc	ra,0x0
  44:	000080e7          	jalr	ra # 40 <.LBB114_9+0x1c>
  48:	a099                	j	8e <.LBB114_11+0x28>
  4a:	656a                	ld	a0,152(sp)
  4c:	f12a                	sd	a0,160(sp)
  4e:	1108                	addi	a0,sp,160
  50:	f9aa                	sd	a0,240(sp)

0000000000000052 <.LBB114_10>:
  52:	00000597          	auipc	a1,0x0
  56:	00058593          	mv	a1,a1
  5a:	00000097          	auipc	ra,0x0
  5e:	000080e7          	jalr	ra # 5a <.LBB114_10+0x8>
  62:	f1aa                	sd	a0,224(sp)
  64:	f5ae                	sd	a1,232(sp)

0000000000000066 <.LBB114_11>:
  66:	00000597          	auipc	a1,0x0
  6a:	00058593          	mv	a1,a1
  6e:	1908                	addi	a0,sp,176
  70:	4609                	li	a2,2
  72:	1194                	addi	a3,sp,224
  74:	4705                	li	a4,1
  76:	e12a                	sd	a0,128(sp)
  78:	00000097          	auipc	ra,0x0
  7c:	000080e7          	jalr	ra # 78 <.LBB114_11+0x12>
  80:	1128                	addi	a0,sp,168
  82:	658a                	ld	a1,128(sp)
  84:	00000097          	auipc	ra,0x0
  88:	000080e7          	jalr	ra # 84 <.LBB114_11+0x1e>
  8c:	a009                	j	8e <.LBB114_11+0x28>
  8e:	654a                	ld	a0,144(sp)
  90:	00000097          	auipc	ra,0x0
  94:	000080e7          	jalr	ra # 90 <.LBB114_11+0x2a>
  98:	fa2a                	sd	a0,304(sp)
  9a:	4581                	li	a1,0
  9c:	04b51863          	bne	a0,a1,ec <.LBB114_14+0x1a>
  a0:	a009                	j	a2 <.LBB114_12>

00000000000000a2 <.LBB114_12>:
  a2:	00000597          	auipc	a1,0x0
  a6:	00058593          	mv	a1,a1

00000000000000aa <.LBB114_13>:
  aa:	00000697          	auipc	a3,0x0
  ae:	00068693          	mv	a3,a3
  b2:	0ba8                	addi	a0,sp,472
  b4:	4605                	li	a2,1
  b6:	4701                	li	a4,0
  b8:	fcaa                	sd	a0,120(sp)
  ba:	f8b2                	sd	a2,112(sp)
  bc:	00000097          	auipc	ra,0x0
  c0:	000080e7          	jalr	ra # bc <.LBB114_13+0x12>
  c4:	0b88                	addi	a0,sp,464
  c6:	f4aa                	sd	a0,104(sp)
  c8:	75e6                	ld	a1,120(sp)
  ca:	00000097          	auipc	ra,0x0
  ce:	000080e7          	jalr	ra # ca <.LBB114_13+0x20>

00000000000000d2 <.LBB114_14>:
  d2:	00000597          	auipc	a1,0x0
  d6:	00058593          	mv	a1,a1
  da:	7626                	ld	a2,104(sp)
  dc:	f0aa                	sd	a0,96(sp)
  de:	8532                	mv	a0,a2
  e0:	7646                	ld	a2,112(sp)
  e2:	00000097          	auipc	ra,0x0
  e6:	000080e7          	jalr	ra # e2 <.LBB114_14+0x10>
  ea:	a8e1                	j	1c2 <.LBB114_18+0x1a>
  ec:	7552                	ld	a0,304(sp)
  ee:	ecaa                	sd	a0,88(sp)
  f0:	00000097          	auipc	ra,0x0
  f4:	000080e7          	jalr	ra # f0 <.LBB114_14+0x1e>
  f8:	ff2a                	sd	a0,440(sp)
  fa:	e3ae                	sd	a1,448(sp)
  fc:	6566                	ld	a0,88(sp)
  fe:	00000097          	auipc	ra,0x0
 102:	000080e7          	jalr	ra # fe <.LBB114_14+0x2c>
 106:	1ca12423          	sw	a0,456(sp)
 10a:	6566                	ld	a0,88(sp)
 10c:	00000097          	auipc	ra,0x0
 110:	000080e7          	jalr	ra # 10c <.LBB114_14+0x3a>
 114:	1ca12623          	sw	a0,460(sp)
 118:	1b28                	addi	a0,sp,440
 11a:	f32a                	sd	a0,416(sp)
 11c:	03ac                	addi	a1,sp,456
 11e:	f72e                	sd	a1,424(sp)
 120:	03f0                	addi	a2,sp,460
 122:	fb32                	sd	a2,432(sp)

0000000000000124 <.LBB114_15>:
 124:	00000697          	auipc	a3,0x0
 128:	00068693          	mv	a3,a3
 12c:	e8ae                	sd	a1,80(sp)
 12e:	85b6                	mv	a1,a3
 130:	e4b2                	sd	a2,72(sp)
 132:	00000097          	auipc	ra,0x0
 136:	000080e7          	jalr	ra # 132 <.LBB114_15+0xe>

000000000000013a <.LBB114_16>:
 13a:	00000617          	auipc	a2,0x0
 13e:	00060613          	mv	a2,a2
 142:	66c6                	ld	a3,80(sp)
 144:	e0aa                	sd	a0,64(sp)
 146:	8536                	mv	a0,a3
 148:	fc2e                	sd	a1,56(sp)
 14a:	85b2                	mv	a1,a2
 14c:	f832                	sd	a2,48(sp)
 14e:	00000097          	auipc	ra,0x0
 152:	000080e7          	jalr	ra # 14e <.LBB114_16+0x14>
 156:	6626                	ld	a2,72(sp)
 158:	f42a                	sd	a0,40(sp)
 15a:	8532                	mv	a0,a2
 15c:	76c2                	ld	a3,48(sp)
 15e:	f02e                	sd	a1,32(sp)
 160:	85b6                	mv	a1,a3
 162:	00000097          	auipc	ra,0x0
 166:	000080e7          	jalr	ra # 162 <.LBB114_16+0x28>
 16a:	6606                	ld	a2,64(sp)
 16c:	fab2                	sd	a2,368(sp)
 16e:	76e2                	ld	a3,56(sp)
 170:	feb6                	sd	a3,376(sp)
 172:	7722                	ld	a4,40(sp)
 174:	e33a                	sd	a4,384(sp)
 176:	7782                	ld	a5,32(sp)
 178:	e73e                	sd	a5,392(sp)
 17a:	eb2a                	sd	a0,400(sp)
 17c:	ef2e                	sd	a1,408(sp)

000000000000017e <.LBB114_17>:
 17e:	00000597          	auipc	a1,0x0
 182:	00058593          	mv	a1,a1
 186:	0288                	addi	a0,sp,320
 188:	1a94                	addi	a3,sp,368
 18a:	480d                	li	a6,3
 18c:	ec2a                	sd	a0,24(sp)
 18e:	8642                	mv	a2,a6
 190:	8742                	mv	a4,a6
 192:	00000097          	auipc	ra,0x0
 196:	000080e7          	jalr	ra # 192 <.LBB114_17+0x14>
 19a:	1a28                	addi	a0,sp,312
 19c:	e82a                	sd	a0,16(sp)
 19e:	65e2                	ld	a1,24(sp)
 1a0:	00000097          	auipc	ra,0x0
 1a4:	000080e7          	jalr	ra # 1a0 <.LBB114_17+0x22>

00000000000001a8 <.LBB114_18>:
 1a8:	00000597          	auipc	a1,0x0
 1ac:	00058593          	mv	a1,a1
 1b0:	4605                	li	a2,1
 1b2:	66c2                	ld	a3,16(sp)
 1b4:	e42a                	sd	a0,8(sp)
 1b6:	8536                	mv	a0,a3
 1b8:	00000097          	auipc	ra,0x0
 1bc:	000080e7          	jalr	ra # 1b8 <.LBB114_18+0x10>
 1c0:	a009                	j	1c2 <.LBB114_18+0x1a>
 1c2:	a009                	j	1c4 <.LBB114_18+0x1c>
 1c4:	a001                	j	1c4 <.LBB114_18+0x1c>

Disassembly of section .text.memcpy:

0000000000000000 <memcpy>:
   0:	7139                	addi	sp,sp,-64
   2:	fc06                	sd	ra,56(sp)
   4:	4681                	li	a3,0
   6:	f836                	sd	a3,48(sp)
   8:	f432                	sd	a2,40(sp)
   a:	f02e                	sd	a1,32(sp)
   c:	ec2a                	sd	a0,24(sp)
   e:	a009                	j	10 <memcpy+0x10>
  10:	7542                	ld	a0,48(sp)
  12:	75a2                	ld	a1,40(sp)
  14:	00b56763          	bltu	a0,a1,22 <memcpy+0x22>
  18:	a009                	j	1a <memcpy+0x1a>
  1a:	6562                	ld	a0,24(sp)
  1c:	70e2                	ld	ra,56(sp)
  1e:	6121                	addi	sp,sp,64
  20:	8082                	ret
  22:	75c2                	ld	a1,48(sp)
  24:	7502                	ld	a0,32(sp)
  26:	00000097          	auipc	ra,0x0
  2a:	000080e7          	jalr	ra # 26 <memcpy+0x26>
  2e:	00050503          	lb	a0,0(a0) # 6e <.LBB115_7+0xa>
  32:	75c2                	ld	a1,48(sp)
  34:	6662                	ld	a2,24(sp)
  36:	e82a                	sd	a0,16(sp)
  38:	8532                	mv	a0,a2
  3a:	00000097          	auipc	ra,0x0
  3e:	000080e7          	jalr	ra # 3a <memcpy+0x3a>
  42:	65c2                	ld	a1,16(sp)
  44:	00b50023          	sb	a1,0(a0)
  48:	7542                	ld	a0,48(sp)
  4a:	00150593          	addi	a1,a0,1
  4e:	e42e                	sd	a1,8(sp)
  50:	00a5e663          	bltu	a1,a0,5c <.LBB115_6>
  54:	a009                	j	56 <memcpy+0x56>
  56:	6522                	ld	a0,8(sp)
  58:	f82a                	sd	a0,48(sp)
  5a:	bf5d                	j	10 <memcpy+0x10>

000000000000005c <.LBB115_6>:
  5c:	00000517          	auipc	a0,0x0
  60:	00050513          	mv	a0,a0

0000000000000064 <.LBB115_7>:
  64:	00000617          	auipc	a2,0x0
  68:	00060613          	mv	a2,a2
  6c:	45f1                	li	a1,28
  6e:	00000097          	auipc	ra,0x0
  72:	000080e7          	jalr	ra # 6e <.LBB115_7+0xa>
	...

Disassembly of section .text.memmove:

0000000000000000 <memmove>:
   0:	715d                	addi	sp,sp,-80
   2:	e486                	sd	ra,72(sp)
   4:	f832                	sd	a2,48(sp)
   6:	f42e                	sd	a1,40(sp)
   8:	f02a                	sd	a0,32(sp)
   a:	00a5e663          	bltu	a1,a0,16 <memmove+0x16>
   e:	a009                	j	10 <memmove+0x10>
  10:	4501                	li	a0,0
  12:	e0aa                	sd	a0,64(sp)
  14:	a0b1                	j	60 <memmove+0x60>
  16:	7542                	ld	a0,48(sp)
  18:	fc2a                	sd	a0,56(sp)
  1a:	a009                	j	1c <memmove+0x1c>
  1c:	7562                	ld	a0,56(sp)
  1e:	4581                	li	a1,0
  20:	08b50263          	beq	a0,a1,a4 <memmove+0xa4>
  24:	a009                	j	26 <memmove+0x26>
  26:	7562                	ld	a0,56(sp)
  28:	fff50593          	addi	a1,a0,-1 # 5b <memmove+0x5b>
  2c:	ec2e                	sd	a1,24(sp)
  2e:	06b56f63          	bltu	a0,a1,ac <.LBB116_12>
  32:	a009                	j	34 <memmove+0x34>
  34:	6562                	ld	a0,24(sp)
  36:	fc2a                	sd	a0,56(sp)
  38:	7522                	ld	a0,40(sp)
  3a:	65e2                	ld	a1,24(sp)
  3c:	00000097          	auipc	ra,0x0
  40:	000080e7          	jalr	ra # 3c <memmove+0x3c>
  44:	00050503          	lb	a0,0(a0)
  48:	75e2                	ld	a1,56(sp)
  4a:	7602                	ld	a2,32(sp)
  4c:	e82a                	sd	a0,16(sp)
  4e:	8532                	mv	a0,a2
  50:	00000097          	auipc	ra,0x0
  54:	000080e7          	jalr	ra # 50 <memmove+0x50>
  58:	65c2                	ld	a1,16(sp)
  5a:	00b50023          	sb	a1,0(a0)
  5e:	bf7d                	j	1c <memmove+0x1c>
  60:	6506                	ld	a0,64(sp)
  62:	75c2                	ld	a1,48(sp)
  64:	04b57063          	bgeu	a0,a1,a4 <memmove+0xa4>
  68:	a009                	j	6a <memmove+0x6a>
  6a:	6586                	ld	a1,64(sp)
  6c:	7522                	ld	a0,40(sp)
  6e:	00000097          	auipc	ra,0x0
  72:	000080e7          	jalr	ra # 6e <memmove+0x6e>
  76:	00050503          	lb	a0,0(a0)
  7a:	6586                	ld	a1,64(sp)
  7c:	7602                	ld	a2,32(sp)
  7e:	e42a                	sd	a0,8(sp)
  80:	8532                	mv	a0,a2
  82:	00000097          	auipc	ra,0x0
  86:	000080e7          	jalr	ra # 82 <memmove+0x82>
  8a:	65a2                	ld	a1,8(sp)
  8c:	00b50023          	sb	a1,0(a0)
  90:	6506                	ld	a0,64(sp)
  92:	00150593          	addi	a1,a0,1
  96:	e02e                	sd	a1,0(sp)
  98:	02a5e963          	bltu	a1,a0,ca <.LBB116_14>
  9c:	a009                	j	9e <memmove+0x9e>
  9e:	6502                	ld	a0,0(sp)
  a0:	e0aa                	sd	a0,64(sp)
  a2:	bf7d                	j	60 <memmove+0x60>
  a4:	7502                	ld	a0,32(sp)
  a6:	60a6                	ld	ra,72(sp)
  a8:	6161                	addi	sp,sp,80
  aa:	8082                	ret

00000000000000ac <.LBB116_12>:
  ac:	00000517          	auipc	a0,0x0
  b0:	00050513          	mv	a0,a0

00000000000000b4 <.LBB116_13>:
  b4:	00000617          	auipc	a2,0x0
  b8:	00060613          	mv	a2,a2
  bc:	02100593          	li	a1,33
  c0:	00000097          	auipc	ra,0x0
  c4:	000080e7          	jalr	ra # c0 <.LBB116_13+0xc>
	...

00000000000000ca <.LBB116_14>:
  ca:	00000517          	auipc	a0,0x0
  ce:	00050513          	mv	a0,a0

00000000000000d2 <.LBB116_15>:
  d2:	00000617          	auipc	a2,0x0
  d6:	00060613          	mv	a2,a2
  da:	45f1                	li	a1,28
  dc:	00000097          	auipc	ra,0x0
  e0:	000080e7          	jalr	ra # dc <.LBB116_15+0xa>
	...

Disassembly of section .text.memset:

0000000000000000 <memset>:
   0:	7179                	addi	sp,sp,-48
   2:	f406                	sd	ra,40(sp)
   4:	4681                	li	a3,0
   6:	f036                	sd	a3,32(sp)
   8:	ec32                	sd	a2,24(sp)
   a:	e82a                	sd	a0,16(sp)
   c:	e42e                	sd	a1,8(sp)
   e:	a009                	j	10 <memset+0x10>
  10:	7502                	ld	a0,32(sp)
  12:	65e2                	ld	a1,24(sp)
  14:	00b56763          	bltu	a0,a1,22 <memset+0x22>
  18:	a009                	j	1a <memset+0x1a>
  1a:	6542                	ld	a0,16(sp)
  1c:	70a2                	ld	ra,40(sp)
  1e:	6145                	addi	sp,sp,48
  20:	8082                	ret
  22:	7582                	ld	a1,32(sp)
  24:	6542                	ld	a0,16(sp)
  26:	00000097          	auipc	ra,0x0
  2a:	000080e7          	jalr	ra # 26 <memset+0x26>
  2e:	65a2                	ld	a1,8(sp)
  30:	00b50023          	sb	a1,0(a0) # ca <.LBB116_14>
  34:	7502                	ld	a0,32(sp)
  36:	00150613          	addi	a2,a0,1
  3a:	e032                	sd	a2,0(sp)
  3c:	00a66663          	bltu	a2,a0,48 <.LBB117_6>
  40:	a009                	j	42 <memset+0x42>
  42:	6502                	ld	a0,0(sp)
  44:	f02a                	sd	a0,32(sp)
  46:	b7e9                	j	10 <memset+0x10>

0000000000000048 <.LBB117_6>:
  48:	00000517          	auipc	a0,0x0
  4c:	00050513          	mv	a0,a0

0000000000000050 <.LBB117_7>:
  50:	00000617          	auipc	a2,0x0
  54:	00060613          	mv	a2,a2
  58:	45f1                	li	a1,28
  5a:	00000097          	auipc	ra,0x0
  5e:	000080e7          	jalr	ra # 5a <.LBB117_7+0xa>
	...

Disassembly of section .text.memcmp:

0000000000000000 <memcmp>:
   0:	715d                	addi	sp,sp,-80
   2:	e486                	sd	ra,72(sp)
   4:	4681                	li	a3,0
   6:	e0b6                	sd	a3,64(sp)
   8:	f832                	sd	a2,48(sp)
   a:	f42e                	sd	a1,40(sp)
   c:	f02a                	sd	a0,32(sp)
   e:	a009                	j	10 <memcmp+0x10>
  10:	6506                	ld	a0,64(sp)
  12:	75c2                	ld	a1,48(sp)
  14:	00b56663          	bltu	a0,a1,20 <memcmp+0x20>
  18:	a009                	j	1a <memcmp+0x1a>
  1a:	4501                	li	a0,0
  1c:	de2a                	sw	a0,60(sp)
  1e:	a8a9                	j	78 <memcmp+0x78>
  20:	6586                	ld	a1,64(sp)
  22:	7502                	ld	a0,32(sp)
  24:	00000097          	auipc	ra,0x0
  28:	000080e7          	jalr	ra # 24 <memcmp+0x24>
  2c:	00054503          	lbu	a0,0(a0) # 48 <memcmp+0x48>
  30:	6586                	ld	a1,64(sp)
  32:	7622                	ld	a2,40(sp)
  34:	ec2a                	sd	a0,24(sp)
  36:	8532                	mv	a0,a2
  38:	00000097          	auipc	ra,0x0
  3c:	000080e7          	jalr	ra # 38 <memcmp+0x38>
  40:	00054503          	lbu	a0,0(a0)
  44:	65e2                	ld	a1,24(sp)
  46:	e82a                	sd	a0,16(sp)
  48:	00a59a63          	bne	a1,a0,5c <memcmp+0x5c>
  4c:	a009                	j	4e <memcmp+0x4e>
  4e:	6506                	ld	a0,64(sp)
  50:	00150593          	addi	a1,a0,1
  54:	e42e                	sd	a1,8(sp)
  56:	04a5e463          	bltu	a1,a0,9e <.LBB118_13>
  5a:	a821                	j	72 <memcmp+0x72>
  5c:	6562                	ld	a0,24(sp)
  5e:	65c2                	ld	a1,16(sp)
  60:	40b50633          	sub	a2,a0,a1
  64:	4681                	li	a3,0
  66:	e032                	sd	a2,0(sp)
  68:	ee81                	bnez	a3,80 <.LBB118_11>
  6a:	a009                	j	6c <memcmp+0x6c>
  6c:	6502                	ld	a0,0(sp)
  6e:	de2a                	sw	a0,60(sp)
  70:	a021                	j	78 <memcmp+0x78>
  72:	6522                	ld	a0,8(sp)
  74:	e0aa                	sd	a0,64(sp)
  76:	bf69                	j	10 <memcmp+0x10>
  78:	5572                	lw	a0,60(sp)
  7a:	60a6                	ld	ra,72(sp)
  7c:	6161                	addi	sp,sp,80
  7e:	8082                	ret

0000000000000080 <.LBB118_11>:
  80:	00000517          	auipc	a0,0x0
  84:	00050513          	mv	a0,a0

0000000000000088 <.LBB118_12>:
  88:	00000617          	auipc	a2,0x0
  8c:	00060613          	mv	a2,a2
  90:	02100593          	li	a1,33
  94:	00000097          	auipc	ra,0x0
  98:	000080e7          	jalr	ra # 94 <.LBB118_12+0xc>
	...

000000000000009e <.LBB118_13>:
  9e:	00000517          	auipc	a0,0x0
  a2:	00050513          	mv	a0,a0

00000000000000a6 <.LBB118_14>:
  a6:	00000617          	auipc	a2,0x0
  aa:	00060613          	mv	a2,a2
  ae:	45f1                	li	a1,28
  b0:	00000097          	auipc	ra,0x0
  b4:	000080e7          	jalr	ra # b0 <.LBB118_14+0xa>
	...

Disassembly of section .text._ZN71_$LT$main..test..InternalTerminalStruct$u20$as$u20$core..fmt..Write$GT$9write_str17h658f28fd76b003f8E:

0000000000000000 <_ZN71_$LT$main..test..InternalTerminalStruct$u20$as$u20$core..fmt..Write$GT$9write_str17h658f28fd76b003f8E>:
   0:	7179                	addi	sp,sp,-48
   2:	f406                	sd	ra,40(sp)
   4:	852e                	mv	a0,a1
   6:	85b2                	mv	a1,a2
   8:	00000097          	auipc	ra,0x0
   c:	000080e7          	jalr	ra # 8 <_ZN71_$LT$main..test..InternalTerminalStruct$u20$as$u20$core..fmt..Write$GT$9write_str17h658f28fd76b003f8E+0x8>
  10:	00000097          	auipc	ra,0x0
  14:	000080e7          	jalr	ra # 10 <_ZN71_$LT$main..test..InternalTerminalStruct$u20$as$u20$core..fmt..Write$GT$9write_str17h658f28fd76b003f8E+0x10>
  18:	e82a                	sd	a0,16(sp)
  1a:	ec2e                	sd	a1,24(sp)
  1c:	a009                	j	1e <_ZN71_$LT$main..test..InternalTerminalStruct$u20$as$u20$core..fmt..Write$GT$9write_str17h658f28fd76b003f8E+0x1e>
  1e:	0808                	addi	a0,sp,16
  20:	00000097          	auipc	ra,0x0
  24:	000080e7          	jalr	ra # 20 <_ZN71_$LT$main..test..InternalTerminalStruct$u20$as$u20$core..fmt..Write$GT$9write_str17h658f28fd76b003f8E+0x20>
  28:	1502                	slli	a0,a0,0x20
  2a:	9101                	srli	a0,a0,0x20
  2c:	d22a                	sw	a0,36(sp)
  2e:	001105b7          	lui	a1,0x110
  32:	00b51963          	bne	a0,a1,44 <_ZN71_$LT$main..test..InternalTerminalStruct$u20$as$u20$core..fmt..Write$GT$9write_str17h658f28fd76b003f8E+0x44>
  36:	a009                	j	38 <_ZN71_$LT$main..test..InternalTerminalStruct$u20$as$u20$core..fmt..Write$GT$9write_str17h658f28fd76b003f8E+0x38>
  38:	4501                	li	a0,0
  3a:	00a107a3          	sb	a0,15(sp)
  3e:	70a2                	ld	ra,40(sp)
  40:	6145                	addi	sp,sp,48
  42:	8082                	ret
  44:	02410503          	lb	a0,36(sp)
  48:	100005b7          	lui	a1,0x10000
  4c:	00a58023          	sb	a0,0(a1) # 10000000 <.LBB135_45+0xffffcbe>
  50:	b7f9                	j	1e <_ZN71_$LT$main..test..InternalTerminalStruct$u20$as$u20$core..fmt..Write$GT$9write_str17h658f28fd76b003f8E+0x1e>

Disassembly of section .text._ZN72_$LT$main..panic..InternalTerminalStruct$u20$as$u20$core..fmt..Write$GT$9write_str17h3a2375028035007aE:

0000000000000000 <_ZN72_$LT$main..panic..InternalTerminalStruct$u20$as$u20$core..fmt..Write$GT$9write_str17h3a2375028035007aE>:
   0:	7179                	addi	sp,sp,-48
   2:	f406                	sd	ra,40(sp)
   4:	852e                	mv	a0,a1
   6:	85b2                	mv	a1,a2
   8:	00000097          	auipc	ra,0x0
   c:	000080e7          	jalr	ra # 8 <_ZN72_$LT$main..panic..InternalTerminalStruct$u20$as$u20$core..fmt..Write$GT$9write_str17h3a2375028035007aE+0x8>
  10:	00000097          	auipc	ra,0x0
  14:	000080e7          	jalr	ra # 10 <_ZN72_$LT$main..panic..InternalTerminalStruct$u20$as$u20$core..fmt..Write$GT$9write_str17h3a2375028035007aE+0x10>
  18:	e82a                	sd	a0,16(sp)
  1a:	ec2e                	sd	a1,24(sp)
  1c:	a009                	j	1e <_ZN72_$LT$main..panic..InternalTerminalStruct$u20$as$u20$core..fmt..Write$GT$9write_str17h3a2375028035007aE+0x1e>
  1e:	0808                	addi	a0,sp,16
  20:	00000097          	auipc	ra,0x0
  24:	000080e7          	jalr	ra # 20 <_ZN72_$LT$main..panic..InternalTerminalStruct$u20$as$u20$core..fmt..Write$GT$9write_str17h3a2375028035007aE+0x20>
  28:	1502                	slli	a0,a0,0x20
  2a:	9101                	srli	a0,a0,0x20
  2c:	d22a                	sw	a0,36(sp)
  2e:	001105b7          	lui	a1,0x110
  32:	00b51963          	bne	a0,a1,44 <_ZN72_$LT$main..panic..InternalTerminalStruct$u20$as$u20$core..fmt..Write$GT$9write_str17h3a2375028035007aE+0x44>
  36:	a009                	j	38 <_ZN72_$LT$main..panic..InternalTerminalStruct$u20$as$u20$core..fmt..Write$GT$9write_str17h3a2375028035007aE+0x38>
  38:	4501                	li	a0,0
  3a:	00a107a3          	sb	a0,15(sp)
  3e:	70a2                	ld	ra,40(sp)
  40:	6145                	addi	sp,sp,48
  42:	8082                	ret
  44:	02410503          	lb	a0,36(sp)
  48:	100005b7          	lui	a1,0x10000
  4c:	00a58023          	sb	a0,0(a1) # 10000000 <.LBB135_45+0xffffcbe>
  50:	b7f9                	j	1e <_ZN72_$LT$main..panic..InternalTerminalStruct$u20$as$u20$core..fmt..Write$GT$9write_str17h3a2375028035007aE+0x1e>

Disassembly of section .text._ZN72_$LT$main..panic..InternalTerminalStruct$u20$as$u20$core..fmt..Write$GT$9write_str17hceef8a2550918339E:

0000000000000000 <_ZN72_$LT$main..panic..InternalTerminalStruct$u20$as$u20$core..fmt..Write$GT$9write_str17hceef8a2550918339E>:
   0:	7179                	addi	sp,sp,-48
   2:	f406                	sd	ra,40(sp)
   4:	852e                	mv	a0,a1
   6:	85b2                	mv	a1,a2
   8:	00000097          	auipc	ra,0x0
   c:	000080e7          	jalr	ra # 8 <_ZN72_$LT$main..panic..InternalTerminalStruct$u20$as$u20$core..fmt..Write$GT$9write_str17hceef8a2550918339E+0x8>
  10:	00000097          	auipc	ra,0x0
  14:	000080e7          	jalr	ra # 10 <_ZN72_$LT$main..panic..InternalTerminalStruct$u20$as$u20$core..fmt..Write$GT$9write_str17hceef8a2550918339E+0x10>
  18:	e82a                	sd	a0,16(sp)
  1a:	ec2e                	sd	a1,24(sp)
  1c:	a009                	j	1e <_ZN72_$LT$main..panic..InternalTerminalStruct$u20$as$u20$core..fmt..Write$GT$9write_str17hceef8a2550918339E+0x1e>
  1e:	0808                	addi	a0,sp,16
  20:	00000097          	auipc	ra,0x0
  24:	000080e7          	jalr	ra # 20 <_ZN72_$LT$main..panic..InternalTerminalStruct$u20$as$u20$core..fmt..Write$GT$9write_str17hceef8a2550918339E+0x20>
  28:	1502                	slli	a0,a0,0x20
  2a:	9101                	srli	a0,a0,0x20
  2c:	d22a                	sw	a0,36(sp)
  2e:	001105b7          	lui	a1,0x110
  32:	00b51963          	bne	a0,a1,44 <_ZN72_$LT$main..panic..InternalTerminalStruct$u20$as$u20$core..fmt..Write$GT$9write_str17hceef8a2550918339E+0x44>
  36:	a009                	j	38 <_ZN72_$LT$main..panic..InternalTerminalStruct$u20$as$u20$core..fmt..Write$GT$9write_str17hceef8a2550918339E+0x38>
  38:	4501                	li	a0,0
  3a:	00a107a3          	sb	a0,15(sp)
  3e:	70a2                	ld	ra,40(sp)
  40:	6145                	addi	sp,sp,48
  42:	8082                	ret
  44:	02410503          	lb	a0,36(sp)
  48:	100005b7          	lui	a1,0x10000
  4c:	00a58023          	sb	a0,0(a1) # 10000000 <.LBB135_45+0xffffcbe>
  50:	b7f9                	j	1e <_ZN72_$LT$main..panic..InternalTerminalStruct$u20$as$u20$core..fmt..Write$GT$9write_str17hceef8a2550918339E+0x1e>

Disassembly of section .text._ZN72_$LT$main..panic..InternalTerminalStruct$u20$as$u20$core..fmt..Write$GT$9write_str17h0fb862db8b87992cE:

0000000000000000 <_ZN72_$LT$main..panic..InternalTerminalStruct$u20$as$u20$core..fmt..Write$GT$9write_str17h0fb862db8b87992cE>:
   0:	7179                	addi	sp,sp,-48
   2:	f406                	sd	ra,40(sp)
   4:	852e                	mv	a0,a1
   6:	85b2                	mv	a1,a2
   8:	00000097          	auipc	ra,0x0
   c:	000080e7          	jalr	ra # 8 <_ZN72_$LT$main..panic..InternalTerminalStruct$u20$as$u20$core..fmt..Write$GT$9write_str17h0fb862db8b87992cE+0x8>
  10:	00000097          	auipc	ra,0x0
  14:	000080e7          	jalr	ra # 10 <_ZN72_$LT$main..panic..InternalTerminalStruct$u20$as$u20$core..fmt..Write$GT$9write_str17h0fb862db8b87992cE+0x10>
  18:	e82a                	sd	a0,16(sp)
  1a:	ec2e                	sd	a1,24(sp)
  1c:	a009                	j	1e <_ZN72_$LT$main..panic..InternalTerminalStruct$u20$as$u20$core..fmt..Write$GT$9write_str17h0fb862db8b87992cE+0x1e>
  1e:	0808                	addi	a0,sp,16
  20:	00000097          	auipc	ra,0x0
  24:	000080e7          	jalr	ra # 20 <_ZN72_$LT$main..panic..InternalTerminalStruct$u20$as$u20$core..fmt..Write$GT$9write_str17h0fb862db8b87992cE+0x20>
  28:	1502                	slli	a0,a0,0x20
  2a:	9101                	srli	a0,a0,0x20
  2c:	d22a                	sw	a0,36(sp)
  2e:	001105b7          	lui	a1,0x110
  32:	00b51963          	bne	a0,a1,44 <_ZN72_$LT$main..panic..InternalTerminalStruct$u20$as$u20$core..fmt..Write$GT$9write_str17h0fb862db8b87992cE+0x44>
  36:	a009                	j	38 <_ZN72_$LT$main..panic..InternalTerminalStruct$u20$as$u20$core..fmt..Write$GT$9write_str17h0fb862db8b87992cE+0x38>
  38:	4501                	li	a0,0
  3a:	00a107a3          	sb	a0,15(sp)
  3e:	70a2                	ld	ra,40(sp)
  40:	6145                	addi	sp,sp,48
  42:	8082                	ret
  44:	02410503          	lb	a0,36(sp)
  48:	100005b7          	lui	a1,0x10000
  4c:	00a58023          	sb	a0,0(a1) # 10000000 <.LBB135_45+0xffffcbe>
  50:	b7f9                	j	1e <_ZN72_$LT$main..panic..InternalTerminalStruct$u20$as$u20$core..fmt..Write$GT$9write_str17h0fb862db8b87992cE+0x1e>

Disassembly of section .text._ZN72_$LT$main..panic..InternalTerminalStruct$u20$as$u20$core..fmt..Write$GT$9write_str17h317868fcad7f8653E:

0000000000000000 <_ZN72_$LT$main..panic..InternalTerminalStruct$u20$as$u20$core..fmt..Write$GT$9write_str17h317868fcad7f8653E>:
   0:	7179                	addi	sp,sp,-48
   2:	f406                	sd	ra,40(sp)
   4:	852e                	mv	a0,a1
   6:	85b2                	mv	a1,a2
   8:	00000097          	auipc	ra,0x0
   c:	000080e7          	jalr	ra # 8 <_ZN72_$LT$main..panic..InternalTerminalStruct$u20$as$u20$core..fmt..Write$GT$9write_str17h317868fcad7f8653E+0x8>
  10:	00000097          	auipc	ra,0x0
  14:	000080e7          	jalr	ra # 10 <_ZN72_$LT$main..panic..InternalTerminalStruct$u20$as$u20$core..fmt..Write$GT$9write_str17h317868fcad7f8653E+0x10>
  18:	e82a                	sd	a0,16(sp)
  1a:	ec2e                	sd	a1,24(sp)
  1c:	a009                	j	1e <_ZN72_$LT$main..panic..InternalTerminalStruct$u20$as$u20$core..fmt..Write$GT$9write_str17h317868fcad7f8653E+0x1e>
  1e:	0808                	addi	a0,sp,16
  20:	00000097          	auipc	ra,0x0
  24:	000080e7          	jalr	ra # 20 <_ZN72_$LT$main..panic..InternalTerminalStruct$u20$as$u20$core..fmt..Write$GT$9write_str17h317868fcad7f8653E+0x20>
  28:	1502                	slli	a0,a0,0x20
  2a:	9101                	srli	a0,a0,0x20
  2c:	d22a                	sw	a0,36(sp)
  2e:	001105b7          	lui	a1,0x110
  32:	00b51963          	bne	a0,a1,44 <_ZN72_$LT$main..panic..InternalTerminalStruct$u20$as$u20$core..fmt..Write$GT$9write_str17h317868fcad7f8653E+0x44>
  36:	a009                	j	38 <_ZN72_$LT$main..panic..InternalTerminalStruct$u20$as$u20$core..fmt..Write$GT$9write_str17h317868fcad7f8653E+0x38>
  38:	4501                	li	a0,0
  3a:	00a107a3          	sb	a0,15(sp)
  3e:	70a2                	ld	ra,40(sp)
  40:	6145                	addi	sp,sp,48
  42:	8082                	ret
  44:	02410503          	lb	a0,36(sp)
  48:	100005b7          	lui	a1,0x10000
  4c:	00a58023          	sb	a0,0(a1) # 10000000 <.LBB135_45+0xffffcbe>
  50:	b7f9                	j	1e <_ZN72_$LT$main..panic..InternalTerminalStruct$u20$as$u20$core..fmt..Write$GT$9write_str17h317868fcad7f8653E+0x1e>

Disassembly of section .text._ZN4core3ops8function6FnOnce9call_once17h35ae281d4cc49c3aE:

0000000000000000 <_ZN4core3ops8function6FnOnce9call_once17h35ae281d4cc49c3aE>:
   0:	6108                	ld	a0,0(a0)
   2:	a009                	j	4 <_ZN4core3ops8function6FnOnce9call_once17h35ae281d4cc49c3aE+0x4>
   4:	a001                	j	4 <_ZN4core3ops8function6FnOnce9call_once17h35ae281d4cc49c3aE+0x4>

Disassembly of section .text._ZN4core9panicking5panic17h070221acf2d57f95E:

0000000000000000 <_ZN4core9panicking5panic17h070221acf2d57f95E>:
   0:	715d                	addi	sp,sp,-80
   2:	e486                	sd	ra,72(sp)
   4:	fc2a                	sd	a0,56(sp)
   6:	e0ae                	sd	a1,64(sp)
   8:	1828                	addi	a0,sp,56
   a:	e42a                	sd	a0,8(sp)
   c:	4505                	li	a0,1
   e:	e82a                	sd	a0,16(sp)
  10:	4501                	li	a0,0
  12:	ec2a                	sd	a0,24(sp)

0000000000000014 <.LBB125_1>:
  14:	00000597          	auipc	a1,0x0
  18:	00058593          	mv	a1,a1
  1c:	f42e                	sd	a1,40(sp)
  1e:	f82a                	sd	a0,48(sp)
  20:	0028                	addi	a0,sp,8
  22:	85b2                	mv	a1,a2
  24:	00000097          	auipc	ra,0x0
  28:	000080e7          	jalr	ra # 24 <.LBB125_1+0x10>
	...

Disassembly of section .text._ZN4core9panicking18panic_bounds_check17h5dcda81e3137698fE:

0000000000000000 <_ZN4core9panicking18panic_bounds_check17h5dcda81e3137698fE>:
   0:	7159                	addi	sp,sp,-112
   2:	f486                	sd	ra,104(sp)
   4:	e42a                	sd	a0,8(sp)
   6:	e82e                	sd	a1,16(sp)
   8:	0808                	addi	a0,sp,16
   a:	e4aa                	sd	a0,72(sp)

000000000000000c <.LBB126_1>:
   c:	00000517          	auipc	a0,0x0
  10:	00050513          	mv	a0,a0
  14:	e8aa                	sd	a0,80(sp)
  16:	002c                	addi	a1,sp,8
  18:	ecae                	sd	a1,88(sp)
  1a:	f0aa                	sd	a0,96(sp)

000000000000001c <.LBB126_2>:
  1c:	00000517          	auipc	a0,0x0
  20:	00050513          	mv	a0,a0
  24:	ec2a                	sd	a0,24(sp)
  26:	4509                	li	a0,2
  28:	f02a                	sd	a0,32(sp)
  2a:	4581                	li	a1,0
  2c:	f42e                	sd	a1,40(sp)
  2e:	00ac                	addi	a1,sp,72
  30:	fc2e                	sd	a1,56(sp)
  32:	e0aa                	sd	a0,64(sp)
  34:	0828                	addi	a0,sp,24
  36:	85b2                	mv	a1,a2
  38:	00000097          	auipc	ra,0x0
  3c:	000080e7          	jalr	ra # 38 <.LBB126_2+0x1c>
	...

Disassembly of section .text._ZN4core3fmt3num3imp52_$LT$impl$u20$core..fmt..Display$u20$for$u20$u64$GT$3fmt17h22caa4a622631133E:

0000000000000000 <_ZN4core3fmt3num3imp52_$LT$impl$u20$core..fmt..Display$u20$for$u20$u64$GT$3fmt17h22caa4a622631133E>:
   0:	7175                	addi	sp,sp,-144
   2:	e506                	sd	ra,136(sp)
   4:	6108                	ld	a0,0(a0)
   6:	06110613          	addi	a2,sp,97
   a:	00455693          	srli	a3,a0,0x4
   e:	02700713          	li	a4,39
  12:	27000793          	li	a5,624
  16:	ecae                	sd	a1,88(sp)
  18:	e8ba                	sd	a4,80(sp)
  1a:	e4aa                	sd	a0,72(sp)
  1c:	02d7e063          	bltu	a5,a3,3c <_ZN4core3fmt3num3imp52_$LT$impl$u20$core..fmt..Display$u20$for$u20$u64$GT$3fmt17h22caa4a622631133E+0x3c>
  20:	a009                	j	22 <_ZN4core3fmt3num3imp52_$LT$impl$u20$core..fmt..Display$u20$for$u20$u64$GT$3fmt17h22caa4a622631133E+0x22>
  22:	6526                	ld	a0,72(sp)
  24:	65c6                	ld	a1,80(sp)
  26:	06300613          	li	a2,99
  2a:	86aa                	mv	a3,a0
  2c:	872e                	mv	a4,a1
  2e:	e0aa                	sd	a0,64(sp)
  30:	fc2e                	sd	a1,56(sp)
  32:	f836                	sd	a3,48(sp)
  34:	f43a                	sd	a4,40(sp)
  36:	0ca64163          	blt	a2,a0,f8 <.LBB127_8+0x48>
  3a:	a21d                	j	160 <.LBB127_9+0x26>
  3c:	6546                	ld	a0,80(sp)
  3e:	65a6                	ld	a1,72(sp)
  40:	862e                	mv	a2,a1
  42:	001a36b7          	lui	a3,0x1a3
  46:	6e36869b          	addiw	a3,a3,1763
  4a:	06ba                	slli	a3,a3,0xe
  4c:	ac768693          	addi	a3,a3,-1337 # 1a2ac7 <.LBB135_45+0x1a2785>
  50:	06ba                	slli	a3,a3,0xe
  52:	43368693          	addi	a3,a3,1075
  56:	06b6                	slli	a3,a3,0xd
  58:	94b68693          	addi	a3,a3,-1717
  5c:	02d636b3          	mulhu	a3,a2,a3
  60:	82ad                	srli	a3,a3,0xb
  62:	6709                	lui	a4,0x2
  64:	7107071b          	addiw	a4,a4,1808
  68:	02e68733          	mul	a4,a3,a4
  6c:	8e19                	sub	a2,a2,a4
  6e:	6741                	lui	a4,0x10
  70:	ffc7079b          	addiw	a5,a4,-4
  74:	8ff1                	and	a5,a5,a2
  76:	8389                	srli	a5,a5,0x2
  78:	0051f837          	lui	a6,0x51f
  7c:	b858081b          	addiw	a6,a6,-1147
  80:	0836                	slli	a6,a6,0xd
  82:	3d780813          	addi	a6,a6,983 # 51f3d7 <.LBB135_45+0x51f095>
  86:	083a                	slli	a6,a6,0xe
  88:	28f80813          	addi	a6,a6,655
  8c:	0832                	slli	a6,a6,0xc
  8e:	5c380813          	addi	a6,a6,1475
  92:	0307b7b3          	mulhu	a5,a5,a6
  96:	8389                	srli	a5,a5,0x2
  98:	00179813          	slli	a6,a5,0x1
  9c:	06400893          	li	a7,100
  a0:	031787b3          	mul	a5,a5,a7
  a4:	8e1d                	sub	a2,a2,a5
  a6:	0606                	slli	a2,a2,0x1
  a8:	3779                	addiw	a4,a4,-2
  aa:	8e79                	and	a2,a2,a4
  ac:	ffc50713          	addi	a4,a0,-4 # 18 <_ZN4core3fmt3num3imp52_$LT$impl$u20$core..fmt..Display$u20$for$u20$u64$GT$3fmt17h22caa4a622631133E+0x18>

00000000000000b0 <.LBB127_8>:
  b0:	00000797          	auipc	a5,0x0
  b4:	00078793          	mv	a5,a5
  b8:	983e                	add	a6,a6,a5
  ba:	06110893          	addi	a7,sp,97
  be:	00e882b3          	add	t0,a7,a4
  c2:	00084303          	lbu	t1,0(a6)
  c6:	00180803          	lb	a6,1(a6)
  ca:	010280a3          	sb	a6,1(t0)
  ce:	00628023          	sb	t1,0(t0)
  d2:	963e                	add	a2,a2,a5
  d4:	9546                	add	a0,a0,a7
  d6:	00064783          	lbu	a5,0(a2) # a6 <_ZN4core3fmt3num3imp52_$LT$impl$u20$core..fmt..Display$u20$for$u20$u64$GT$3fmt17h22caa4a622631133E+0xa6>
  da:	00160603          	lb	a2,1(a2)
  de:	fec50fa3          	sb	a2,-1(a0)
  e2:	fef50f23          	sb	a5,-2(a0)
  e6:	05f5e537          	lui	a0,0x5f5e
  ea:	0ff5051b          	addiw	a0,a0,255
  ee:	e8ba                	sd	a4,80(sp)
  f0:	e4b6                	sd	a3,72(sp)
  f2:	f4b565e3          	bltu	a0,a1,3c <_ZN4core3fmt3num3imp52_$LT$impl$u20$core..fmt..Display$u20$for$u20$u64$GT$3fmt17h22caa4a622631133E+0x3c>
  f6:	b735                	j	22 <_ZN4core3fmt3num3imp52_$LT$impl$u20$core..fmt..Display$u20$for$u20$u64$GT$3fmt17h22caa4a622631133E+0x22>
  f8:	6506                	ld	a0,64(sp)
  fa:	65c1                	lui	a1,0x10
  fc:	ffc5861b          	addiw	a2,a1,-4
 100:	8e69                	and	a2,a2,a0
 102:	8209                	srli	a2,a2,0x2
 104:	0051f6b7          	lui	a3,0x51f
 108:	b856869b          	addiw	a3,a3,-1147
 10c:	06b6                	slli	a3,a3,0xd
 10e:	3d768693          	addi	a3,a3,983 # 51f3d7 <.LBB135_45+0x51f095>
 112:	06ba                	slli	a3,a3,0xe
 114:	28f68693          	addi	a3,a3,655
 118:	06b2                	slli	a3,a3,0xc
 11a:	5c368693          	addi	a3,a3,1475
 11e:	02d63633          	mulhu	a2,a2,a3
 122:	8209                	srli	a2,a2,0x2
 124:	06400693          	li	a3,100
 128:	02d606b3          	mul	a3,a2,a3
 12c:	8d15                	sub	a0,a0,a3
 12e:	0506                	slli	a0,a0,0x1
 130:	35f9                	addiw	a1,a1,-2
 132:	8d6d                	and	a0,a0,a1
 134:	75e2                	ld	a1,56(sp)
 136:	ffe58693          	addi	a3,a1,-2 # fffe <.LBB135_45+0xfcbc>

000000000000013a <.LBB127_9>:
 13a:	00000717          	auipc	a4,0x0
 13e:	00070713          	mv	a4,a4
 142:	953a                	add	a0,a0,a4
 144:	06110713          	addi	a4,sp,97
 148:	9736                	add	a4,a4,a3
 14a:	00054783          	lbu	a5,0(a0) # 5f5e000 <.LBB135_45+0x5f5dcbe>
 14e:	00150503          	lb	a0,1(a0)
 152:	00a700a3          	sb	a0,1(a4) # 13b <.LBB127_9+0x1>
 156:	00f70023          	sb	a5,0(a4)
 15a:	f832                	sd	a2,48(sp)
 15c:	f436                	sd	a3,40(sp)
 15e:	a009                	j	160 <.LBB127_9+0x26>
 160:	7522                	ld	a0,40(sp)
 162:	75c2                	ld	a1,48(sp)
 164:	4629                	li	a2,10
 166:	f02a                	sd	a0,32(sp)
 168:	ec2e                	sd	a1,24(sp)
 16a:	02c5cb63          	blt	a1,a2,1a0 <.LBB127_10+0x24>
 16e:	a009                	j	170 <.LBB127_9+0x36>
 170:	6562                	ld	a0,24(sp)
 172:	00151593          	slli	a1,a0,0x1
 176:	7602                	ld	a2,32(sp)
 178:	ffe60693          	addi	a3,a2,-2

000000000000017c <.LBB127_10>:
 17c:	00000717          	auipc	a4,0x0
 180:	00070713          	mv	a4,a4
 184:	95ba                	add	a1,a1,a4
 186:	06110713          	addi	a4,sp,97
 18a:	9736                	add	a4,a4,a3
 18c:	0005c783          	lbu	a5,0(a1)
 190:	00158583          	lb	a1,1(a1)
 194:	00b700a3          	sb	a1,1(a4) # 17d <.LBB127_10+0x1>
 198:	00f70023          	sb	a5,0(a4)
 19c:	e836                	sd	a3,16(sp)
 19e:	a831                	j	1ba <.LBB127_10+0x3e>
 1a0:	7502                	ld	a0,32(sp)
 1a2:	fff50593          	addi	a1,a0,-1
 1a6:	06110613          	addi	a2,sp,97
 1aa:	962e                	add	a2,a2,a1
 1ac:	66e2                	ld	a3,24(sp)
 1ae:	03068713          	addi	a4,a3,48
 1b2:	00e60023          	sb	a4,0(a2)
 1b6:	e82e                	sd	a1,16(sp)
 1b8:	a009                	j	1ba <.LBB127_10+0x3e>
 1ba:	6542                	ld	a0,16(sp)
 1bc:	06110593          	addi	a1,sp,97
 1c0:	00a58733          	add	a4,a1,a0
 1c4:	02700593          	li	a1,39
 1c8:	40a587b3          	sub	a5,a1,a0

00000000000001cc <.LBB127_11>:
 1cc:	00000617          	auipc	a2,0x0
 1d0:	00060613          	mv	a2,a2
 1d4:	4585                	li	a1,1
 1d6:	4501                	li	a0,0
 1d8:	66e6                	ld	a3,88(sp)
 1da:	e42a                	sd	a0,8(sp)
 1dc:	8536                	mv	a0,a3
 1de:	66a2                	ld	a3,8(sp)
 1e0:	00000097          	auipc	ra,0x0
 1e4:	000080e7          	jalr	ra # 1e0 <.LBB127_11+0x14>
 1e8:	60aa                	ld	ra,136(sp)
 1ea:	6149                	addi	sp,sp,144
 1ec:	8082                	ret

Disassembly of section .text._ZN4core9panicking9panic_fmt17h58fb395352900abeE:

0000000000000000 <_ZN4core9panicking9panic_fmt17h58fb395352900abeE>:
   0:	7179                	addi	sp,sp,-48
   2:	f406                	sd	ra,40(sp)

0000000000000004 <.LBB128_1>:
   4:	00000617          	auipc	a2,0x0
   8:	00060613          	mv	a2,a2
   c:	e432                	sd	a2,8(sp)

000000000000000e <.LBB128_2>:
   e:	00000617          	auipc	a2,0x0
  12:	00060613          	mv	a2,a2
  16:	e832                	sd	a2,16(sp)
  18:	ec2a                	sd	a0,24(sp)
  1a:	f02e                	sd	a1,32(sp)
  1c:	0028                	addi	a0,sp,8
  1e:	00000097          	auipc	ra,0x0
  22:	000080e7          	jalr	ra # 1e <.LBB128_2+0x10>
	...

Disassembly of section .text._ZN4core3ptr13drop_in_place17h01d0f06accd39497E:

0000000000000000 <_ZN4core3ptr13drop_in_place17h01d0f06accd39497E>:
   0:	8082                	ret

Disassembly of section .text._ZN36_$LT$T$u20$as$u20$core..any..Any$GT$7type_id17h1c4d74729bef22edE:

0000000000000000 <_ZN36_$LT$T$u20$as$u20$core..any..Any$GT$7type_id17h1c4d74729bef22edE>:
   0:	ffc5e537          	lui	a0,0xffc5e
   4:	15d5051b          	addiw	a0,a0,349
   8:	053e                	slli	a0,a0,0xf
   a:	bbd50513          	addi	a0,a0,-1091 # ffffffffffc5dbbd <.LBB135_45+0xffffffffffc5d87b>
   e:	0532                	slli	a0,a0,0xc
  10:	58750513          	addi	a0,a0,1415
  14:	053a                	slli	a0,a0,0xe
  16:	e3950513          	addi	a0,a0,-455
  1a:	8082                	ret

Disassembly of section .text._ZN4core3fmt9Formatter12pad_integral17h7fb7350c4a3a4a93E:

0000000000000000 <_ZN4core3fmt9Formatter12pad_integral17h7fb7350c4a3a4a93E>:
   0:	d9010113          	addi	sp,sp,-624
   4:	26113423          	sd	ra,616(sp)
   8:	882e                	mv	a6,a1
   a:	4881                	li	a7,0
   c:	26f13023          	sd	a5,608(sp)
  10:	24e13c23          	sd	a4,600(sp)
  14:	24d13823          	sd	a3,592(sp)
  18:	24c13423          	sd	a2,584(sp)
  1c:	24a13023          	sd	a0,576(sp)
  20:	05158d63          	beq	a1,a7,7a <_ZN4core3fmt9Formatter12pad_integral17h7fb7350c4a3a4a93E+0x7a>
  24:	a009                	j	26 <_ZN4core3fmt9Formatter12pad_integral17h7fb7350c4a3a4a93E+0x26>
  26:	24013503          	ld	a0,576(sp)
  2a:	03056583          	lwu	a1,48(a0)
  2e:	0015f613          	andi	a2,a1,1
  32:	02b00693          	li	a3,43
  36:	00110737          	lui	a4,0x110
  3a:	4781                	li	a5,0
  3c:	22b13c23          	sd	a1,568(sp)
  40:	22c13823          	sd	a2,560(sp)
  44:	22d13423          	sd	a3,552(sp)
  48:	22e13023          	sd	a4,544(sp)
  4c:	00f60663          	beq	a2,a5,58 <_ZN4core3fmt9Formatter12pad_integral17h7fb7350c4a3a4a93E+0x58>
  50:	22813503          	ld	a0,552(sp)
  54:	22a13023          	sd	a0,544(sp)
  58:	22013503          	ld	a0,544(sp)
  5c:	23013583          	ld	a1,560(sp)
  60:	26013603          	ld	a2,608(sp)
  64:	00c586b3          	add	a3,a1,a2
  68:	23813703          	ld	a4,568(sp)
  6c:	20e13c23          	sd	a4,536(sp)
  70:	20a13823          	sd	a0,528(sp)
  74:	20d13423          	sd	a3,520(sp)
  78:	a015                	j	9c <_ZN4core3fmt9Formatter12pad_integral17h7fb7350c4a3a4a93E+0x9c>
  7a:	26013503          	ld	a0,608(sp)
  7e:	00150593          	addi	a1,a0,1
  82:	24013603          	ld	a2,576(sp)
  86:	03066683          	lwu	a3,48(a2) # 3e <_ZN4core3fmt9Formatter12pad_integral17h7fb7350c4a3a4a93E+0x3e>
  8a:	02d00713          	li	a4,45
  8e:	20d13c23          	sd	a3,536(sp)
  92:	20e13823          	sd	a4,528(sp)
  96:	20b13423          	sd	a1,520(sp)
  9a:	a009                	j	9c <_ZN4core3fmt9Formatter12pad_integral17h7fb7350c4a3a4a93E+0x9c>
  9c:	20813503          	ld	a0,520(sp)
  a0:	21013583          	ld	a1,528(sp)
  a4:	21813603          	ld	a2,536(sp)
  a8:	00467693          	andi	a3,a2,4
  ac:	4701                	li	a4,0
  ae:	87ba                	mv	a5,a4
  b0:	882a                	mv	a6,a0
  b2:	20a13023          	sd	a0,512(sp)
  b6:	ffae                	sd	a1,504(sp)
  b8:	fbb2                	sd	a2,496(sp)
  ba:	f7be                	sd	a5,488(sp)
  bc:	f3c2                	sd	a6,480(sp)
  be:	06e68663          	beq	a3,a4,12a <_ZN4core3fmt9Formatter12pad_integral17h7fb7350c4a3a4a93E+0x12a>
  c2:	a009                	j	c4 <_ZN4core3fmt9Formatter12pad_integral17h7fb7350c4a3a4a93E+0xc4>
  c4:	24813503          	ld	a0,584(sp)
  c8:	24813583          	ld	a1,584(sp)
  cc:	25013603          	ld	a2,592(sp)
  d0:	00c586b3          	add	a3,a1,a2
  d4:	4701                	li	a4,0
  d6:	87ba                	mv	a5,a4
  d8:	882a                	mv	a6,a0
  da:	efaa                	sd	a0,472(sp)
  dc:	ebb6                	sd	a3,464(sp)
  de:	e7be                	sd	a5,456(sp)
  e0:	e3c2                	sd	a6,448(sp)
  e2:	02e60763          	beq	a2,a4,110 <_ZN4core3fmt9Formatter12pad_integral17h7fb7350c4a3a4a93E+0x110>
  e6:	a009                	j	e8 <_ZN4core3fmt9Formatter12pad_integral17h7fb7350c4a3a4a93E+0xe8>
  e8:	651e                	ld	a0,448(sp)
  ea:	65be                	ld	a1,456(sp)
  ec:	00150613          	addi	a2,a0,1
  f0:	00054503          	lbu	a0,0(a0)
  f4:	0c057513          	andi	a0,a0,192
  f8:	f8050513          	addi	a0,a0,-128
  fc:	00153513          	seqz	a0,a0
 100:	952e                	add	a0,a0,a1
 102:	85b2                	mv	a1,a2
 104:	66de                	ld	a3,464(sp)
 106:	e3ae                	sd	a1,448(sp)
 108:	e7aa                	sd	a0,456(sp)
 10a:	fcd61fe3          	bne	a2,a3,e8 <_ZN4core3fmt9Formatter12pad_integral17h7fb7350c4a3a4a93E+0xe8>
 10e:	a009                	j	110 <_ZN4core3fmt9Formatter12pad_integral17h7fb7350c4a3a4a93E+0x110>
 110:	653e                	ld	a0,456(sp)
 112:	20013583          	ld	a1,512(sp)
 116:	25013603          	ld	a2,592(sp)
 11a:	00c586b3          	add	a3,a1,a2
 11e:	40a68533          	sub	a0,a3,a0
 122:	66fe                	ld	a3,472(sp)
 124:	f7b6                	sd	a3,488(sp)
 126:	f3aa                	sd	a0,480(sp)
 128:	a009                	j	12a <_ZN4core3fmt9Formatter12pad_integral17h7fb7350c4a3a4a93E+0x12a>
 12a:	751e                	ld	a0,480(sp)
 12c:	75be                	ld	a1,488(sp)
 12e:	24013603          	ld	a2,576(sp)
 132:	6214                	ld	a3,0(a2)
 134:	4705                	li	a4,1
 136:	ff2a                	sd	a0,440(sp)
 138:	fb2e                	sd	a1,432(sp)
 13a:	04e68363          	beq	a3,a4,180 <_ZN4core3fmt9Formatter12pad_integral17h7fb7350c4a3a4a93E+0x180>
 13e:	a009                	j	140 <_ZN4core3fmt9Formatter12pad_integral17h7fb7350c4a3a4a93E+0x140>
 140:	24013503          	ld	a0,576(sp)
 144:	75fe                	ld	a1,504(sp)
 146:	765a                	ld	a2,432(sp)
 148:	25013683          	ld	a3,592(sp)
 14c:	00000097          	auipc	ra,0x0
 150:	000080e7          	jalr	ra # 14c <_ZN4core3fmt9Formatter12pad_integral17h7fb7350c4a3a4a93E+0x14c>
 154:	4585                	li	a1,1
 156:	f72e                	sd	a1,424(sp)
 158:	38051363          	bnez	a0,4de <_ZN4core3fmt9Formatter12pad_integral17h7fb7350c4a3a4a93E+0x4de>
 15c:	a009                	j	15e <_ZN4core3fmt9Formatter12pad_integral17h7fb7350c4a3a4a93E+0x15e>
 15e:	24013503          	ld	a0,576(sp)
 162:	7108                	ld	a0,32(a0)
 164:	24013583          	ld	a1,576(sp)
 168:	7590                	ld	a2,40(a1)
 16a:	6e10                	ld	a2,24(a2)
 16c:	25813583          	ld	a1,600(sp)
 170:	26013683          	ld	a3,608(sp)
 174:	f332                	sd	a2,416(sp)
 176:	8636                	mv	a2,a3
 178:	771a                	ld	a4,416(sp)
 17a:	9702                	jalr	a4
 17c:	f72a                	sd	a0,424(sp)
 17e:	a685                	j	4de <_ZN4core3fmt9Formatter12pad_integral17h7fb7350c4a3a4a93E+0x4de>
 180:	24013503          	ld	a0,576(sp)
 184:	650c                	ld	a1,8(a0)
 186:	767a                	ld	a2,440(sp)
 188:	ef2e                	sd	a1,408(sp)
 18a:	02b66263          	bltu	a2,a1,1ae <_ZN4core3fmt9Formatter12pad_integral17h7fb7350c4a3a4a93E+0x1ae>
 18e:	a009                	j	190 <_ZN4core3fmt9Formatter12pad_integral17h7fb7350c4a3a4a93E+0x190>
 190:	24013503          	ld	a0,576(sp)
 194:	75fe                	ld	a1,504(sp)
 196:	765a                	ld	a2,432(sp)
 198:	25013683          	ld	a3,592(sp)
 19c:	00000097          	auipc	ra,0x0
 1a0:	000080e7          	jalr	ra # 19c <_ZN4core3fmt9Formatter12pad_integral17h7fb7350c4a3a4a93E+0x19c>
 1a4:	4585                	li	a1,1
 1a6:	f72e                	sd	a1,424(sp)
 1a8:	32051b63          	bnez	a0,4de <_ZN4core3fmt9Formatter12pad_integral17h7fb7350c4a3a4a93E+0x4de>
 1ac:	a801                	j	1bc <_ZN4core3fmt9Formatter12pad_integral17h7fb7350c4a3a4a93E+0x1bc>
 1ae:	755e                	ld	a0,496(sp)
 1b0:	00857593          	andi	a1,a0,8
 1b4:	4601                	li	a2,0
 1b6:	06c58963          	beq	a1,a2,228 <_ZN4core3fmt9Formatter12pad_integral17h7fb7350c4a3a4a93E+0x228>
 1ba:	a015                	j	1de <_ZN4core3fmt9Formatter12pad_integral17h7fb7350c4a3a4a93E+0x1de>
 1bc:	24013503          	ld	a0,576(sp)
 1c0:	7108                	ld	a0,32(a0)
 1c2:	24013583          	ld	a1,576(sp)
 1c6:	7590                	ld	a2,40(a1)
 1c8:	6e10                	ld	a2,24(a2)
 1ca:	25813583          	ld	a1,600(sp)
 1ce:	26013683          	ld	a3,608(sp)
 1d2:	eb32                	sd	a2,400(sp)
 1d4:	8636                	mv	a2,a3
 1d6:	675a                	ld	a4,400(sp)
 1d8:	9702                	jalr	a4
 1da:	f72a                	sd	a0,424(sp)
 1dc:	a609                	j	4de <_ZN4core3fmt9Formatter12pad_integral17h7fb7350c4a3a4a93E+0x4de>
 1de:	24013503          	ld	a0,576(sp)
 1e2:	03450593          	addi	a1,a0,52
 1e6:	03456603          	lwu	a2,52(a0)
 1ea:	03000693          	li	a3,48
 1ee:	d954                	sw	a3,52(a0)
 1f0:	03850693          	addi	a3,a0,56
 1f4:	03854703          	lbu	a4,56(a0)
 1f8:	4785                	li	a5,1
 1fa:	02f50c23          	sb	a5,56(a0)
 1fe:	787e                	ld	a6,504(sp)
 200:	e72e                	sd	a1,392(sp)
 202:	85c2                	mv	a1,a6
 204:	78da                	ld	a7,432(sp)
 206:	e332                	sd	a2,384(sp)
 208:	8646                	mv	a2,a7
 20a:	25013283          	ld	t0,592(sp)
 20e:	feb6                	sd	a3,376(sp)
 210:	8696                	mv	a3,t0
 212:	faba                	sd	a4,368(sp)
 214:	f6be                	sd	a5,360(sp)
 216:	00000097          	auipc	ra,0x0
 21a:	000080e7          	jalr	ra # 216 <_ZN4core3fmt9Formatter12pad_integral17h7fb7350c4a3a4a93E+0x216>
 21e:	75b6                	ld	a1,360(sp)
 220:	f72e                	sd	a1,424(sp)
 222:	2a051e63          	bnez	a0,4de <_ZN4core3fmt9Formatter12pad_integral17h7fb7350c4a3a4a93E+0x4de>
 226:	a8e9                	j	300 <_ZN4core3fmt9Formatter12pad_integral17h7fb7350c4a3a4a93E+0x300>
 228:	657a                	ld	a0,408(sp)
 22a:	75fa                	ld	a1,440(sp)
 22c:	40b50633          	sub	a2,a0,a1
 230:	24013683          	ld	a3,576(sp)
 234:	0386c703          	lbu	a4,56(a3)
 238:	4785                	li	a5,1
 23a:	480d                	li	a6,3
 23c:	f2b2                	sd	a2,352(sp)
 23e:	eeba                	sd	a4,344(sp)
 240:	eabe                	sd	a5,336(sp)
 242:	01070463          	beq	a4,a6,24a <_ZN4core3fmt9Formatter12pad_integral17h7fb7350c4a3a4a93E+0x24a>
 246:	6576                	ld	a0,344(sp)
 248:	eaaa                	sd	a0,336(sp)
 24a:	6556                	ld	a0,336(sp)
 24c:	00357593          	andi	a1,a0,3
 250:	4601                	li	a2,0
 252:	4689                	li	a3,2
 254:	e6aa                	sd	a0,328(sp)
 256:	e2b2                	sd	a2,320(sp)
 258:	02d58663          	beq	a1,a3,284 <_ZN4core3fmt9Formatter12pad_integral17h7fb7350c4a3a4a93E+0x284>
 25c:	a009                	j	25e <_ZN4core3fmt9Formatter12pad_integral17h7fb7350c4a3a4a93E+0x25e>
 25e:	6536                	ld	a0,328(sp)
 260:	00357593          	andi	a1,a0,3
 264:	460d                	li	a2,3
 266:	02c58963          	beq	a1,a2,298 <_ZN4core3fmt9Formatter12pad_integral17h7fb7350c4a3a4a93E+0x298>
 26a:	a009                	j	26c <_ZN4core3fmt9Formatter12pad_integral17h7fb7350c4a3a4a93E+0x26c>
 26c:	6536                	ld	a0,328(sp)
 26e:	00357593          	andi	a1,a0,3
 272:	4601                	li	a2,0
 274:	7696                	ld	a3,352(sp)
 276:	6716                	ld	a4,320(sp)
 278:	fe36                	sd	a3,312(sp)
 27a:	fa3a                	sd	a4,304(sp)
 27c:	02c58363          	beq	a1,a2,2a2 <_ZN4core3fmt9Formatter12pad_integral17h7fb7350c4a3a4a93E+0x2a2>
 280:	a009                	j	282 <_ZN4core3fmt9Formatter12pad_integral17h7fb7350c4a3a4a93E+0x282>
 282:	a819                	j	298 <_ZN4core3fmt9Formatter12pad_integral17h7fb7350c4a3a4a93E+0x298>
 284:	7516                	ld	a0,352(sp)
 286:	00155593          	srli	a1,a0,0x1
 28a:	00150613          	addi	a2,a0,1
 28e:	8205                	srli	a2,a2,0x1
 290:	fe32                	sd	a2,312(sp)
 292:	fa2e                	sd	a1,304(sp)
 294:	a039                	j	2a2 <_ZN4core3fmt9Formatter12pad_integral17h7fb7350c4a3a4a93E+0x2a2>
 296:	0000                	unimp
 298:	4501                	li	a0,0
 29a:	7596                	ld	a1,352(sp)
 29c:	fe2a                	sd	a0,312(sp)
 29e:	fa2e                	sd	a1,304(sp)
 2a0:	a009                	j	2a2 <_ZN4core3fmt9Formatter12pad_integral17h7fb7350c4a3a4a93E+0x2a2>
 2a2:	7552                	ld	a0,304(sp)
 2a4:	75f2                	ld	a1,312(sp)
 2a6:	24013603          	ld	a2,576(sp)
 2aa:	02060693          	addi	a3,a2,32
 2ae:	02860713          	addi	a4,a2,40
 2b2:	87ba                	mv	a5,a4
 2b4:	03460813          	addi	a6,a2,52
 2b8:	4881                	li	a7,0
 2ba:	f62a                	sd	a0,296(sp)
 2bc:	f22e                	sd	a1,288(sp)
 2be:	ee36                	sd	a3,280(sp)
 2c0:	ea3a                	sd	a4,272(sp)
 2c2:	e63e                	sd	a5,264(sp)
 2c4:	e242                	sd	a6,256(sp)
 2c6:	fdc6                	sd	a7,248(sp)
 2c8:	a009                	j	2ca <_ZN4core3fmt9Formatter12pad_integral17h7fb7350c4a3a4a93E+0x2ca>
 2ca:	756e                	ld	a0,248(sp)
 2cc:	75b2                	ld	a1,296(sp)
 2ce:	f9aa                	sd	a0,240(sp)
 2d0:	16b50e63          	beq	a0,a1,44c <_ZN4core3fmt9Formatter12pad_integral17h7fb7350c4a3a4a93E+0x44c>
 2d4:	a009                	j	2d6 <_ZN4core3fmt9Formatter12pad_integral17h7fb7350c4a3a4a93E+0x2d6>
 2d6:	754e                	ld	a0,240(sp)
 2d8:	00150593          	addi	a1,a0,1
 2dc:	6672                	ld	a2,280(sp)
 2de:	6208                	ld	a0,0(a2)
 2e0:	66b2                	ld	a3,264(sp)
 2e2:	6298                	ld	a4,0(a3)
 2e4:	7318                	ld	a4,32(a4)
 2e6:	6792                	ld	a5,256(sp)
 2e8:	0007a803          	lw	a6,0(a5) # b0 <_ZN4core3fmt9Formatter12pad_integral17h7fb7350c4a3a4a93E+0xb0>
 2ec:	f5ae                	sd	a1,232(sp)
 2ee:	85c2                	mv	a1,a6
 2f0:	9702                	jalr	a4
 2f2:	4585                	li	a1,1
 2f4:	762e                	ld	a2,232(sp)
 2f6:	fdb2                	sd	a2,248(sp)
 2f8:	f72e                	sd	a1,424(sp)
 2fa:	1e051263          	bnez	a0,4de <_ZN4core3fmt9Formatter12pad_integral17h7fb7350c4a3a4a93E+0x4de>
 2fe:	b7f1                	j	2ca <_ZN4core3fmt9Formatter12pad_integral17h7fb7350c4a3a4a93E+0x2ca>
 300:	657a                	ld	a0,408(sp)
 302:	75fa                	ld	a1,440(sp)
 304:	40b50633          	sub	a2,a0,a1
 308:	76f6                	ld	a3,376(sp)
 30a:	0006c703          	lbu	a4,0(a3)
 30e:	4785                	li	a5,1
 310:	480d                	li	a6,3
 312:	f1b2                	sd	a2,224(sp)
 314:	edba                	sd	a4,216(sp)
 316:	e9be                	sd	a5,208(sp)
 318:	01070463          	beq	a4,a6,320 <_ZN4core3fmt9Formatter12pad_integral17h7fb7350c4a3a4a93E+0x320>
 31c:	656e                	ld	a0,216(sp)
 31e:	e9aa                	sd	a0,208(sp)
 320:	654e                	ld	a0,208(sp)
 322:	00357593          	andi	a1,a0,3
 326:	4601                	li	a2,0
 328:	4689                	li	a3,2
 32a:	e5aa                	sd	a0,200(sp)
 32c:	e1b2                	sd	a2,192(sp)
 32e:	02d58663          	beq	a1,a3,35a <_ZN4core3fmt9Formatter12pad_integral17h7fb7350c4a3a4a93E+0x35a>
 332:	a009                	j	334 <_ZN4core3fmt9Formatter12pad_integral17h7fb7350c4a3a4a93E+0x334>
 334:	652e                	ld	a0,200(sp)
 336:	00357593          	andi	a1,a0,3
 33a:	460d                	li	a2,3
 33c:	02c58963          	beq	a1,a2,36e <_ZN4core3fmt9Formatter12pad_integral17h7fb7350c4a3a4a93E+0x36e>
 340:	a009                	j	342 <_ZN4core3fmt9Formatter12pad_integral17h7fb7350c4a3a4a93E+0x342>
 342:	652e                	ld	a0,200(sp)
 344:	00357593          	andi	a1,a0,3
 348:	4601                	li	a2,0
 34a:	768e                	ld	a3,224(sp)
 34c:	670e                	ld	a4,192(sp)
 34e:	fd36                	sd	a3,184(sp)
 350:	f93a                	sd	a4,176(sp)
 352:	02c58363          	beq	a1,a2,378 <_ZN4core3fmt9Formatter12pad_integral17h7fb7350c4a3a4a93E+0x378>
 356:	a009                	j	358 <_ZN4core3fmt9Formatter12pad_integral17h7fb7350c4a3a4a93E+0x358>
 358:	a819                	j	36e <_ZN4core3fmt9Formatter12pad_integral17h7fb7350c4a3a4a93E+0x36e>
 35a:	750e                	ld	a0,224(sp)
 35c:	00155593          	srli	a1,a0,0x1
 360:	00150613          	addi	a2,a0,1
 364:	8205                	srli	a2,a2,0x1
 366:	fd32                	sd	a2,184(sp)
 368:	f92e                	sd	a1,176(sp)
 36a:	a039                	j	378 <_ZN4core3fmt9Formatter12pad_integral17h7fb7350c4a3a4a93E+0x378>
 36c:	0000                	unimp
 36e:	4501                	li	a0,0
 370:	758e                	ld	a1,224(sp)
 372:	fd2a                	sd	a0,184(sp)
 374:	f92e                	sd	a1,176(sp)
 376:	a009                	j	378 <_ZN4core3fmt9Formatter12pad_integral17h7fb7350c4a3a4a93E+0x378>
 378:	754a                	ld	a0,176(sp)
 37a:	75ea                	ld	a1,184(sp)
 37c:	24013603          	ld	a2,576(sp)
 380:	02060693          	addi	a3,a2,32
 384:	02860713          	addi	a4,a2,40
 388:	4781                	li	a5,0
 38a:	883a                	mv	a6,a4
 38c:	f52a                	sd	a0,168(sp)
 38e:	f12e                	sd	a1,160(sp)
 390:	ed36                	sd	a3,152(sp)
 392:	e93a                	sd	a4,144(sp)
 394:	e542                	sd	a6,136(sp)
 396:	e13e                	sd	a5,128(sp)
 398:	a009                	j	39a <_ZN4core3fmt9Formatter12pad_integral17h7fb7350c4a3a4a93E+0x39a>
 39a:	650a                	ld	a0,128(sp)
 39c:	75aa                	ld	a1,168(sp)
 39e:	fcaa                	sd	a0,120(sp)
 3a0:	02b50863          	beq	a0,a1,3d0 <_ZN4core3fmt9Formatter12pad_integral17h7fb7350c4a3a4a93E+0x3d0>
 3a4:	a009                	j	3a6 <_ZN4core3fmt9Formatter12pad_integral17h7fb7350c4a3a4a93E+0x3a6>
 3a6:	7566                	ld	a0,120(sp)
 3a8:	00150593          	addi	a1,a0,1
 3ac:	666a                	ld	a2,152(sp)
 3ae:	6208                	ld	a0,0(a2)
 3b0:	66aa                	ld	a3,136(sp)
 3b2:	6298                	ld	a4,0(a3)
 3b4:	7318                	ld	a4,32(a4)
 3b6:	67ba                	ld	a5,392(sp)
 3b8:	0007a803          	lw	a6,0(a5)
 3bc:	f8ae                	sd	a1,112(sp)
 3be:	85c2                	mv	a1,a6
 3c0:	9702                	jalr	a4
 3c2:	4585                	li	a1,1
 3c4:	7646                	ld	a2,112(sp)
 3c6:	e132                	sd	a2,128(sp)
 3c8:	f72e                	sd	a1,424(sp)
 3ca:	10051a63          	bnez	a0,4de <_ZN4core3fmt9Formatter12pad_integral17h7fb7350c4a3a4a93E+0x4de>
 3ce:	b7f1                	j	39a <_ZN4core3fmt9Formatter12pad_integral17h7fb7350c4a3a4a93E+0x39a>
 3d0:	653a                	ld	a0,392(sp)
 3d2:	00056583          	lwu	a1,0(a0)
 3d6:	666a                	ld	a2,152(sp)
 3d8:	6208                	ld	a0,0(a2)
 3da:	66ca                	ld	a3,144(sp)
 3dc:	6298                	ld	a4,0(a3)
 3de:	6f18                	ld	a4,24(a4)
 3e0:	25813783          	ld	a5,600(sp)
 3e4:	f4ae                	sd	a1,104(sp)
 3e6:	85be                	mv	a1,a5
 3e8:	26013603          	ld	a2,608(sp)
 3ec:	9702                	jalr	a4
 3ee:	4585                	li	a1,1
 3f0:	f72e                	sd	a1,424(sp)
 3f2:	e575                	bnez	a0,4de <_ZN4core3fmt9Formatter12pad_integral17h7fb7350c4a3a4a93E+0x4de>
 3f4:	a009                	j	3f6 <_ZN4core3fmt9Formatter12pad_integral17h7fb7350c4a3a4a93E+0x3f6>
 3f6:	656a                	ld	a0,152(sp)
 3f8:	6108                	ld	a0,0(a0)
 3fa:	65ca                	ld	a1,144(sp)
 3fc:	6190                	ld	a2,0(a1)
 3fe:	02060613          	addi	a2,a2,32
 402:	4681                	li	a3,0
 404:	f0aa                	sd	a0,96(sp)
 406:	ecb2                	sd	a2,88(sp)
 408:	e8b6                	sd	a3,80(sp)
 40a:	a009                	j	40c <_ZN4core3fmt9Formatter12pad_integral17h7fb7350c4a3a4a93E+0x40c>
 40c:	6546                	ld	a0,80(sp)
 40e:	758a                	ld	a1,160(sp)
 410:	e4aa                	sd	a0,72(sp)
 412:	02b50363          	beq	a0,a1,438 <_ZN4core3fmt9Formatter12pad_integral17h7fb7350c4a3a4a93E+0x438>
 416:	a009                	j	418 <_ZN4core3fmt9Formatter12pad_integral17h7fb7350c4a3a4a93E+0x418>
 418:	6526                	ld	a0,72(sp)
 41a:	00150593          	addi	a1,a0,1
 41e:	6666                	ld	a2,88(sp)
 420:	6214                	ld	a3,0(a2)
 422:	7506                	ld	a0,96(sp)
 424:	7726                	ld	a4,104(sp)
 426:	e0ae                	sd	a1,64(sp)
 428:	85ba                	mv	a1,a4
 42a:	9682                	jalr	a3
 42c:	4585                	li	a1,1
 42e:	6606                	ld	a2,64(sp)
 430:	e8b2                	sd	a2,80(sp)
 432:	f72e                	sd	a1,424(sp)
 434:	e54d                	bnez	a0,4de <_ZN4core3fmt9Formatter12pad_integral17h7fb7350c4a3a4a93E+0x4de>
 436:	bfd9                	j	40c <_ZN4core3fmt9Formatter12pad_integral17h7fb7350c4a3a4a93E+0x40c>
 438:	651a                	ld	a0,384(sp)
 43a:	65ba                	ld	a1,392(sp)
 43c:	c188                	sw	a0,0(a1)
 43e:	7656                	ld	a2,368(sp)
 440:	76f6                	ld	a3,376(sp)
 442:	00c68023          	sb	a2,0(a3)
 446:	4701                	li	a4,0
 448:	f73a                	sd	a4,424(sp)
 44a:	a851                	j	4de <_ZN4core3fmt9Formatter12pad_integral17h7fb7350c4a3a4a93E+0x4de>
 44c:	6512                	ld	a0,256(sp)
 44e:	00056583          	lwu	a1,0(a0)
 452:	24013503          	ld	a0,576(sp)
 456:	767e                	ld	a2,504(sp)
 458:	fc2e                	sd	a1,56(sp)
 45a:	85b2                	mv	a1,a2
 45c:	765a                	ld	a2,432(sp)
 45e:	25013683          	ld	a3,592(sp)
 462:	00000097          	auipc	ra,0x0
 466:	000080e7          	jalr	ra # 462 <_ZN4core3fmt9Formatter12pad_integral17h7fb7350c4a3a4a93E+0x462>
 46a:	4585                	li	a1,1
 46c:	f72e                	sd	a1,424(sp)
 46e:	e925                	bnez	a0,4de <_ZN4core3fmt9Formatter12pad_integral17h7fb7350c4a3a4a93E+0x4de>
 470:	a009                	j	472 <_ZN4core3fmt9Formatter12pad_integral17h7fb7350c4a3a4a93E+0x472>
 472:	6572                	ld	a0,280(sp)
 474:	6108                	ld	a0,0(a0)
 476:	65d2                	ld	a1,272(sp)
 478:	6190                	ld	a2,0(a1)
 47a:	6e10                	ld	a2,24(a2)
 47c:	25813583          	ld	a1,600(sp)
 480:	26013683          	ld	a3,608(sp)
 484:	f832                	sd	a2,48(sp)
 486:	8636                	mv	a2,a3
 488:	7742                	ld	a4,48(sp)
 48a:	9702                	jalr	a4
 48c:	4585                	li	a1,1
 48e:	f72e                	sd	a1,424(sp)
 490:	e539                	bnez	a0,4de <_ZN4core3fmt9Formatter12pad_integral17h7fb7350c4a3a4a93E+0x4de>
 492:	a009                	j	494 <_ZN4core3fmt9Formatter12pad_integral17h7fb7350c4a3a4a93E+0x494>
 494:	6572                	ld	a0,280(sp)
 496:	6108                	ld	a0,0(a0)
 498:	65d2                	ld	a1,272(sp)
 49a:	6190                	ld	a2,0(a1)
 49c:	02060613          	addi	a2,a2,32
 4a0:	4681                	li	a3,0
 4a2:	f42a                	sd	a0,40(sp)
 4a4:	f032                	sd	a2,32(sp)
 4a6:	ec36                	sd	a3,24(sp)
 4a8:	a009                	j	4aa <_ZN4core3fmt9Formatter12pad_integral17h7fb7350c4a3a4a93E+0x4aa>
 4aa:	6562                	ld	a0,24(sp)
 4ac:	4581                	li	a1,0
 4ae:	7612                	ld	a2,288(sp)
 4b0:	e82a                	sd	a0,16(sp)
 4b2:	f72e                	sd	a1,424(sp)
 4b4:	02c50563          	beq	a0,a2,4de <_ZN4core3fmt9Formatter12pad_integral17h7fb7350c4a3a4a93E+0x4de>
 4b8:	a009                	j	4ba <_ZN4core3fmt9Formatter12pad_integral17h7fb7350c4a3a4a93E+0x4ba>
 4ba:	6542                	ld	a0,16(sp)
 4bc:	00150593          	addi	a1,a0,1
 4c0:	7602                	ld	a2,32(sp)
 4c2:	6214                	ld	a3,0(a2)
 4c4:	7522                	ld	a0,40(sp)
 4c6:	7762                	ld	a4,56(sp)
 4c8:	e42e                	sd	a1,8(sp)
 4ca:	85ba                	mv	a1,a4
 4cc:	9682                	jalr	a3
 4ce:	4585                	li	a1,1
 4d0:	4601                	li	a2,0
 4d2:	66a2                	ld	a3,8(sp)
 4d4:	ec36                	sd	a3,24(sp)
 4d6:	f72e                	sd	a1,424(sp)
 4d8:	fcc509e3          	beq	a0,a2,4aa <_ZN4core3fmt9Formatter12pad_integral17h7fb7350c4a3a4a93E+0x4aa>
 4dc:	a009                	j	4de <_ZN4core3fmt9Formatter12pad_integral17h7fb7350c4a3a4a93E+0x4de>
 4de:	753a                	ld	a0,424(sp)
 4e0:	26813083          	ld	ra,616(sp)
 4e4:	27010113          	addi	sp,sp,624
 4e8:	8082                	ret

Disassembly of section .text._ZN4core3fmt9Formatter12pad_integral12write_prefix17h505157fe8a7106eeE:

0000000000000000 <_ZN4core3fmt9Formatter12pad_integral12write_prefix17h505157fe8a7106eeE>:
   0:	7139                	addi	sp,sp,-64
   2:	fc06                	sd	ra,56(sp)
   4:	872e                	mv	a4,a1
   6:	1582                	slli	a1,a1,0x20
   8:	9181                	srli	a1,a1,0x20
   a:	001107b7          	lui	a5,0x110
   e:	f836                	sd	a3,48(sp)
  10:	f432                	sd	a2,40(sp)
  12:	f02a                	sd	a0,32(sp)
  14:	ec3a                	sd	a4,24(sp)
  16:	00f58e63          	beq	a1,a5,32 <_ZN4core3fmt9Formatter12pad_integral12write_prefix17h505157fe8a7106eeE+0x32>
  1a:	a009                	j	1c <_ZN4core3fmt9Formatter12pad_integral12write_prefix17h505157fe8a7106eeE+0x1c>
  1c:	7502                	ld	a0,32(sp)
  1e:	7108                	ld	a0,32(a0)
  20:	7582                	ld	a1,32(sp)
  22:	7590                	ld	a2,40(a1)
  24:	7210                	ld	a2,32(a2)
  26:	65e2                	ld	a1,24(sp)
  28:	9602                	jalr	a2
  2a:	4585                	li	a1,1
  2c:	e82e                	sd	a1,16(sp)
  2e:	e515                	bnez	a0,5a <_ZN4core3fmt9Formatter12pad_integral12write_prefix17h505157fe8a7106eeE+0x5a>
  30:	a009                	j	32 <_ZN4core3fmt9Formatter12pad_integral12write_prefix17h505157fe8a7106eeE+0x32>
  32:	4501                	li	a0,0
  34:	85aa                	mv	a1,a0
  36:	7622                	ld	a2,40(sp)
  38:	e82e                	sd	a1,16(sp)
  3a:	02a60063          	beq	a2,a0,5a <_ZN4core3fmt9Formatter12pad_integral12write_prefix17h505157fe8a7106eeE+0x5a>
  3e:	a009                	j	40 <_ZN4core3fmt9Formatter12pad_integral12write_prefix17h505157fe8a7106eeE+0x40>
  40:	7502                	ld	a0,32(sp)
  42:	7108                	ld	a0,32(a0)
  44:	7582                	ld	a1,32(sp)
  46:	7590                	ld	a2,40(a1)
  48:	6e10                	ld	a2,24(a2)
  4a:	75a2                	ld	a1,40(sp)
  4c:	76c2                	ld	a3,48(sp)
  4e:	e432                	sd	a2,8(sp)
  50:	8636                	mv	a2,a3
  52:	6722                	ld	a4,8(sp)
  54:	9702                	jalr	a4
  56:	e82a                	sd	a0,16(sp)
  58:	a009                	j	5a <_ZN4core3fmt9Formatter12pad_integral12write_prefix17h505157fe8a7106eeE+0x5a>
  5a:	6542                	ld	a0,16(sp)
  5c:	70e2                	ld	ra,56(sp)
  5e:	6121                	addi	sp,sp,64
  60:	8082                	ret

Disassembly of section .text._ZN4core5slice5index24slice_end_index_len_fail17h22e7ee92998b4241E:

0000000000000000 <_ZN4core5slice5index24slice_end_index_len_fail17h22e7ee92998b4241E>:
   0:	7159                	addi	sp,sp,-112
   2:	f486                	sd	ra,104(sp)
   4:	e42a                	sd	a0,8(sp)
   6:	e82e                	sd	a1,16(sp)
   8:	0028                	addi	a0,sp,8
   a:	e4aa                	sd	a0,72(sp)

000000000000000c <.LBB133_1>:
   c:	00000517          	auipc	a0,0x0
  10:	00050513          	mv	a0,a0
  14:	e8aa                	sd	a0,80(sp)
  16:	080c                	addi	a1,sp,16
  18:	ecae                	sd	a1,88(sp)
  1a:	f0aa                	sd	a0,96(sp)

000000000000001c <.LBB133_2>:
  1c:	00000517          	auipc	a0,0x0
  20:	00050513          	mv	a0,a0
  24:	ec2a                	sd	a0,24(sp)
  26:	4509                	li	a0,2
  28:	f02a                	sd	a0,32(sp)
  2a:	4581                	li	a1,0
  2c:	f42e                	sd	a1,40(sp)
  2e:	00ac                	addi	a1,sp,72
  30:	fc2e                	sd	a1,56(sp)
  32:	e0aa                	sd	a0,64(sp)
  34:	0828                	addi	a0,sp,24
  36:	85b2                	mv	a1,a2
  38:	00000097          	auipc	ra,0x0
  3c:	000080e7          	jalr	ra # 38 <.LBB133_2+0x1c>
	...

Disassembly of section .text._ZN4core3fmt9Formatter3pad17h946adb8f77146580E:

0000000000000000 <_ZN4core3fmt9Formatter3pad17h946adb8f77146580E>:
   0:	ce010113          	addi	sp,sp,-800
   4:	30113c23          	sd	ra,792(sp)
   8:	6114                	ld	a3,0(a0)
   a:	fff68713          	addi	a4,a3,-1
   e:	00173713          	seqz	a4,a4
  12:	691c                	ld	a5,16(a0)
  14:	17fd                	addi	a5,a5,-1
  16:	0017b793          	seqz	a5,a5
  1a:	4805                	li	a6,1
  1c:	30c13823          	sd	a2,784(sp)
  20:	30b13423          	sd	a1,776(sp)
  24:	30a13023          	sd	a0,768(sp)
  28:	2ee13c23          	sd	a4,760(sp)
  2c:	2ef13823          	sd	a5,752(sp)
  30:	01068763          	beq	a3,a6,3e <_ZN4core3fmt9Formatter3pad17h946adb8f77146580E+0x3e>
  34:	a009                	j	36 <_ZN4core3fmt9Formatter3pad17h946adb8f77146580E+0x36>
  36:	2f013503          	ld	a0,752(sp)
  3a:	e131                	bnez	a0,7e <_ZN4core3fmt9Formatter3pad17h946adb8f77146580E+0x7e>
  3c:	a829                	j	56 <_ZN4core3fmt9Formatter3pad17h946adb8f77146580E+0x56>
  3e:	31013503          	ld	a0,784(sp)
  42:	30813583          	ld	a1,776(sp)
  46:	2f013603          	ld	a2,752(sp)
  4a:	2ea13423          	sd	a0,744(sp)
  4e:	2eb13023          	sd	a1,736(sp)
  52:	e615                	bnez	a2,7e <_ZN4core3fmt9Formatter3pad17h946adb8f77146580E+0x7e>
  54:	a115                	j	478 <_ZN4core3fmt9Formatter3pad17h946adb8f77146580E+0x478>
  56:	30013503          	ld	a0,768(sp)
  5a:	7108                	ld	a0,32(a0)
  5c:	30013583          	ld	a1,768(sp)
  60:	7590                	ld	a2,40(a1)
  62:	6e10                	ld	a2,24(a2)
  64:	30813583          	ld	a1,776(sp)
  68:	31013683          	ld	a3,784(sp)
  6c:	2cc13c23          	sd	a2,728(sp)
  70:	8636                	mv	a2,a3
  72:	2d813703          	ld	a4,728(sp)
  76:	9702                	jalr	a4
  78:	2ca13823          	sd	a0,720(sp)
  7c:	a525                	j	6a4 <_ZN4core3fmt9Formatter3pad17h946adb8f77146580E+0x6a4>
  7e:	30013503          	ld	a0,768(sp)
  82:	6d0c                	ld	a1,24(a0)
  84:	30813603          	ld	a2,776(sp)
  88:	30813683          	ld	a3,776(sp)
  8c:	31013703          	ld	a4,784(sp)
  90:	00e687b3          	add	a5,a3,a4
  94:	4801                	li	a6,0
  96:	88c2                	mv	a7,a6
  98:	82c6                	mv	t0,a7
  9a:	2cb13423          	sd	a1,712(sp)
  9e:	2cc13023          	sd	a2,704(sp)
  a2:	2af13c23          	sd	a5,696(sp)
  a6:	2a513823          	sd	t0,688(sp)
  aa:	2ad13423          	sd	a3,680(sp)
  ae:	2b113023          	sd	a7,672(sp)
  b2:	1f058863          	beq	a1,a6,2a2 <_ZN4core3fmt9Formatter3pad17h946adb8f77146580E+0x2a2>
  b6:	a009                	j	b8 <_ZN4core3fmt9Formatter3pad17h946adb8f77146580E+0xb8>
  b8:	2a013503          	ld	a0,672(sp)
  bc:	2a813583          	ld	a1,680(sp)
  c0:	2b013603          	ld	a2,688(sp)
  c4:	0505                	addi	a0,a0,1
  c6:	86ae                	mv	a3,a1
  c8:	30813703          	ld	a4,776(sp)
  cc:	31013783          	ld	a5,784(sp)
  d0:	2b813803          	ld	a6,696(sp)
  d4:	28b13c23          	sd	a1,664(sp)
  d8:	28c13823          	sd	a2,656(sp)
  dc:	28a13423          	sd	a0,648(sp)
  e0:	28d13023          	sd	a3,640(sp)
  e4:	26e13c23          	sd	a4,632(sp)
  e8:	26f13823          	sd	a5,624(sp)
  ec:	34b80663          	beq	a6,a1,438 <_ZN4core3fmt9Formatter3pad17h946adb8f77146580E+0x438>
  f0:	a009                	j	f2 <_ZN4core3fmt9Formatter3pad17h946adb8f77146580E+0xf2>
  f2:	28013503          	ld	a0,640(sp)
  f6:	00150593          	addi	a1,a0,1 # 1d <_ZN4core3fmt9Formatter3pad17h946adb8f77146580E+0x1d>
  fa:	862e                	mv	a2,a1
  fc:	00050683          	lb	a3,0(a0)
 100:	0ff6f713          	andi	a4,a3,255
 104:	57fd                	li	a5,-1
 106:	882e                	mv	a6,a1
 108:	26b13423          	sd	a1,616(sp)
 10c:	26c13023          	sd	a2,608(sp)
 110:	24e13c23          	sd	a4,600(sp)
 114:	25013823          	sd	a6,592(sp)
 118:	14d7cd63          	blt	a5,a3,272 <_ZN4core3fmt9Formatter3pad17h946adb8f77146580E+0x272>
 11c:	a009                	j	11e <_ZN4core3fmt9Formatter3pad17h946adb8f77146580E+0x11e>
 11e:	25813503          	ld	a0,600(sp)
 122:	4581                	li	a1,0
 124:	26813603          	ld	a2,616(sp)
 128:	2b813683          	ld	a3,696(sp)
 12c:	26013703          	ld	a4,608(sp)
 130:	2b813783          	ld	a5,696(sp)
 134:	24a13423          	sd	a0,584(sp)
 138:	24c13023          	sd	a2,576(sp)
 13c:	22d13c23          	sd	a3,568(sp)
 140:	22b13823          	sd	a1,560(sp)
 144:	02f70563          	beq	a4,a5,16e <_ZN4core3fmt9Formatter3pad17h946adb8f77146580E+0x16e>
 148:	a009                	j	14a <_ZN4core3fmt9Formatter3pad17h946adb8f77146580E+0x14a>
 14a:	28013503          	ld	a0,640(sp)
 14e:	00250593          	addi	a1,a0,2
 152:	862e                	mv	a2,a1
 154:	26013683          	ld	a3,608(sp)
 158:	0006c703          	lbu	a4,0(a3)
 15c:	03f77713          	andi	a4,a4,63
 160:	24b13023          	sd	a1,576(sp)
 164:	22c13c23          	sd	a2,568(sp)
 168:	22e13823          	sd	a4,560(sp)
 16c:	a009                	j	16e <_ZN4core3fmt9Formatter3pad17h946adb8f77146580E+0x16e>
 16e:	23013503          	ld	a0,560(sp)
 172:	23813583          	ld	a1,568(sp)
 176:	24013603          	ld	a2,576(sp)
 17a:	0e000693          	li	a3,224
 17e:	8732                	mv	a4,a2
 180:	25813783          	ld	a5,600(sp)
 184:	22b13423          	sd	a1,552(sp)
 188:	22c13023          	sd	a2,544(sp)
 18c:	20a13c23          	sd	a0,536(sp)
 190:	24e13823          	sd	a4,592(sp)
 194:	0cd7ef63          	bltu	a5,a3,272 <_ZN4core3fmt9Formatter3pad17h946adb8f77146580E+0x272>
 198:	a009                	j	19a <_ZN4core3fmt9Formatter3pad17h946adb8f77146580E+0x19a>
 19a:	4501                	li	a0,0
 19c:	22013583          	ld	a1,544(sp)
 1a0:	2b813603          	ld	a2,696(sp)
 1a4:	22813683          	ld	a3,552(sp)
 1a8:	2b813703          	ld	a4,696(sp)
 1ac:	20b13823          	sd	a1,528(sp)
 1b0:	20c13423          	sd	a2,520(sp)
 1b4:	20a13023          	sd	a0,512(sp)
 1b8:	02e68363          	beq	a3,a4,1de <_ZN4core3fmt9Formatter3pad17h946adb8f77146580E+0x1de>
 1bc:	a009                	j	1be <_ZN4core3fmt9Formatter3pad17h946adb8f77146580E+0x1be>
 1be:	22813503          	ld	a0,552(sp)
 1c2:	00150593          	addi	a1,a0,1
 1c6:	862e                	mv	a2,a1
 1c8:	00054683          	lbu	a3,0(a0)
 1cc:	03f6f693          	andi	a3,a3,63
 1d0:	20b13823          	sd	a1,528(sp)
 1d4:	20c13423          	sd	a2,520(sp)
 1d8:	20d13023          	sd	a3,512(sp)
 1dc:	a009                	j	1de <_ZN4core3fmt9Formatter3pad17h946adb8f77146580E+0x1de>
 1de:	20013503          	ld	a0,512(sp)
 1e2:	20813583          	ld	a1,520(sp)
 1e6:	21013603          	ld	a2,528(sp)
 1ea:	0f000693          	li	a3,240
 1ee:	8732                	mv	a4,a2
 1f0:	25813783          	ld	a5,600(sp)
 1f4:	ffae                	sd	a1,504(sp)
 1f6:	fbb2                	sd	a2,496(sp)
 1f8:	f7aa                	sd	a0,488(sp)
 1fa:	24e13823          	sd	a4,592(sp)
 1fe:	06d7ea63          	bltu	a5,a3,272 <_ZN4core3fmt9Formatter3pad17h946adb8f77146580E+0x272>
 202:	a009                	j	204 <_ZN4core3fmt9Formatter3pad17h946adb8f77146580E+0x204>
 204:	4501                	li	a0,0
 206:	75de                	ld	a1,496(sp)
 208:	767e                	ld	a2,504(sp)
 20a:	2b813683          	ld	a3,696(sp)
 20e:	f3ae                	sd	a1,480(sp)
 210:	efaa                	sd	a0,472(sp)
 212:	00d60d63          	beq	a2,a3,22c <_ZN4core3fmt9Formatter3pad17h946adb8f77146580E+0x22c>
 216:	a009                	j	218 <_ZN4core3fmt9Formatter3pad17h946adb8f77146580E+0x218>
 218:	757e                	ld	a0,504(sp)
 21a:	00150593          	addi	a1,a0,1
 21e:	00054603          	lbu	a2,0(a0)
 222:	03f67613          	andi	a2,a2,63
 226:	f3ae                	sd	a1,480(sp)
 228:	efb2                	sd	a2,472(sp)
 22a:	a009                	j	22c <_ZN4core3fmt9Formatter3pad17h946adb8f77146580E+0x22c>
 22c:	657e                	ld	a0,472(sp)
 22e:	759e                	ld	a1,480(sp)
 230:	24813603          	ld	a2,584(sp)
 234:	01261693          	slli	a3,a2,0x12
 238:	001c0737          	lui	a4,0x1c0
 23c:	8ef9                	and	a3,a3,a4
 23e:	21813703          	ld	a4,536(sp)
 242:	00c71793          	slli	a5,a4,0xc
 246:	783e                	ld	a6,488(sp)
 248:	00681893          	slli	a7,a6,0x6
 24c:	8edd                	or	a3,a3,a5
 24e:	0116e6b3          	or	a3,a3,a7
 252:	8d55                	or	a0,a0,a3
 254:	001106b7          	lui	a3,0x110
 258:	30813783          	ld	a5,776(sp)
 25c:	31013883          	ld	a7,784(sp)
 260:	24b13823          	sd	a1,592(sp)
 264:	26f13c23          	sd	a5,632(sp)
 268:	27113823          	sd	a7,624(sp)
 26c:	1cd50663          	beq	a0,a3,438 <_ZN4core3fmt9Formatter3pad17h946adb8f77146580E+0x438>
 270:	a009                	j	272 <_ZN4core3fmt9Formatter3pad17h946adb8f77146580E+0x272>
 272:	25013503          	ld	a0,592(sp)
 276:	29813583          	ld	a1,664(sp)
 27a:	40b50633          	sub	a2,a0,a1
 27e:	29013683          	ld	a3,656(sp)
 282:	9636                	add	a2,a2,a3
 284:	28813703          	ld	a4,648(sp)
 288:	28813783          	ld	a5,648(sp)
 28c:	2c813803          	ld	a6,712(sp)
 290:	2ac13823          	sd	a2,688(sp)
 294:	2aa13423          	sd	a0,680(sp)
 298:	2ae13023          	sd	a4,672(sp)
 29c:	e1079ee3          	bne	a5,a6,b8 <_ZN4core3fmt9Formatter3pad17h946adb8f77146580E+0xb8>
 2a0:	a009                	j	2a2 <_ZN4core3fmt9Formatter3pad17h946adb8f77146580E+0x2a2>
 2a2:	2a813503          	ld	a0,680(sp)
 2a6:	2b013583          	ld	a1,688(sp)
 2aa:	862a                	mv	a2,a0
 2ac:	30813683          	ld	a3,776(sp)
 2b0:	31013703          	ld	a4,784(sp)
 2b4:	2b813783          	ld	a5,696(sp)
 2b8:	ebae                	sd	a1,464(sp)
 2ba:	e7b2                	sd	a2,456(sp)
 2bc:	26d13c23          	sd	a3,632(sp)
 2c0:	26e13823          	sd	a4,624(sp)
 2c4:	16a78a63          	beq	a5,a0,438 <_ZN4core3fmt9Formatter3pad17h946adb8f77146580E+0x438>
 2c8:	a009                	j	2ca <_ZN4core3fmt9Formatter3pad17h946adb8f77146580E+0x2ca>
 2ca:	653e                	ld	a0,456(sp)
 2cc:	00150593          	addi	a1,a0,1
 2d0:	00050603          	lb	a2,0(a0)
 2d4:	0ff67693          	andi	a3,a2,255
 2d8:	577d                	li	a4,-1
 2da:	e3ae                	sd	a1,448(sp)
 2dc:	ff36                	sd	a3,440(sp)
 2de:	0ec74163          	blt	a4,a2,3c0 <_ZN4core3fmt9Formatter3pad17h946adb8f77146580E+0x3c0>
 2e2:	a009                	j	2e4 <_ZN4core3fmt9Formatter3pad17h946adb8f77146580E+0x2e4>
 2e4:	757a                	ld	a0,440(sp)
 2e6:	4581                	li	a1,0
 2e8:	2b813603          	ld	a2,696(sp)
 2ec:	669e                	ld	a3,448(sp)
 2ee:	2b813703          	ld	a4,696(sp)
 2f2:	fb2a                	sd	a0,432(sp)
 2f4:	f732                	sd	a2,424(sp)
 2f6:	f32e                	sd	a1,416(sp)
 2f8:	00e68e63          	beq	a3,a4,314 <_ZN4core3fmt9Formatter3pad17h946adb8f77146580E+0x314>
 2fc:	a009                	j	2fe <_ZN4core3fmt9Formatter3pad17h946adb8f77146580E+0x2fe>
 2fe:	653e                	ld	a0,456(sp)
 300:	00250593          	addi	a1,a0,2
 304:	661e                	ld	a2,448(sp)
 306:	00064683          	lbu	a3,0(a2)
 30a:	03f6f693          	andi	a3,a3,63
 30e:	f72e                	sd	a1,424(sp)
 310:	f336                	sd	a3,416(sp)
 312:	a009                	j	314 <_ZN4core3fmt9Formatter3pad17h946adb8f77146580E+0x314>
 314:	751a                	ld	a0,416(sp)
 316:	75ba                	ld	a1,424(sp)
 318:	0e000613          	li	a2,224
 31c:	76fa                	ld	a3,440(sp)
 31e:	ef2e                	sd	a1,408(sp)
 320:	eb2a                	sd	a0,400(sp)
 322:	08c6ef63          	bltu	a3,a2,3c0 <_ZN4core3fmt9Formatter3pad17h946adb8f77146580E+0x3c0>
 326:	a009                	j	328 <_ZN4core3fmt9Formatter3pad17h946adb8f77146580E+0x328>
 328:	4501                	li	a0,0
 32a:	2b813583          	ld	a1,696(sp)
 32e:	667a                	ld	a2,408(sp)
 330:	2b813683          	ld	a3,696(sp)
 334:	e72e                	sd	a1,392(sp)
 336:	e32a                	sd	a0,384(sp)
 338:	00d60d63          	beq	a2,a3,352 <_ZN4core3fmt9Formatter3pad17h946adb8f77146580E+0x352>
 33c:	a009                	j	33e <_ZN4core3fmt9Formatter3pad17h946adb8f77146580E+0x33e>
 33e:	657a                	ld	a0,408(sp)
 340:	00150593          	addi	a1,a0,1
 344:	00054603          	lbu	a2,0(a0)
 348:	03f67613          	andi	a2,a2,63
 34c:	e72e                	sd	a1,392(sp)
 34e:	e332                	sd	a2,384(sp)
 350:	a009                	j	352 <_ZN4core3fmt9Formatter3pad17h946adb8f77146580E+0x352>
 352:	651a                	ld	a0,384(sp)
 354:	65ba                	ld	a1,392(sp)
 356:	0f000613          	li	a2,240
 35a:	76fa                	ld	a3,440(sp)
 35c:	feae                	sd	a1,376(sp)
 35e:	faaa                	sd	a0,368(sp)
 360:	06c6e063          	bltu	a3,a2,3c0 <_ZN4core3fmt9Formatter3pad17h946adb8f77146580E+0x3c0>
 364:	a009                	j	366 <_ZN4core3fmt9Formatter3pad17h946adb8f77146580E+0x366>
 366:	4501                	li	a0,0
 368:	75f6                	ld	a1,376(sp)
 36a:	2b813603          	ld	a2,696(sp)
 36e:	f6aa                	sd	a0,360(sp)
 370:	00c58a63          	beq	a1,a2,384 <_ZN4core3fmt9Formatter3pad17h946adb8f77146580E+0x384>
 374:	a009                	j	376 <_ZN4core3fmt9Formatter3pad17h946adb8f77146580E+0x376>
 376:	7576                	ld	a0,376(sp)
 378:	00054583          	lbu	a1,0(a0)
 37c:	03f5f593          	andi	a1,a1,63
 380:	f6ae                	sd	a1,360(sp)
 382:	a009                	j	384 <_ZN4core3fmt9Formatter3pad17h946adb8f77146580E+0x384>
 384:	7536                	ld	a0,360(sp)
 386:	75da                	ld	a1,432(sp)
 388:	01259613          	slli	a2,a1,0x12
 38c:	001c06b7          	lui	a3,0x1c0
 390:	8e75                	and	a2,a2,a3
 392:	66da                	ld	a3,400(sp)
 394:	00c69713          	slli	a4,a3,0xc
 398:	77d6                	ld	a5,368(sp)
 39a:	00679813          	slli	a6,a5,0x6
 39e:	8e59                	or	a2,a2,a4
 3a0:	01066633          	or	a2,a2,a6
 3a4:	8d51                	or	a0,a0,a2
 3a6:	00110637          	lui	a2,0x110
 3aa:	30813703          	ld	a4,776(sp)
 3ae:	31013803          	ld	a6,784(sp)
 3b2:	26e13c23          	sd	a4,632(sp)
 3b6:	27013823          	sd	a6,624(sp)
 3ba:	06c50f63          	beq	a0,a2,438 <_ZN4core3fmt9Formatter3pad17h946adb8f77146580E+0x438>
 3be:	a009                	j	3c0 <_ZN4core3fmt9Formatter3pad17h946adb8f77146580E+0x3c0>
 3c0:	655e                	ld	a0,464(sp)
 3c2:	00153593          	seqz	a1,a0
 3c6:	31013603          	ld	a2,784(sp)
 3ca:	00c546b3          	xor	a3,a0,a2
 3ce:	0016b693          	seqz	a3,a3
 3d2:	8dd5                	or	a1,a1,a3
 3d4:	e985                	bnez	a1,404 <_ZN4core3fmt9Formatter3pad17h946adb8f77146580E+0x404>
 3d6:	a009                	j	3d8 <_ZN4core3fmt9Formatter3pad17h946adb8f77146580E+0x3d8>
 3d8:	4501                	li	a0,0
 3da:	65de                	ld	a1,464(sp)
 3dc:	31013603          	ld	a2,784(sp)
 3e0:	f2aa                	sd	a0,352(sp)
 3e2:	02c5f563          	bgeu	a1,a2,40c <_ZN4core3fmt9Formatter3pad17h946adb8f77146580E+0x40c>
 3e6:	a009                	j	3e8 <_ZN4core3fmt9Formatter3pad17h946adb8f77146580E+0x3e8>
 3e8:	30813503          	ld	a0,776(sp)
 3ec:	65de                	ld	a1,464(sp)
 3ee:	00b50633          	add	a2,a0,a1
 3f2:	00060603          	lb	a2,0(a2) # 110000 <.LBB135_45+0x10fcbe>
 3f6:	4681                	li	a3,0
 3f8:	fc000713          	li	a4,-64
 3fc:	f2b6                	sd	a3,352(sp)
 3fe:	00e64763          	blt	a2,a4,40c <_ZN4core3fmt9Formatter3pad17h946adb8f77146580E+0x40c>
 402:	a009                	j	404 <_ZN4core3fmt9Formatter3pad17h946adb8f77146580E+0x404>
 404:	2c013503          	ld	a0,704(sp)
 408:	f2aa                	sd	a0,352(sp)
 40a:	a009                	j	40c <_ZN4core3fmt9Formatter3pad17h946adb8f77146580E+0x40c>
 40c:	7516                	ld	a0,352(sp)
 40e:	4581                	li	a1,0
 410:	30813603          	ld	a2,776(sp)
 414:	31013683          	ld	a3,784(sp)
 418:	eeaa                	sd	a0,344(sp)
 41a:	eab2                	sd	a2,336(sp)
 41c:	e6b6                	sd	a3,328(sp)
 41e:	00b50663          	beq	a0,a1,42a <_ZN4core3fmt9Formatter3pad17h946adb8f77146580E+0x42a>
 422:	6576                	ld	a0,344(sp)
 424:	65de                	ld	a1,464(sp)
 426:	eaaa                	sd	a0,336(sp)
 428:	e6ae                	sd	a1,328(sp)
 42a:	6536                	ld	a0,328(sp)
 42c:	65d6                	ld	a1,336(sp)
 42e:	26b13c23          	sd	a1,632(sp)
 432:	26a13823          	sd	a0,624(sp)
 436:	a009                	j	438 <_ZN4core3fmt9Formatter3pad17h946adb8f77146580E+0x438>
 438:	27013503          	ld	a0,624(sp)
 43c:	27813583          	ld	a1,632(sp)
 440:	862a                	mv	a2,a0
 442:	86ae                	mv	a3,a1
 444:	2f813703          	ld	a4,760(sp)
 448:	e2aa                	sd	a0,320(sp)
 44a:	fe2e                	sd	a1,312(sp)
 44c:	2ec13423          	sd	a2,744(sp)
 450:	2ed13023          	sd	a3,736(sp)
 454:	e315                	bnez	a4,478 <_ZN4core3fmt9Formatter3pad17h946adb8f77146580E+0x478>
 456:	a009                	j	458 <_ZN4core3fmt9Formatter3pad17h946adb8f77146580E+0x458>
 458:	30013503          	ld	a0,768(sp)
 45c:	7108                	ld	a0,32(a0)
 45e:	30013583          	ld	a1,768(sp)
 462:	7590                	ld	a2,40(a1)
 464:	6e10                	ld	a2,24(a2)
 466:	75f2                	ld	a1,312(sp)
 468:	6696                	ld	a3,320(sp)
 46a:	fa32                	sd	a2,304(sp)
 46c:	8636                	mv	a2,a3
 46e:	7752                	ld	a4,304(sp)
 470:	9702                	jalr	a4
 472:	2ca13823          	sd	a0,720(sp)
 476:	a43d                	j	6a4 <_ZN4core3fmt9Formatter3pad17h946adb8f77146580E+0x6a4>
 478:	2e013503          	ld	a0,736(sp)
 47c:	2e813583          	ld	a1,744(sp)
 480:	30013603          	ld	a2,768(sp)
 484:	00860693          	addi	a3,a2,8
 488:	872a                	mv	a4,a0
 48a:	00b507b3          	add	a5,a0,a1
 48e:	4801                	li	a6,0
 490:	88c2                	mv	a7,a6
 492:	82ba                	mv	t0,a4
 494:	f62a                	sd	a0,296(sp)
 496:	f22e                	sd	a1,288(sp)
 498:	ee36                	sd	a3,280(sp)
 49a:	ea3a                	sd	a4,272(sp)
 49c:	e63e                	sd	a5,264(sp)
 49e:	e246                	sd	a7,256(sp)
 4a0:	fd96                	sd	t0,248(sp)
 4a2:	05058763          	beq	a1,a6,4f0 <_ZN4core3fmt9Formatter3pad17h946adb8f77146580E+0x4f0>
 4a6:	a009                	j	4a8 <_ZN4core3fmt9Formatter3pad17h946adb8f77146580E+0x4a8>
 4a8:	756e                	ld	a0,248(sp)
 4aa:	6592                	ld	a1,256(sp)
 4ac:	00150613          	addi	a2,a0,1
 4b0:	00054503          	lbu	a0,0(a0)
 4b4:	0c057513          	andi	a0,a0,192
 4b8:	f8050513          	addi	a0,a0,-128
 4bc:	00153513          	seqz	a0,a0
 4c0:	952e                	add	a0,a0,a1
 4c2:	85aa                	mv	a1,a0
 4c4:	86b2                	mv	a3,a2
 4c6:	6732                	ld	a4,264(sp)
 4c8:	fdb6                	sd	a3,248(sp)
 4ca:	e22e                	sd	a1,256(sp)
 4cc:	f9aa                	sd	a0,240(sp)
 4ce:	fce61de3          	bne	a2,a4,4a8 <_ZN4core3fmt9Formatter3pad17h946adb8f77146580E+0x4a8>
 4d2:	a009                	j	4d4 <_ZN4core3fmt9Formatter3pad17h946adb8f77146580E+0x4d4>
 4d4:	7512                	ld	a0,288(sp)
 4d6:	75ce                	ld	a1,240(sp)
 4d8:	40b50633          	sub	a2,a0,a1
 4dc:	66f2                	ld	a3,280(sp)
 4de:	6298                	ld	a4,0(a3)
 4e0:	4781                	li	a5,0
 4e2:	6852                	ld	a6,272(sp)
 4e4:	f5ba                	sd	a4,232(sp)
 4e6:	f1be                	sd	a5,224(sp)
 4e8:	edc2                	sd	a6,216(sp)
 4ea:	02e66d63          	bltu	a2,a4,524 <_ZN4core3fmt9Formatter3pad17h946adb8f77146580E+0x524>
 4ee:	a819                	j	504 <_ZN4core3fmt9Formatter3pad17h946adb8f77146580E+0x504>
 4f0:	6572                	ld	a0,280(sp)
 4f2:	610c                	ld	a1,0(a0)
 4f4:	4601                	li	a2,0
 4f6:	86b2                	mv	a3,a2
 4f8:	872e                	mv	a4,a1
 4fa:	e9ba                	sd	a4,208(sp)
 4fc:	e5b6                	sd	a3,200(sp)
 4fe:	04c59b63          	bne	a1,a2,554 <_ZN4core3fmt9Formatter3pad17h946adb8f77146580E+0x554>
 502:	a009                	j	504 <_ZN4core3fmt9Formatter3pad17h946adb8f77146580E+0x504>
 504:	30013503          	ld	a0,768(sp)
 508:	7108                	ld	a0,32(a0)
 50a:	30013583          	ld	a1,768(sp)
 50e:	7590                	ld	a2,40(a1)
 510:	6e10                	ld	a2,24(a2)
 512:	75b2                	ld	a1,296(sp)
 514:	7692                	ld	a3,288(sp)
 516:	e1b2                	sd	a2,192(sp)
 518:	8636                	mv	a2,a3
 51a:	670e                	ld	a4,192(sp)
 51c:	9702                	jalr	a4
 51e:	2ca13823          	sd	a0,720(sp)
 522:	a249                	j	6a4 <_ZN4core3fmt9Formatter3pad17h946adb8f77146580E+0x6a4>
 524:	656e                	ld	a0,216(sp)
 526:	758e                	ld	a1,224(sp)
 528:	00150613          	addi	a2,a0,1
 52c:	00054503          	lbu	a0,0(a0)
 530:	0c057513          	andi	a0,a0,192
 534:	f8050513          	addi	a0,a0,-128
 538:	00153513          	seqz	a0,a0
 53c:	952e                	add	a0,a0,a1
 53e:	85aa                	mv	a1,a0
 540:	86b2                	mv	a3,a2
 542:	772e                	ld	a4,232(sp)
 544:	67b2                	ld	a5,264(sp)
 546:	edb6                	sd	a3,216(sp)
 548:	f1ae                	sd	a1,224(sp)
 54a:	e9ba                	sd	a4,208(sp)
 54c:	e5aa                	sd	a0,200(sp)
 54e:	fcf61be3          	bne	a2,a5,524 <_ZN4core3fmt9Formatter3pad17h946adb8f77146580E+0x524>
 552:	a009                	j	554 <_ZN4core3fmt9Formatter3pad17h946adb8f77146580E+0x554>
 554:	652e                	ld	a0,200(sp)
 556:	65ce                	ld	a1,208(sp)
 558:	7612                	ld	a2,288(sp)
 55a:	8d11                	sub	a0,a0,a2
 55c:	952e                	add	a0,a0,a1
 55e:	30013583          	ld	a1,768(sp)
 562:	0385c683          	lbu	a3,56(a1)
 566:	4701                	li	a4,0
 568:	478d                	li	a5,3
 56a:	883a                	mv	a6,a4
 56c:	fd2a                	sd	a0,184(sp)
 56e:	f936                	sd	a3,176(sp)
 570:	f53a                	sd	a4,168(sp)
 572:	f142                	sd	a6,160(sp)
 574:	00f68463          	beq	a3,a5,57c <_ZN4core3fmt9Formatter3pad17h946adb8f77146580E+0x57c>
 578:	754a                	ld	a0,176(sp)
 57a:	f12a                	sd	a0,160(sp)
 57c:	750a                	ld	a0,160(sp)
 57e:	00357593          	andi	a1,a0,3
 582:	762a                	ld	a2,168(sp)
 584:	4689                	li	a3,2
 586:	ed2a                	sd	a0,152(sp)
 588:	e932                	sd	a2,144(sp)
 58a:	02d58663          	beq	a1,a3,5b6 <_ZN4core3fmt9Formatter3pad17h946adb8f77146580E+0x5b6>
 58e:	a009                	j	590 <_ZN4core3fmt9Formatter3pad17h946adb8f77146580E+0x590>
 590:	656a                	ld	a0,152(sp)
 592:	00357593          	andi	a1,a0,3
 596:	460d                	li	a2,3
 598:	02c58963          	beq	a1,a2,5ca <_ZN4core3fmt9Formatter3pad17h946adb8f77146580E+0x5ca>
 59c:	a009                	j	59e <_ZN4core3fmt9Formatter3pad17h946adb8f77146580E+0x59e>
 59e:	656a                	ld	a0,152(sp)
 5a0:	00357593          	andi	a1,a0,3
 5a4:	4601                	li	a2,0
 5a6:	76ea                	ld	a3,184(sp)
 5a8:	674a                	ld	a4,144(sp)
 5aa:	e536                	sd	a3,136(sp)
 5ac:	e13a                	sd	a4,128(sp)
 5ae:	02c58363          	beq	a1,a2,5d4 <_ZN4core3fmt9Formatter3pad17h946adb8f77146580E+0x5d4>
 5b2:	a009                	j	5b4 <_ZN4core3fmt9Formatter3pad17h946adb8f77146580E+0x5b4>
 5b4:	a819                	j	5ca <_ZN4core3fmt9Formatter3pad17h946adb8f77146580E+0x5ca>
 5b6:	756a                	ld	a0,184(sp)
 5b8:	00155593          	srli	a1,a0,0x1
 5bc:	00150613          	addi	a2,a0,1
 5c0:	8205                	srli	a2,a2,0x1
 5c2:	e532                	sd	a2,136(sp)
 5c4:	e12e                	sd	a1,128(sp)
 5c6:	a039                	j	5d4 <_ZN4core3fmt9Formatter3pad17h946adb8f77146580E+0x5d4>
 5c8:	0000                	unimp
 5ca:	4501                	li	a0,0
 5cc:	75ea                	ld	a1,184(sp)
 5ce:	e52a                	sd	a0,136(sp)
 5d0:	e12e                	sd	a1,128(sp)
 5d2:	a009                	j	5d4 <_ZN4core3fmt9Formatter3pad17h946adb8f77146580E+0x5d4>
 5d4:	650a                	ld	a0,128(sp)
 5d6:	65aa                	ld	a1,136(sp)
 5d8:	30013603          	ld	a2,768(sp)
 5dc:	02060693          	addi	a3,a2,32
 5e0:	02860713          	addi	a4,a2,40
 5e4:	87ba                	mv	a5,a4
 5e6:	03460813          	addi	a6,a2,52
 5ea:	4881                	li	a7,0
 5ec:	fcaa                	sd	a0,120(sp)
 5ee:	f8ae                	sd	a1,112(sp)
 5f0:	f4b6                	sd	a3,104(sp)
 5f2:	f0ba                	sd	a4,96(sp)
 5f4:	ecbe                	sd	a5,88(sp)
 5f6:	e8c2                	sd	a6,80(sp)
 5f8:	e4c6                	sd	a7,72(sp)
 5fa:	a009                	j	5fc <_ZN4core3fmt9Formatter3pad17h946adb8f77146580E+0x5fc>
 5fc:	6526                	ld	a0,72(sp)
 5fe:	75e6                	ld	a1,120(sp)
 600:	e0aa                	sd	a0,64(sp)
 602:	02b50863          	beq	a0,a1,632 <_ZN4core3fmt9Formatter3pad17h946adb8f77146580E+0x632>
 606:	a009                	j	608 <_ZN4core3fmt9Formatter3pad17h946adb8f77146580E+0x608>
 608:	6506                	ld	a0,64(sp)
 60a:	00150593          	addi	a1,a0,1
 60e:	7626                	ld	a2,104(sp)
 610:	6208                	ld	a0,0(a2)
 612:	66e6                	ld	a3,88(sp)
 614:	6298                	ld	a4,0(a3)
 616:	7318                	ld	a4,32(a4)
 618:	67c6                	ld	a5,80(sp)
 61a:	0007a803          	lw	a6,0(a5) # 110000 <.LBB135_45+0x10fcbe>
 61e:	fc2e                	sd	a1,56(sp)
 620:	85c2                	mv	a1,a6
 622:	9702                	jalr	a4
 624:	4585                	li	a1,1
 626:	7662                	ld	a2,56(sp)
 628:	e4b2                	sd	a2,72(sp)
 62a:	2cb13823          	sd	a1,720(sp)
 62e:	e93d                	bnez	a0,6a4 <_ZN4core3fmt9Formatter3pad17h946adb8f77146580E+0x6a4>
 630:	b7f1                	j	5fc <_ZN4core3fmt9Formatter3pad17h946adb8f77146580E+0x5fc>
 632:	6546                	ld	a0,80(sp)
 634:	00056583          	lwu	a1,0(a0)
 638:	7626                	ld	a2,104(sp)
 63a:	6208                	ld	a0,0(a2)
 63c:	7686                	ld	a3,96(sp)
 63e:	6298                	ld	a4,0(a3)
 640:	6f18                	ld	a4,24(a4)
 642:	77b2                	ld	a5,296(sp)
 644:	f82e                	sd	a1,48(sp)
 646:	85be                	mv	a1,a5
 648:	7612                	ld	a2,288(sp)
 64a:	9702                	jalr	a4
 64c:	4585                	li	a1,1
 64e:	2cb13823          	sd	a1,720(sp)
 652:	e929                	bnez	a0,6a4 <_ZN4core3fmt9Formatter3pad17h946adb8f77146580E+0x6a4>
 654:	a009                	j	656 <_ZN4core3fmt9Formatter3pad17h946adb8f77146580E+0x656>
 656:	7526                	ld	a0,104(sp)
 658:	6108                	ld	a0,0(a0)
 65a:	7586                	ld	a1,96(sp)
 65c:	6190                	ld	a2,0(a1)
 65e:	02060613          	addi	a2,a2,32
 662:	4681                	li	a3,0
 664:	f42a                	sd	a0,40(sp)
 666:	f032                	sd	a2,32(sp)
 668:	ec36                	sd	a3,24(sp)
 66a:	a009                	j	66c <_ZN4core3fmt9Formatter3pad17h946adb8f77146580E+0x66c>
 66c:	6562                	ld	a0,24(sp)
 66e:	4581                	li	a1,0
 670:	7646                	ld	a2,112(sp)
 672:	e82a                	sd	a0,16(sp)
 674:	2cb13823          	sd	a1,720(sp)
 678:	02c50663          	beq	a0,a2,6a4 <_ZN4core3fmt9Formatter3pad17h946adb8f77146580E+0x6a4>
 67c:	a009                	j	67e <_ZN4core3fmt9Formatter3pad17h946adb8f77146580E+0x67e>
 67e:	6542                	ld	a0,16(sp)
 680:	00150593          	addi	a1,a0,1
 684:	7602                	ld	a2,32(sp)
 686:	6214                	ld	a3,0(a2)
 688:	7522                	ld	a0,40(sp)
 68a:	7742                	ld	a4,48(sp)
 68c:	e42e                	sd	a1,8(sp)
 68e:	85ba                	mv	a1,a4
 690:	9682                	jalr	a3
 692:	4585                	li	a1,1
 694:	4601                	li	a2,0
 696:	66a2                	ld	a3,8(sp)
 698:	ec36                	sd	a3,24(sp)
 69a:	2cb13823          	sd	a1,720(sp)
 69e:	fcc507e3          	beq	a0,a2,66c <_ZN4core3fmt9Formatter3pad17h946adb8f77146580E+0x66c>
 6a2:	a009                	j	6a4 <_ZN4core3fmt9Formatter3pad17h946adb8f77146580E+0x6a4>
 6a4:	2d013503          	ld	a0,720(sp)
 6a8:	31813083          	ld	ra,792(sp)
 6ac:	32010113          	addi	sp,sp,800
 6b0:	8082                	ret

Disassembly of section .text._ZN4core3fmt5write17hfdbb7c2670a3d940E:

0000000000000000 <_ZN4core3fmt5write17hfdbb7c2670a3d940E>:
   0:	da010113          	addi	sp,sp,-608
   4:	24113c23          	sd	ra,600(sp)
   8:	0c34                	addi	a3,sp,536
   a:	03068713          	addi	a4,a3,48 # 1c0030 <.LBB135_45+0x1bfcee>
   e:	4785                	li	a5,1
  10:	1796                	slli	a5,a5,0x25
  12:	24f13423          	sd	a5,584(sp)
  16:	03468793          	addi	a5,a3,52
  1a:	03868813          	addi	a6,a3,56
  1e:	488d                	li	a7,3
  20:	25110823          	sb	a7,592(sp)
  24:	88b6                	mv	a7,a3
  26:	4281                	li	t0,0
  28:	20513c23          	sd	t0,536(sp)
  2c:	01068313          	addi	t1,a3,16
  30:	22513423          	sd	t0,552(sp)
  34:	02068393          	addi	t2,a3,32
  38:	22a13c23          	sd	a0,568(sp)
  3c:	02868693          	addi	a3,a3,40
  40:	24b13023          	sd	a1,576(sp)
  44:	01063e03          	ld	t3,16(a2)
  48:	8ef2                	mv	t4,t3
  4a:	20c13823          	sd	a2,528(sp)
  4e:	20b13423          	sd	a1,520(sp)
  52:	20a13023          	sd	a0,512(sp)
  56:	ffba                	sd	a4,504(sp)
  58:	fbbe                	sd	a5,496(sp)
  5a:	f7c2                	sd	a6,488(sp)
  5c:	f3c6                	sd	a7,480(sp)
  5e:	ef9a                	sd	t1,472(sp)
  60:	eb9e                	sd	t2,464(sp)
  62:	e7b6                	sd	a3,456(sp)
  64:	e3f2                	sd	t3,448(sp)
  66:	ff76                	sd	t4,440(sp)
  68:	085e0d63          	beq	t3,t0,102 <_ZN4core3fmt5write17hfdbb7c2670a3d940E+0x102>
  6c:	a009                	j	6e <_ZN4core3fmt5write17hfdbb7c2670a3d940E+0x6e>
  6e:	21013503          	ld	a0,528(sp)
  72:	6d0c                	ld	a1,24(a0)
  74:	6110                	ld	a2,0(a0)
  76:	86b2                	mv	a3,a2
  78:	6518                	ld	a4,8(a0)
  7a:	87ba                	mv	a5,a4
  7c:	fb2e                	sd	a1,432(sp)
  7e:	f732                	sd	a2,424(sp)
  80:	f336                	sd	a3,416(sp)
  82:	ef3a                	sd	a4,408(sp)
  84:	eb3e                	sd	a5,400(sp)
  86:	00b76463          	bltu	a4,a1,8e <_ZN4core3fmt5write17hfdbb7c2670a3d940E+0x8e>
  8a:	755a                	ld	a0,432(sp)
  8c:	eb2a                	sd	a0,400(sp)
  8e:	655a                	ld	a0,400(sp)
  90:	4581                	li	a1,0
  92:	862e                	mv	a2,a1
  94:	66fa                	ld	a3,408(sp)
  96:	773a                	ld	a4,424(sp)
  98:	e72a                	sd	a0,392(sp)
  9a:	e336                	sd	a3,384(sp)
  9c:	feba                	sd	a4,376(sp)
  9e:	fab2                	sd	a2,368(sp)
  a0:	32b50963          	beq	a0,a1,3d2 <.LBB135_45+0x90>
  a4:	a009                	j	a6 <_ZN4core3fmt5write17hfdbb7c2670a3d940E+0xa6>
  a6:	653e                	ld	a0,456(sp)
  a8:	21013583          	ld	a1,528(sp)
  ac:	02058613          	addi	a2,a1,32
  b0:	02858693          	addi	a3,a1,40
  b4:	0c38                	addi	a4,sp,536
  b6:	00870793          	addi	a5,a4,8 # 1c0008 <.LBB135_45+0x1bfcc6>
  ba:	0761                	addi	a4,a4,24
  bc:	781a                	ld	a6,416(sp)
  be:	00083583          	ld	a1,0(a6)
  c2:	00883883          	ld	a7,8(a6)
  c6:	20813283          	ld	t0,520(sp)
  ca:	0182b303          	ld	t1,24(t0)
  ce:	20013383          	ld	t2,512(sp)
  d2:	f6aa                	sd	a0,360(sp)
  d4:	851e                	mv	a0,t2
  d6:	f2b2                	sd	a2,352(sp)
  d8:	8646                	mv	a2,a7
  da:	eeb6                	sd	a3,344(sp)
  dc:	eabe                	sd	a5,336(sp)
  de:	e6ba                	sd	a4,328(sp)
  e0:	9302                	jalr	t1
  e2:	32051563          	bnez	a0,40c <.LBB135_45+0xca>
  e6:	a009                	j	e8 <_ZN4core3fmt5write17hfdbb7c2670a3d940E+0xe8>
  e8:	757a                	ld	a0,440(sp)
  ea:	7596                	ld	a1,352(sp)
  ec:	6190                	ld	a2,0(a1)
  ee:	66f6                	ld	a3,344(sp)
  f0:	6298                	ld	a4,0(a3)
  f2:	4781                	li	a5,0
  f4:	4805                	li	a6,1
  f6:	e2b2                	sd	a2,320(sp)
  f8:	fe3a                	sd	a4,312(sp)
  fa:	fa2a                	sd	a0,304(sp)
  fc:	f642                	sd	a6,296(sp)
  fe:	f23e                	sd	a5,288(sp)
 100:	a0f1                	j	1cc <_ZN4core3fmt5write17hfdbb7c2670a3d940E+0x1cc>
 102:	21013503          	ld	a0,528(sp)
 106:	710c                	ld	a1,32(a0)
 108:	7510                	ld	a2,40(a0)
 10a:	6114                	ld	a3,0(a0)
 10c:	8736                	mv	a4,a3
 10e:	651c                	ld	a5,8(a0)
 110:	883e                	mv	a6,a5
 112:	ee2e                	sd	a1,280(sp)
 114:	ea32                	sd	a2,272(sp)
 116:	e636                	sd	a3,264(sp)
 118:	e23a                	sd	a4,256(sp)
 11a:	fdbe                	sd	a5,248(sp)
 11c:	f9c2                	sd	a6,240(sp)
 11e:	00c7e463          	bltu	a5,a2,126 <_ZN4core3fmt5write17hfdbb7c2670a3d940E+0x126>
 122:	6552                	ld	a0,272(sp)
 124:	f9aa                	sd	a0,240(sp)
 126:	754e                	ld	a0,240(sp)
 128:	4581                	li	a1,0
 12a:	862e                	mv	a2,a1
 12c:	76ee                	ld	a3,248(sp)
 12e:	6732                	ld	a4,264(sp)
 130:	f5aa                	sd	a0,232(sp)
 132:	e336                	sd	a3,384(sp)
 134:	feba                	sd	a4,376(sp)
 136:	fab2                	sd	a2,368(sp)
 138:	28b50d63          	beq	a0,a1,3d2 <.LBB135_45+0x90>
 13c:	a009                	j	13e <_ZN4core3fmt5write17hfdbb7c2670a3d940E+0x13e>
 13e:	653e                	ld	a0,456(sp)
 140:	6592                	ld	a1,256(sp)
 142:	618c                	ld	a1,0(a1)
 144:	6612                	ld	a2,256(sp)
 146:	6610                	ld	a2,8(a2)
 148:	20813683          	ld	a3,520(sp)
 14c:	6e98                	ld	a4,24(a3)
 14e:	20013783          	ld	a5,512(sp)
 152:	f1aa                	sd	a0,224(sp)
 154:	853e                	mv	a0,a5
 156:	9702                	jalr	a4
 158:	4581                	li	a1,0
 15a:	4605                	li	a2,1
 15c:	edb2                	sd	a2,216(sp)
 15e:	e9ae                	sd	a1,208(sp)
 160:	2a051663          	bnez	a0,40c <.LBB135_45+0xca>
 164:	a009                	j	166 <_ZN4core3fmt5write17hfdbb7c2670a3d940E+0x166>
 166:	654e                	ld	a0,208(sp)
 168:	65ee                	ld	a1,216(sp)
 16a:	0512                	slli	a0,a0,0x4
 16c:	6672                	ld	a2,280(sp)
 16e:	9532                	add	a0,a0,a2
 170:	6514                	ld	a3,8(a0)
 172:	6108                	ld	a0,0(a0)
 174:	0c38                	addi	a4,sp,536
 176:	e5ae                	sd	a1,200(sp)
 178:	85ba                	mv	a1,a4
 17a:	9682                	jalr	a3
 17c:	28051863          	bnez	a0,40c <.LBB135_45+0xca>
 180:	a009                	j	182 <_ZN4core3fmt5write17hfdbb7c2670a3d940E+0x182>
 182:	756e                	ld	a0,248(sp)
 184:	65b2                	ld	a1,264(sp)
 186:	762e                	ld	a2,232(sp)
 188:	66ae                	ld	a3,200(sp)
 18a:	772e                	ld	a4,232(sp)
 18c:	e32a                	sd	a0,384(sp)
 18e:	feae                	sd	a1,376(sp)
 190:	fab2                	sd	a2,368(sp)
 192:	24e68063          	beq	a3,a4,3d2 <.LBB135_45+0x90>
 196:	a009                	j	198 <_ZN4core3fmt5write17hfdbb7c2670a3d940E+0x198>
 198:	655e                	ld	a0,464(sp)
 19a:	6108                	ld	a0,0(a0)
 19c:	758e                	ld	a1,224(sp)
 19e:	6190                	ld	a2,0(a1)
 1a0:	66ae                	ld	a3,200(sp)
 1a2:	00168713          	addi	a4,a3,1
 1a6:	00469793          	slli	a5,a3,0x4
 1aa:	6812                	ld	a6,256(sp)
 1ac:	97c2                	add	a5,a5,a6
 1ae:	638c                	ld	a1,0(a5)
 1b0:	679c                	ld	a5,8(a5)
 1b2:	6e10                	ld	a2,24(a2)
 1b4:	e1b2                	sd	a2,192(sp)
 1b6:	863e                	mv	a2,a5
 1b8:	678e                	ld	a5,192(sp)
 1ba:	fd3a                	sd	a4,184(sp)
 1bc:	9782                	jalr	a5
 1be:	75ea                	ld	a1,184(sp)
 1c0:	662e                	ld	a2,200(sp)
 1c2:	edae                	sd	a1,216(sp)
 1c4:	e9b2                	sd	a2,208(sp)
 1c6:	24051363          	bnez	a0,40c <.LBB135_45+0xca>
 1ca:	bf71                	j	166 <_ZN4core3fmt5write17hfdbb7c2670a3d940E+0x166>
 1cc:	7512                	ld	a0,288(sp)
 1ce:	75b2                	ld	a1,296(sp)
 1d0:	7652                	ld	a2,304(sp)
 1d2:	03800693          	li	a3,56
 1d6:	02d506b3          	mul	a3,a0,a3
 1da:	671e                	ld	a4,448(sp)
 1dc:	96ba                	add	a3,a3,a4
 1de:	569c                	lw	a5,40(a3)
 1e0:	785e                	ld	a6,496(sp)
 1e2:	00f82023          	sw	a5,0(a6)
 1e6:	03068783          	lb	a5,48(a3)
 1ea:	78be                	ld	a7,488(sp)
 1ec:	00f88023          	sb	a5,0(a7)
 1f0:	565c                	lw	a5,44(a2)
 1f2:	72fe                	ld	t0,504(sp)
 1f4:	00f2a023          	sw	a5,0(t0)
 1f8:	6e9c                	ld	a5,24(a3)
 1fa:	7294                	ld	a3,32(a3)
 1fc:	4301                	li	t1,0
 1fe:	839a                	mv	t2,t1
 200:	f92a                	sd	a0,176(sp)
 202:	f52e                	sd	a1,168(sp)
 204:	f132                	sd	a2,160(sp)
 206:	ed3e                	sd	a5,152(sp)
 208:	e936                	sd	a3,144(sp)
 20a:	e51e                	sd	t2,136(sp)
 20c:	02678263          	beq	a5,t1,230 <_ZN4core3fmt5write17hfdbb7c2670a3d940E+0x230>
 210:	a009                	j	212 <_ZN4core3fmt5write17hfdbb7c2670a3d940E+0x212>
 212:	4505                	li	a0,1
 214:	65ea                	ld	a1,152(sp)
 216:	00a58763          	beq	a1,a0,224 <_ZN4core3fmt5write17hfdbb7c2670a3d940E+0x224>
 21a:	a009                	j	21c <_ZN4core3fmt5write17hfdbb7c2670a3d940E+0x21c>
 21c:	65aa                	ld	a1,136(sp)
 21e:	e12a                	sd	a0,128(sp)
 220:	fcae                	sd	a1,120(sp)
 222:	a095                	j	286 <.LBB135_42+0x16>
 224:	654a                	ld	a0,144(sp)
 226:	75f2                	ld	a1,312(sp)
 228:	00b56963          	bltu	a0,a1,23a <_ZN4core3fmt5write17hfdbb7c2670a3d940E+0x23a>
 22c:	a091                	j	270 <.LBB135_42>
 22e:	0000                	unimp
 230:	4505                	li	a0,1
 232:	65ca                	ld	a1,144(sp)
 234:	e12e                	sd	a1,128(sp)
 236:	fcaa                	sd	a0,120(sp)
 238:	a0b9                	j	286 <.LBB135_42+0x16>
 23a:	654a                	ld	a0,144(sp)
 23c:	00451593          	slli	a1,a0,0x4
 240:	6616                	ld	a2,320(sp)
 242:	95b2                	add	a1,a1,a2
 244:	658c                	ld	a1,8(a1)
 246:	4681                	li	a3,0

0000000000000248 <.LBB135_41>:
 248:	00000717          	auipc	a4,0x0
 24c:	00070713          	mv	a4,a4
 250:	e13e                	sd	a5,128(sp)
 252:	fcb6                	sd	a3,120(sp)
 254:	02e59963          	bne	a1,a4,286 <.LBB135_42+0x16>
 258:	a009                	j	25a <.LBB135_41+0x12>
 25a:	654a                	ld	a0,144(sp)
 25c:	00451593          	slli	a1,a0,0x4
 260:	6616                	ld	a2,320(sp)
 262:	95b2                	add	a1,a1,a2
 264:	618c                	ld	a1,0(a1)
 266:	618c                	ld	a1,0(a1)
 268:	4685                	li	a3,1
 26a:	e12e                	sd	a1,128(sp)
 26c:	fcb6                	sd	a3,120(sp)
 26e:	a821                	j	286 <.LBB135_42+0x16>

0000000000000270 <.LBB135_42>:
 270:	00000617          	auipc	a2,0x0
 274:	00060613          	mv	a2,a2
 278:	654a                	ld	a0,144(sp)
 27a:	75f2                	ld	a1,312(sp)
 27c:	00000097          	auipc	ra,0x0
 280:	000080e7          	jalr	ra # 27c <.LBB135_42+0xc>
 284:	0000                	unimp
 286:	7566                	ld	a0,120(sp)
 288:	658a                	ld	a1,128(sp)
 28a:	761e                	ld	a2,480(sp)
 28c:	e208                	sd	a0,0(a2)
 28e:	6556                	ld	a0,336(sp)
 290:	e10c                	sd	a1,0(a0)
 292:	03800593          	li	a1,56
 296:	76ca                	ld	a3,176(sp)
 298:	02b685b3          	mul	a1,a3,a1
 29c:	671e                	ld	a4,448(sp)
 29e:	95ba                	add	a1,a1,a4
 2a0:	659c                	ld	a5,8(a1)
 2a2:	698c                	ld	a1,16(a1)
 2a4:	4801                	li	a6,0
 2a6:	88c2                	mv	a7,a6
 2a8:	f8be                	sd	a5,112(sp)
 2aa:	f4ae                	sd	a1,104(sp)
 2ac:	f0c6                	sd	a7,96(sp)
 2ae:	03078263          	beq	a5,a6,2d2 <.LBB135_42+0x62>
 2b2:	a009                	j	2b4 <.LBB135_42+0x44>
 2b4:	4505                	li	a0,1
 2b6:	75c6                	ld	a1,112(sp)
 2b8:	00a58763          	beq	a1,a0,2c6 <.LBB135_42+0x56>
 2bc:	a009                	j	2be <.LBB135_42+0x4e>
 2be:	7586                	ld	a1,96(sp)
 2c0:	ecaa                	sd	a0,88(sp)
 2c2:	e8ae                	sd	a1,80(sp)
 2c4:	a095                	j	328 <.LBB135_44+0x16>
 2c6:	7526                	ld	a0,104(sp)
 2c8:	75f2                	ld	a1,312(sp)
 2ca:	00b56963          	bltu	a0,a1,2dc <.LBB135_42+0x6c>
 2ce:	a091                	j	312 <.LBB135_44>
 2d0:	0000                	unimp
 2d2:	4505                	li	a0,1
 2d4:	75a6                	ld	a1,104(sp)
 2d6:	ecae                	sd	a1,88(sp)
 2d8:	e8aa                	sd	a0,80(sp)
 2da:	a0b9                	j	328 <.LBB135_44+0x16>
 2dc:	7526                	ld	a0,104(sp)
 2de:	00451593          	slli	a1,a0,0x4
 2e2:	6616                	ld	a2,320(sp)
 2e4:	95b2                	add	a1,a1,a2
 2e6:	658c                	ld	a1,8(a1)
 2e8:	4681                	li	a3,0

00000000000002ea <.LBB135_43>:
 2ea:	00000717          	auipc	a4,0x0
 2ee:	00070713          	mv	a4,a4
 2f2:	ecbe                	sd	a5,88(sp)
 2f4:	e8b6                	sd	a3,80(sp)
 2f6:	02e59963          	bne	a1,a4,328 <.LBB135_44+0x16>
 2fa:	a009                	j	2fc <.LBB135_43+0x12>
 2fc:	7526                	ld	a0,104(sp)
 2fe:	00451593          	slli	a1,a0,0x4
 302:	6616                	ld	a2,320(sp)
 304:	95b2                	add	a1,a1,a2
 306:	618c                	ld	a1,0(a1)
 308:	618c                	ld	a1,0(a1)
 30a:	4685                	li	a3,1
 30c:	ecae                	sd	a1,88(sp)
 30e:	e8b6                	sd	a3,80(sp)
 310:	a821                	j	328 <.LBB135_44+0x16>

0000000000000312 <.LBB135_44>:
 312:	00000617          	auipc	a2,0x0
 316:	00060613          	mv	a2,a2
 31a:	7526                	ld	a0,104(sp)
 31c:	75f2                	ld	a1,312(sp)
 31e:	00000097          	auipc	ra,0x0
 322:	000080e7          	jalr	ra # 31e <.LBB135_44+0xc>
 326:	0000                	unimp
 328:	6546                	ld	a0,80(sp)
 32a:	65e6                	ld	a1,88(sp)
 32c:	667e                	ld	a2,472(sp)
 32e:	e208                	sd	a0,0(a2)
 330:	6536                	ld	a0,328(sp)
 332:	e10c                	sd	a1,0(a0)
 334:	758a                	ld	a1,160(sp)
 336:	6194                	ld	a3,0(a1)
 338:	7772                	ld	a4,312(sp)
 33a:	e4b6                	sd	a3,72(sp)
 33c:	00e6ee63          	bltu	a3,a4,358 <.LBB135_45+0x16>
 340:	a009                	j	342 <.LBB135_45>

0000000000000342 <.LBB135_45>:
 342:	00000617          	auipc	a2,0x0
 346:	00060613          	mv	a2,a2
 34a:	6526                	ld	a0,72(sp)
 34c:	75f2                	ld	a1,312(sp)
 34e:	00000097          	auipc	ra,0x0
 352:	000080e7          	jalr	ra # 34e <.LBB135_45+0xc>
 356:	0000                	unimp
 358:	6526                	ld	a0,72(sp)
 35a:	00451593          	slli	a1,a0,0x4
 35e:	6616                	ld	a2,320(sp)
 360:	95b2                	add	a1,a1,a2
 362:	6188                	ld	a0,0(a1)
 364:	658c                	ld	a1,8(a1)
 366:	0c34                	addi	a3,sp,536
 368:	e0ae                	sd	a1,64(sp)
 36a:	85b6                	mv	a1,a3
 36c:	6686                	ld	a3,64(sp)
 36e:	9682                	jalr	a3
 370:	ed51                	bnez	a0,40c <.LBB135_45+0xca>
 372:	a009                	j	374 <.LBB135_45+0x32>
 374:	657a                	ld	a0,408(sp)
 376:	75ba                	ld	a1,424(sp)
 378:	663a                	ld	a2,392(sp)
 37a:	76aa                	ld	a3,168(sp)
 37c:	673a                	ld	a4,392(sp)
 37e:	e32a                	sd	a0,384(sp)
 380:	feae                	sd	a1,376(sp)
 382:	fab2                	sd	a2,368(sp)
 384:	04e68763          	beq	a3,a4,3d2 <.LBB135_45+0x90>
 388:	a009                	j	38a <.LBB135_45+0x48>
 38a:	655e                	ld	a0,464(sp)
 38c:	6108                	ld	a0,0(a0)
 38e:	75b6                	ld	a1,360(sp)
 390:	6190                	ld	a2,0(a1)
 392:	76aa                	ld	a3,168(sp)
 394:	00168713          	addi	a4,a3,1
 398:	03800793          	li	a5,56
 39c:	02f687b3          	mul	a5,a3,a5
 3a0:	681e                	ld	a6,448(sp)
 3a2:	97c2                	add	a5,a5,a6
 3a4:	00469893          	slli	a7,a3,0x4
 3a8:	729a                	ld	t0,416(sp)
 3aa:	9896                	add	a7,a7,t0
 3ac:	0008b583          	ld	a1,0(a7)
 3b0:	0088b883          	ld	a7,8(a7)
 3b4:	6e10                	ld	a2,24(a2)
 3b6:	fc32                	sd	a2,56(sp)
 3b8:	8646                	mv	a2,a7
 3ba:	78e2                	ld	a7,56(sp)
 3bc:	f83a                	sd	a4,48(sp)
 3be:	f43e                	sd	a5,40(sp)
 3c0:	9882                	jalr	a7
 3c2:	75a2                	ld	a1,40(sp)
 3c4:	7642                	ld	a2,48(sp)
 3c6:	76aa                	ld	a3,168(sp)
 3c8:	fa2e                	sd	a1,304(sp)
 3ca:	f632                	sd	a2,296(sp)
 3cc:	f236                	sd	a3,288(sp)
 3ce:	ed1d                	bnez	a0,40c <.LBB135_45+0xca>
 3d0:	bbf5                	j	1cc <_ZN4core3fmt5write17hfdbb7c2670a3d940E+0x1cc>
 3d2:	7556                	ld	a0,368(sp)
 3d4:	75f6                	ld	a1,376(sp)
 3d6:	661a                	ld	a2,384(sp)
 3d8:	f02a                	sd	a0,32(sp)
 3da:	ec2e                	sd	a1,24(sp)
 3dc:	02c57563          	bgeu	a0,a2,406 <.LBB135_45+0xc4>
 3e0:	a009                	j	3e2 <.LBB135_45+0xa0>
 3e2:	655e                	ld	a0,464(sp)
 3e4:	6108                	ld	a0,0(a0)
 3e6:	65be                	ld	a1,456(sp)
 3e8:	6190                	ld	a2,0(a1)
 3ea:	7682                	ld	a3,32(sp)
 3ec:	00469713          	slli	a4,a3,0x4
 3f0:	67e2                	ld	a5,24(sp)
 3f2:	973e                	add	a4,a4,a5
 3f4:	630c                	ld	a1,0(a4)
 3f6:	6718                	ld	a4,8(a4)
 3f8:	6e10                	ld	a2,24(a2)
 3fa:	e832                	sd	a2,16(sp)
 3fc:	863a                	mv	a2,a4
 3fe:	6742                	ld	a4,16(sp)
 400:	9702                	jalr	a4
 402:	e509                	bnez	a0,40c <.LBB135_45+0xca>
 404:	a009                	j	406 <.LBB135_45+0xc4>
 406:	4501                	li	a0,0
 408:	e42a                	sd	a0,8(sp)
 40a:	a021                	j	412 <.LBB135_45+0xd0>
 40c:	4505                	li	a0,1
 40e:	e42a                	sd	a0,8(sp)
 410:	a009                	j	412 <.LBB135_45+0xd0>
 412:	6522                	ld	a0,8(sp)
 414:	25813083          	ld	ra,600(sp)
 418:	26010113          	addi	sp,sp,608
 41c:	8082                	ret

Disassembly of section .text._ZN4core5slice5index26slice_start_index_len_fail17h05c3c4676f0d0355E:

0000000000000000 <_ZN4core5slice5index26slice_start_index_len_fail17h05c3c4676f0d0355E>:
   0:	7159                	addi	sp,sp,-112
   2:	f486                	sd	ra,104(sp)
   4:	e42a                	sd	a0,8(sp)
   6:	e82e                	sd	a1,16(sp)
   8:	0028                	addi	a0,sp,8
   a:	e4aa                	sd	a0,72(sp)

000000000000000c <.LBB136_1>:
   c:	00000517          	auipc	a0,0x0
  10:	00050513          	mv	a0,a0
  14:	e8aa                	sd	a0,80(sp)
  16:	080c                	addi	a1,sp,16
  18:	ecae                	sd	a1,88(sp)
  1a:	f0aa                	sd	a0,96(sp)

000000000000001c <.LBB136_2>:
  1c:	00000517          	auipc	a0,0x0
  20:	00050513          	mv	a0,a0
  24:	ec2a                	sd	a0,24(sp)
  26:	4509                	li	a0,2
  28:	f02a                	sd	a0,32(sp)
  2a:	4581                	li	a1,0
  2c:	f42e                	sd	a1,40(sp)
  2e:	00ac                	addi	a1,sp,72
  30:	fc2e                	sd	a1,56(sp)
  32:	e0aa                	sd	a0,64(sp)
  34:	0828                	addi	a0,sp,24
  36:	85b2                	mv	a1,a2
  38:	00000097          	auipc	ra,0x0
  3c:	000080e7          	jalr	ra # 38 <.LBB136_2+0x1c>
	...

Disassembly of section .text._ZN4core5slice5index22slice_index_order_fail17h5557fc1adefafaafE:

0000000000000000 <_ZN4core5slice5index22slice_index_order_fail17h5557fc1adefafaafE>:
   0:	7159                	addi	sp,sp,-112
   2:	f486                	sd	ra,104(sp)
   4:	e42a                	sd	a0,8(sp)
   6:	e82e                	sd	a1,16(sp)
   8:	0028                	addi	a0,sp,8
   a:	e4aa                	sd	a0,72(sp)

000000000000000c <.LBB137_1>:
   c:	00000517          	auipc	a0,0x0
  10:	00050513          	mv	a0,a0
  14:	e8aa                	sd	a0,80(sp)
  16:	080c                	addi	a1,sp,16
  18:	ecae                	sd	a1,88(sp)
  1a:	f0aa                	sd	a0,96(sp)

000000000000001c <.LBB137_2>:
  1c:	00000517          	auipc	a0,0x0
  20:	00050513          	mv	a0,a0
  24:	ec2a                	sd	a0,24(sp)
  26:	4509                	li	a0,2
  28:	f02a                	sd	a0,32(sp)
  2a:	4581                	li	a1,0
  2c:	f42e                	sd	a1,40(sp)
  2e:	00ac                	addi	a1,sp,72
  30:	fc2e                	sd	a1,56(sp)
  32:	e0aa                	sd	a0,64(sp)
  34:	0828                	addi	a0,sp,24
  36:	85b2                	mv	a1,a2
  38:	00000097          	auipc	ra,0x0
  3c:	000080e7          	jalr	ra # 38 <.LBB137_2+0x1c>
	...

Disassembly of section .text._ZN4core5panic9PanicInfo7message17h7e06d7c4da9bb8fbE:

0000000000000000 <_ZN4core5panic9PanicInfo7message17h7e06d7c4da9bb8fbE>:
   0:	6908                	ld	a0,16(a0)
   2:	8082                	ret

Disassembly of section .text._ZN4core5panic9PanicInfo8location17h0abc48c834101343E:

0000000000000000 <_ZN4core5panic9PanicInfo8location17h0abc48c834101343E>:
   0:	6d08                	ld	a0,24(a0)
   2:	8082                	ret

Disassembly of section .text._ZN4core3fmt3num3imp52_$LT$impl$u20$core..fmt..Display$u20$for$u20$u32$GT$3fmt17ha3e73a453614bdb8E:

0000000000000000 <_ZN4core3fmt3num3imp52_$LT$impl$u20$core..fmt..Display$u20$for$u20$u32$GT$3fmt17ha3e73a453614bdb8E>:
   0:	7175                	addi	sp,sp,-144
   2:	e506                	sd	ra,136(sp)
   4:	00056503          	lwu	a0,0(a0) # 1c <_ZN4core3fmt3num3imp52_$LT$impl$u20$core..fmt..Display$u20$for$u20$u32$GT$3fmt17ha3e73a453614bdb8E+0x1c>
   8:	06110613          	addi	a2,sp,97
   c:	00455693          	srli	a3,a0,0x4
  10:	02700713          	li	a4,39
  14:	27000793          	li	a5,624
  18:	ecae                	sd	a1,88(sp)
  1a:	e8ba                	sd	a4,80(sp)
  1c:	e4aa                	sd	a0,72(sp)
  1e:	02d7e063          	bltu	a5,a3,3e <_ZN4core3fmt3num3imp52_$LT$impl$u20$core..fmt..Display$u20$for$u20$u32$GT$3fmt17ha3e73a453614bdb8E+0x3e>
  22:	a009                	j	24 <_ZN4core3fmt3num3imp52_$LT$impl$u20$core..fmt..Display$u20$for$u20$u32$GT$3fmt17ha3e73a453614bdb8E+0x24>
  24:	6526                	ld	a0,72(sp)
  26:	65c6                	ld	a1,80(sp)
  28:	06300613          	li	a2,99
  2c:	86aa                	mv	a3,a0
  2e:	872e                	mv	a4,a1
  30:	e0aa                	sd	a0,64(sp)
  32:	fc2e                	sd	a1,56(sp)
  34:	f836                	sd	a3,48(sp)
  36:	f43a                	sd	a4,40(sp)
  38:	0ca66163          	bltu	a2,a0,fa <.LBB140_8+0x48>
  3c:	a21d                	j	162 <.LBB140_9+0x26>
  3e:	6546                	ld	a0,80(sp)
  40:	65a6                	ld	a1,72(sp)
  42:	862e                	mv	a2,a1
  44:	001a36b7          	lui	a3,0x1a3
  48:	6e36869b          	addiw	a3,a3,1763
  4c:	06ba                	slli	a3,a3,0xe
  4e:	ac768693          	addi	a3,a3,-1337 # 1a2ac7 <.LBB135_45+0x1a2785>
  52:	06ba                	slli	a3,a3,0xe
  54:	43368693          	addi	a3,a3,1075
  58:	06b6                	slli	a3,a3,0xd
  5a:	94b68693          	addi	a3,a3,-1717
  5e:	02d636b3          	mulhu	a3,a2,a3
  62:	82ad                	srli	a3,a3,0xb
  64:	6709                	lui	a4,0x2
  66:	7107071b          	addiw	a4,a4,1808
  6a:	02e68733          	mul	a4,a3,a4
  6e:	8e19                	sub	a2,a2,a4
  70:	6741                	lui	a4,0x10
  72:	ffc7079b          	addiw	a5,a4,-4
  76:	8ff1                	and	a5,a5,a2
  78:	8389                	srli	a5,a5,0x2
  7a:	0051f837          	lui	a6,0x51f
  7e:	b858081b          	addiw	a6,a6,-1147
  82:	0836                	slli	a6,a6,0xd
  84:	3d780813          	addi	a6,a6,983 # 51f3d7 <.LBB135_45+0x51f095>
  88:	083a                	slli	a6,a6,0xe
  8a:	28f80813          	addi	a6,a6,655
  8e:	0832                	slli	a6,a6,0xc
  90:	5c380813          	addi	a6,a6,1475
  94:	0307b7b3          	mulhu	a5,a5,a6
  98:	8389                	srli	a5,a5,0x2
  9a:	00179813          	slli	a6,a5,0x1
  9e:	06400893          	li	a7,100
  a2:	031787b3          	mul	a5,a5,a7
  a6:	8e1d                	sub	a2,a2,a5
  a8:	0606                	slli	a2,a2,0x1
  aa:	3779                	addiw	a4,a4,-2
  ac:	8e79                	and	a2,a2,a4
  ae:	ffc50713          	addi	a4,a0,-4

00000000000000b2 <.LBB140_8>:
  b2:	00000797          	auipc	a5,0x0
  b6:	00078793          	mv	a5,a5
  ba:	983e                	add	a6,a6,a5
  bc:	06110893          	addi	a7,sp,97
  c0:	00e882b3          	add	t0,a7,a4
  c4:	00084303          	lbu	t1,0(a6)
  c8:	00180803          	lb	a6,1(a6)
  cc:	010280a3          	sb	a6,1(t0)
  d0:	00628023          	sb	t1,0(t0)
  d4:	963e                	add	a2,a2,a5
  d6:	9546                	add	a0,a0,a7
  d8:	00064783          	lbu	a5,0(a2) # 342 <.LBB135_45>
  dc:	00160603          	lb	a2,1(a2)
  e0:	fec50fa3          	sb	a2,-1(a0)
  e4:	fef50f23          	sb	a5,-2(a0)
  e8:	05f5e537          	lui	a0,0x5f5e
  ec:	0ff5051b          	addiw	a0,a0,255
  f0:	e8ba                	sd	a4,80(sp)
  f2:	e4b6                	sd	a3,72(sp)
  f4:	f4b565e3          	bltu	a0,a1,3e <_ZN4core3fmt3num3imp52_$LT$impl$u20$core..fmt..Display$u20$for$u20$u32$GT$3fmt17ha3e73a453614bdb8E+0x3e>
  f8:	b735                	j	24 <_ZN4core3fmt3num3imp52_$LT$impl$u20$core..fmt..Display$u20$for$u20$u32$GT$3fmt17ha3e73a453614bdb8E+0x24>
  fa:	6506                	ld	a0,64(sp)
  fc:	65c1                	lui	a1,0x10
  fe:	ffc5861b          	addiw	a2,a1,-4
 102:	8e69                	and	a2,a2,a0
 104:	8209                	srli	a2,a2,0x2
 106:	0051f6b7          	lui	a3,0x51f
 10a:	b856869b          	addiw	a3,a3,-1147
 10e:	06b6                	slli	a3,a3,0xd
 110:	3d768693          	addi	a3,a3,983 # 51f3d7 <.LBB135_45+0x51f095>
 114:	06ba                	slli	a3,a3,0xe
 116:	28f68693          	addi	a3,a3,655
 11a:	06b2                	slli	a3,a3,0xc
 11c:	5c368693          	addi	a3,a3,1475
 120:	02d63633          	mulhu	a2,a2,a3
 124:	8209                	srli	a2,a2,0x2
 126:	06400693          	li	a3,100
 12a:	02d606b3          	mul	a3,a2,a3
 12e:	8d15                	sub	a0,a0,a3
 130:	0506                	slli	a0,a0,0x1
 132:	35f9                	addiw	a1,a1,-2
 134:	8d6d                	and	a0,a0,a1
 136:	75e2                	ld	a1,56(sp)
 138:	ffe58693          	addi	a3,a1,-2 # fffe <.LBB135_45+0xfcbc>

000000000000013c <.LBB140_9>:
 13c:	00000717          	auipc	a4,0x0
 140:	00070713          	mv	a4,a4
 144:	953a                	add	a0,a0,a4
 146:	06110713          	addi	a4,sp,97
 14a:	9736                	add	a4,a4,a3
 14c:	00054783          	lbu	a5,0(a0) # 5f5e000 <.LBB135_45+0x5f5dcbe>
 150:	00150503          	lb	a0,1(a0)
 154:	00a700a3          	sb	a0,1(a4) # 13d <.LBB140_9+0x1>
 158:	00f70023          	sb	a5,0(a4)
 15c:	f832                	sd	a2,48(sp)
 15e:	f436                	sd	a3,40(sp)
 160:	a009                	j	162 <.LBB140_9+0x26>
 162:	7522                	ld	a0,40(sp)
 164:	75c2                	ld	a1,48(sp)
 166:	4629                	li	a2,10
 168:	f02a                	sd	a0,32(sp)
 16a:	ec2e                	sd	a1,24(sp)
 16c:	02c5cb63          	blt	a1,a2,1a2 <.LBB140_10+0x24>
 170:	a009                	j	172 <.LBB140_9+0x36>
 172:	6562                	ld	a0,24(sp)
 174:	00151593          	slli	a1,a0,0x1
 178:	7602                	ld	a2,32(sp)
 17a:	ffe60693          	addi	a3,a2,-2

000000000000017e <.LBB140_10>:
 17e:	00000717          	auipc	a4,0x0
 182:	00070713          	mv	a4,a4
 186:	95ba                	add	a1,a1,a4
 188:	06110713          	addi	a4,sp,97
 18c:	9736                	add	a4,a4,a3
 18e:	0005c783          	lbu	a5,0(a1)
 192:	00158583          	lb	a1,1(a1)
 196:	00b700a3          	sb	a1,1(a4) # 17f <.LBB140_10+0x1>
 19a:	00f70023          	sb	a5,0(a4)
 19e:	e836                	sd	a3,16(sp)
 1a0:	a831                	j	1bc <.LBB140_10+0x3e>
 1a2:	7502                	ld	a0,32(sp)
 1a4:	fff50593          	addi	a1,a0,-1
 1a8:	06110613          	addi	a2,sp,97
 1ac:	962e                	add	a2,a2,a1
 1ae:	66e2                	ld	a3,24(sp)
 1b0:	03068713          	addi	a4,a3,48
 1b4:	00e60023          	sb	a4,0(a2)
 1b8:	e82e                	sd	a1,16(sp)
 1ba:	a009                	j	1bc <.LBB140_10+0x3e>
 1bc:	6542                	ld	a0,16(sp)
 1be:	06110593          	addi	a1,sp,97
 1c2:	00a58733          	add	a4,a1,a0
 1c6:	02700593          	li	a1,39
 1ca:	40a587b3          	sub	a5,a1,a0

00000000000001ce <.LBB140_11>:
 1ce:	00000617          	auipc	a2,0x0
 1d2:	00060613          	mv	a2,a2
 1d6:	4585                	li	a1,1
 1d8:	4501                	li	a0,0
 1da:	66e6                	ld	a3,88(sp)
 1dc:	e42a                	sd	a0,8(sp)
 1de:	8536                	mv	a0,a3
 1e0:	66a2                	ld	a3,8(sp)
 1e2:	00000097          	auipc	ra,0x0
 1e6:	000080e7          	jalr	ra # 1e2 <.LBB140_11+0x14>
 1ea:	60aa                	ld	ra,136(sp)
 1ec:	6149                	addi	sp,sp,144
 1ee:	8082                	ret

Disassembly of section .text._ZN4core5panic8Location4file17h3278b1ab669d65c9E:

0000000000000000 <_ZN4core5panic8Location4file17h3278b1ab669d65c9E>:
   0:	1141                	addi	sp,sp,-16
   2:	610c                	ld	a1,0(a0)
   4:	6508                	ld	a0,8(a0)
   6:	e42a                	sd	a0,8(sp)
   8:	852e                	mv	a0,a1
   a:	65a2                	ld	a1,8(sp)
   c:	0141                	addi	sp,sp,16
   e:	8082                	ret

Disassembly of section .text._ZN4core5panic8Location4line17h3493b519820d30c1E:

0000000000000000 <_ZN4core5panic8Location4line17h3493b519820d30c1E>:
   0:	4908                	lw	a0,16(a0)
   2:	8082                	ret

Disassembly of section .text._ZN4core5panic8Location6column17h4292e61a8d1363daE:

0000000000000000 <_ZN4core5panic8Location6column17h4292e61a8d1363daE>:
   0:	4948                	lw	a0,20(a0)
   2:	8082                	ret

Disassembly of section .text._ZN57_$LT$core..fmt..Arguments$u20$as$u20$core..fmt..Debug$GT$3fmt17h071f14e02ec4b748E:

0000000000000000 <_ZN57_$LT$core..fmt..Arguments$u20$as$u20$core..fmt..Debug$GT$3fmt17h071f14e02ec4b748E>:
   0:	7139                	addi	sp,sp,-64
   2:	fc06                	sd	ra,56(sp)
   4:	7190                	ld	a2,32(a1)
   6:	758c                	ld	a1,40(a1)
   8:	7514                	ld	a3,40(a0)
   a:	f836                	sd	a3,48(sp)
   c:	7114                	ld	a3,32(a0)
   e:	f436                	sd	a3,40(sp)
  10:	6d14                	ld	a3,24(a0)
  12:	f036                	sd	a3,32(sp)
  14:	6914                	ld	a3,16(a0)
  16:	ec36                	sd	a3,24(sp)
  18:	6514                	ld	a3,8(a0)
  1a:	e836                	sd	a3,16(sp)
  1c:	6108                	ld	a0,0(a0)
  1e:	e42a                	sd	a0,8(sp)
  20:	0028                	addi	a0,sp,8
  22:	e02a                	sd	a0,0(sp)
  24:	8532                	mv	a0,a2
  26:	6602                	ld	a2,0(sp)
  28:	00000097          	auipc	ra,0x0
  2c:	000080e7          	jalr	ra # 28 <_ZN57_$LT$core..fmt..Arguments$u20$as$u20$core..fmt..Debug$GT$3fmt17h071f14e02ec4b748E+0x28>
  30:	70e2                	ld	ra,56(sp)
  32:	6121                	addi	sp,sp,64
  34:	8082                	ret

Disassembly of section .text._ZN42_$LT$str$u20$as$u20$core..fmt..Display$GT$3fmt17hcd2a264bea390638E:

0000000000000000 <_ZN42_$LT$str$u20$as$u20$core..fmt..Display$GT$3fmt17hcd2a264bea390638E>:
   0:	1141                	addi	sp,sp,-16
   2:	e42a                	sd	a0,8(sp)
   4:	8532                	mv	a0,a2
   6:	6622                	ld	a2,8(sp)
   8:	e02e                	sd	a1,0(sp)
   a:	85b2                	mv	a1,a2
   c:	6602                	ld	a2,0(sp)
   e:	0141                	addi	sp,sp,16
  10:	00000317          	auipc	t1,0x0
  14:	00030067          	jr	t1 # 10 <_ZN42_$LT$str$u20$as$u20$core..fmt..Display$GT$3fmt17hcd2a264bea390638E+0x10>

Disassembly of section .text._ZN4core3fmt3num3imp52_$LT$impl$u20$core..fmt..Display$u20$for$u20$i32$GT$3fmt17hb5f330747680893bE:

0000000000000000 <_ZN4core3fmt3num3imp52_$LT$impl$u20$core..fmt..Display$u20$for$u20$i32$GT$3fmt17hb5f330747680893bE>:
   0:	7175                	addi	sp,sp,-144
   2:	e506                	sd	ra,136(sp)
   4:	4108                	lw	a0,0(a0)
   6:	567d                	li	a2,-1
   8:	00a62633          	slt	a2,a2,a0
   c:	43f55693          	srai	a3,a0,0x3f
  10:	9536                	add	a0,a0,a3
  12:	8d35                	xor	a0,a0,a3
  14:	06110693          	addi	a3,sp,97
  18:	00455713          	srli	a4,a0,0x4
  1c:	02700793          	li	a5,39
  20:	27000813          	li	a6,624
  24:	ecae                	sd	a1,88(sp)
  26:	e8b2                	sd	a2,80(sp)
  28:	e4be                	sd	a5,72(sp)
  2a:	e0aa                	sd	a0,64(sp)
  2c:	02e86063          	bltu	a6,a4,4c <_ZN4core3fmt3num3imp52_$LT$impl$u20$core..fmt..Display$u20$for$u20$i32$GT$3fmt17hb5f330747680893bE+0x4c>
  30:	a009                	j	32 <_ZN4core3fmt3num3imp52_$LT$impl$u20$core..fmt..Display$u20$for$u20$i32$GT$3fmt17hb5f330747680893bE+0x32>
  32:	6506                	ld	a0,64(sp)
  34:	65a6                	ld	a1,72(sp)
  36:	06300613          	li	a2,99
  3a:	86aa                	mv	a3,a0
  3c:	872e                	mv	a4,a1
  3e:	fc2a                	sd	a0,56(sp)
  40:	f82e                	sd	a1,48(sp)
  42:	f436                	sd	a3,40(sp)
  44:	f03a                	sd	a4,32(sp)
  46:	0ca66163          	bltu	a2,a0,108 <.LBB146_8+0x48>
  4a:	a21d                	j	170 <.LBB146_9+0x26>
  4c:	6526                	ld	a0,72(sp)
  4e:	6586                	ld	a1,64(sp)
  50:	862e                	mv	a2,a1
  52:	001a36b7          	lui	a3,0x1a3
  56:	6e36869b          	addiw	a3,a3,1763
  5a:	06ba                	slli	a3,a3,0xe
  5c:	ac768693          	addi	a3,a3,-1337 # 1a2ac7 <.LBB135_45+0x1a2785>
  60:	06ba                	slli	a3,a3,0xe
  62:	43368693          	addi	a3,a3,1075
  66:	06b6                	slli	a3,a3,0xd
  68:	94b68693          	addi	a3,a3,-1717
  6c:	02d636b3          	mulhu	a3,a2,a3
  70:	82ad                	srli	a3,a3,0xb
  72:	6709                	lui	a4,0x2
  74:	7107071b          	addiw	a4,a4,1808
  78:	02e68733          	mul	a4,a3,a4
  7c:	8e19                	sub	a2,a2,a4
  7e:	6741                	lui	a4,0x10
  80:	ffc7079b          	addiw	a5,a4,-4
  84:	8ff1                	and	a5,a5,a2
  86:	8389                	srli	a5,a5,0x2
  88:	0051f837          	lui	a6,0x51f
  8c:	b858081b          	addiw	a6,a6,-1147
  90:	0836                	slli	a6,a6,0xd
  92:	3d780813          	addi	a6,a6,983 # 51f3d7 <.LBB135_45+0x51f095>
  96:	083a                	slli	a6,a6,0xe
  98:	28f80813          	addi	a6,a6,655
  9c:	0832                	slli	a6,a6,0xc
  9e:	5c380813          	addi	a6,a6,1475
  a2:	0307b7b3          	mulhu	a5,a5,a6
  a6:	8389                	srli	a5,a5,0x2
  a8:	00179813          	slli	a6,a5,0x1
  ac:	06400893          	li	a7,100
  b0:	031787b3          	mul	a5,a5,a7
  b4:	8e1d                	sub	a2,a2,a5
  b6:	0606                	slli	a2,a2,0x1
  b8:	3779                	addiw	a4,a4,-2
  ba:	8e79                	and	a2,a2,a4
  bc:	ffc50713          	addi	a4,a0,-4

00000000000000c0 <.LBB146_8>:
  c0:	00000797          	auipc	a5,0x0
  c4:	00078793          	mv	a5,a5
  c8:	983e                	add	a6,a6,a5
  ca:	06110893          	addi	a7,sp,97
  ce:	00e882b3          	add	t0,a7,a4
  d2:	00084303          	lbu	t1,0(a6)
  d6:	00180803          	lb	a6,1(a6)
  da:	010280a3          	sb	a6,1(t0)
  de:	00628023          	sb	t1,0(t0)
  e2:	963e                	add	a2,a2,a5
  e4:	9546                	add	a0,a0,a7
  e6:	00064783          	lbu	a5,0(a2) # 1ce <.LBB146_10+0x42>
  ea:	00160603          	lb	a2,1(a2)
  ee:	fec50fa3          	sb	a2,-1(a0)
  f2:	fef50f23          	sb	a5,-2(a0)
  f6:	05f5e537          	lui	a0,0x5f5e
  fa:	0ff5051b          	addiw	a0,a0,255
  fe:	e4ba                	sd	a4,72(sp)
 100:	e0b6                	sd	a3,64(sp)
 102:	f4b565e3          	bltu	a0,a1,4c <_ZN4core3fmt3num3imp52_$LT$impl$u20$core..fmt..Display$u20$for$u20$i32$GT$3fmt17hb5f330747680893bE+0x4c>
 106:	b735                	j	32 <_ZN4core3fmt3num3imp52_$LT$impl$u20$core..fmt..Display$u20$for$u20$i32$GT$3fmt17hb5f330747680893bE+0x32>
 108:	7562                	ld	a0,56(sp)
 10a:	65c1                	lui	a1,0x10
 10c:	ffc5861b          	addiw	a2,a1,-4
 110:	8e69                	and	a2,a2,a0
 112:	8209                	srli	a2,a2,0x2
 114:	0051f6b7          	lui	a3,0x51f
 118:	b856869b          	addiw	a3,a3,-1147
 11c:	06b6                	slli	a3,a3,0xd
 11e:	3d768693          	addi	a3,a3,983 # 51f3d7 <.LBB135_45+0x51f095>
 122:	06ba                	slli	a3,a3,0xe
 124:	28f68693          	addi	a3,a3,655
 128:	06b2                	slli	a3,a3,0xc
 12a:	5c368693          	addi	a3,a3,1475
 12e:	02d63633          	mulhu	a2,a2,a3
 132:	8209                	srli	a2,a2,0x2
 134:	06400693          	li	a3,100
 138:	02d606b3          	mul	a3,a2,a3
 13c:	8d15                	sub	a0,a0,a3
 13e:	0506                	slli	a0,a0,0x1
 140:	35f9                	addiw	a1,a1,-2
 142:	8d6d                	and	a0,a0,a1
 144:	75c2                	ld	a1,48(sp)
 146:	ffe58693          	addi	a3,a1,-2 # fffe <.LBB135_45+0xfcbc>

000000000000014a <.LBB146_9>:
 14a:	00000717          	auipc	a4,0x0
 14e:	00070713          	mv	a4,a4
 152:	953a                	add	a0,a0,a4
 154:	06110713          	addi	a4,sp,97
 158:	9736                	add	a4,a4,a3
 15a:	00054783          	lbu	a5,0(a0) # 5f5e000 <.LBB135_45+0x5f5dcbe>
 15e:	00150503          	lb	a0,1(a0)
 162:	00a700a3          	sb	a0,1(a4) # 14b <.LBB146_9+0x1>
 166:	00f70023          	sb	a5,0(a4)
 16a:	f432                	sd	a2,40(sp)
 16c:	f036                	sd	a3,32(sp)
 16e:	a009                	j	170 <.LBB146_9+0x26>
 170:	7502                	ld	a0,32(sp)
 172:	75a2                	ld	a1,40(sp)
 174:	4629                	li	a2,10
 176:	ec2a                	sd	a0,24(sp)
 178:	e82e                	sd	a1,16(sp)
 17a:	02c5cb63          	blt	a1,a2,1b0 <.LBB146_10+0x24>
 17e:	a009                	j	180 <.LBB146_9+0x36>
 180:	6542                	ld	a0,16(sp)
 182:	00151593          	slli	a1,a0,0x1
 186:	6662                	ld	a2,24(sp)
 188:	ffe60693          	addi	a3,a2,-2

000000000000018c <.LBB146_10>:
 18c:	00000717          	auipc	a4,0x0
 190:	00070713          	mv	a4,a4
 194:	95ba                	add	a1,a1,a4
 196:	06110713          	addi	a4,sp,97
 19a:	9736                	add	a4,a4,a3
 19c:	0005c783          	lbu	a5,0(a1)
 1a0:	00158583          	lb	a1,1(a1)
 1a4:	00b700a3          	sb	a1,1(a4) # 18d <.LBB146_10+0x1>
 1a8:	00f70023          	sb	a5,0(a4)
 1ac:	e436                	sd	a3,8(sp)
 1ae:	a831                	j	1ca <.LBB146_10+0x3e>
 1b0:	6562                	ld	a0,24(sp)
 1b2:	fff50593          	addi	a1,a0,-1
 1b6:	06110613          	addi	a2,sp,97
 1ba:	962e                	add	a2,a2,a1
 1bc:	66c2                	ld	a3,16(sp)
 1be:	03068713          	addi	a4,a3,48
 1c2:	00e60023          	sb	a4,0(a2)
 1c6:	e42e                	sd	a1,8(sp)
 1c8:	a009                	j	1ca <.LBB146_10+0x3e>
 1ca:	6522                	ld	a0,8(sp)
 1cc:	06110593          	addi	a1,sp,97
 1d0:	00a58733          	add	a4,a1,a0
 1d4:	02700593          	li	a1,39
 1d8:	40a587b3          	sub	a5,a1,a0

00000000000001dc <.LBB146_11>:
 1dc:	00000617          	auipc	a2,0x0
 1e0:	00060613          	mv	a2,a2
 1e4:	4501                	li	a0,0
 1e6:	65e6                	ld	a1,88(sp)
 1e8:	e02a                	sd	a0,0(sp)
 1ea:	852e                	mv	a0,a1
 1ec:	65c6                	ld	a1,80(sp)
 1ee:	6682                	ld	a3,0(sp)
 1f0:	00000097          	auipc	ra,0x0
 1f4:	000080e7          	jalr	ra # 1f0 <.LBB146_11+0x14>
 1f8:	60aa                	ld	ra,136(sp)
 1fa:	6149                	addi	sp,sp,144
 1fc:	8082                	ret

Disassembly of section .text._ZN4core3fmt3num53_$LT$impl$u20$core..fmt..UpperHex$u20$for$u20$i32$GT$3fmt17hc0b9d65fef18039fE:

0000000000000000 <_ZN4core3fmt3num53_$LT$impl$u20$core..fmt..UpperHex$u20$for$u20$i32$GT$3fmt17hc0b9d65fef18039fE>:
   0:	7115                	addi	sp,sp,-224
   2:	ed86                	sd	ra,216(sp)
   4:	00056503          	lwu	a0,0(a0)
   8:	08b0                	addi	a2,sp,88
   a:	08060613          	addi	a2,a2,128 # 25c <.LBB135_41+0x14>
   e:	08000693          	li	a3,128
  12:	e8ae                	sd	a1,80(sp)
  14:	e4b2                	sd	a2,72(sp)
  16:	e0aa                	sd	a0,64(sp)
  18:	fc36                	sd	a3,56(sp)
  1a:	a009                	j	1c <_ZN4core3fmt3num53_$LT$impl$u20$core..fmt..UpperHex$u20$for$u20$i32$GT$3fmt17hc0b9d65fef18039fE+0x1c>
  1c:	7562                	ld	a0,56(sp)
  1e:	6586                	ld	a1,64(sp)
  20:	6626                	ld	a2,72(sp)
  22:	fff60693          	addi	a3,a2,-1
  26:	0045d713          	srli	a4,a1,0x4
  2a:	100007b7          	lui	a5,0x10000
  2e:	37fd                	addiw	a5,a5,-1
  30:	8f7d                	and	a4,a4,a5
  32:	89bd                	andi	a1,a1,15
  34:	0305e793          	ori	a5,a1,48
  38:	03758813          	addi	a6,a1,55
  3c:	48a9                	li	a7,10
  3e:	f82a                	sd	a0,48(sp)
  40:	f432                	sd	a2,40(sp)
  42:	f036                	sd	a3,32(sp)
  44:	ec3a                	sd	a4,24(sp)
  46:	e842                	sd	a6,16(sp)
  48:	e43e                	sd	a5,8(sp)
  4a:	0115e463          	bltu	a1,a7,52 <_ZN4core3fmt3num53_$LT$impl$u20$core..fmt..UpperHex$u20$for$u20$i32$GT$3fmt17hc0b9d65fef18039fE+0x52>
  4e:	6542                	ld	a0,16(sp)
  50:	e42a                	sd	a0,8(sp)
  52:	6522                	ld	a0,8(sp)
  54:	75a2                	ld	a1,40(sp)
  56:	fea58fa3          	sb	a0,-1(a1)
  5a:	7542                	ld	a0,48(sp)
  5c:	fff50613          	addi	a2,a0,-1
  60:	4681                	li	a3,0
  62:	7702                	ld	a4,32(sp)
  64:	67e2                	ld	a5,24(sp)
  66:	8832                	mv	a6,a2
  68:	68e2                	ld	a7,24(sp)
  6a:	e032                	sd	a2,0(sp)
  6c:	e4ba                	sd	a4,72(sp)
  6e:	e0be                	sd	a5,64(sp)
  70:	fc42                	sd	a6,56(sp)
  72:	fad895e3          	bne	a7,a3,1c <_ZN4core3fmt3num53_$LT$impl$u20$core..fmt..UpperHex$u20$for$u20$i32$GT$3fmt17hc0b9d65fef18039fE+0x1c>
  76:	a009                	j	78 <_ZN4core3fmt3num53_$LT$impl$u20$core..fmt..UpperHex$u20$for$u20$i32$GT$3fmt17hc0b9d65fef18039fE+0x78>
  78:	08100513          	li	a0,129
  7c:	6582                	ld	a1,0(sp)
  7e:	00a5ef63          	bltu	a1,a0,9c <.LBB147_7+0x18>
  82:	a009                	j	84 <.LBB147_7>

0000000000000084 <.LBB147_7>:
  84:	00000617          	auipc	a2,0x0
  88:	00060613          	mv	a2,a2
  8c:	08000593          	li	a1,128
  90:	6502                	ld	a0,0(sp)
  92:	00000097          	auipc	ra,0x0
  96:	000080e7          	jalr	ra # 92 <.LBB147_7+0xe>
  9a:	0000                	unimp
  9c:	08a8                	addi	a0,sp,88
  9e:	6582                	ld	a1,0(sp)
  a0:	00b50733          	add	a4,a0,a1
  a4:	08100513          	li	a0,129
  a8:	7642                	ld	a2,48(sp)
  aa:	40c507b3          	sub	a5,a0,a2

00000000000000ae <.LBB147_8>:
  ae:	00000617          	auipc	a2,0x0
  b2:	00060613          	mv	a2,a2
  b6:	4585                	li	a1,1
  b8:	4689                	li	a3,2
  ba:	6546                	ld	a0,80(sp)
  bc:	00000097          	auipc	ra,0x0
  c0:	000080e7          	jalr	ra # bc <.LBB147_8+0xe>
  c4:	60ee                	ld	ra,216(sp)
  c6:	612d                	addi	sp,sp,224
  c8:	8082                	ret
