
./rros2.bin:     file format elf64-littleriscv


Disassembly of section .text:

0000000080000000 <_ZN106_$LT$core..ops..range..Range$LT$usize$GT$$u20$as$u20$core..slice..index..SliceIndex$LT$$u5b$T$u5d$$GT$$GT$17get_unchecked_mut17h97f5b57f479b560dE>:
    80000000:	1101                	addi	sp,sp,-32
    80000002:	ec06                	sd	ra,24(sp)
    80000004:	e82a                	sd	a0,16(sp)
    80000006:	8532                	mv	a0,a2
    80000008:	e42e                	sd	a1,8(sp)
    8000000a:	85b6                	mv	a1,a3
    8000000c:	00000097          	auipc	ra,0x0
    80000010:	716080e7          	jalr	1814(ra) # 80000722 <_ZN4core3ptr7mut_ptr41_$LT$impl$u20$$BP$mut$u20$$u5b$T$u5d$$GT$10as_mut_ptr17hc5721e54a5ca9cbeE>
    80000014:	65c2                	ld	a1,16(sp)
    80000016:	00000097          	auipc	ra,0x0
    8000001a:	6cc080e7          	jalr	1740(ra) # 800006e2 <_ZN4core3ptr7mut_ptr31_$LT$impl$u20$$BP$mut$u20$T$GT$3add17hbf57ab5661014a8fE>
    8000001e:	65a2                	ld	a1,8(sp)
    80000020:	6642                	ld	a2,16(sp)
    80000022:	8d91                	sub	a1,a1,a2
    80000024:	00000097          	auipc	ra,0x0
    80000028:	530080e7          	jalr	1328(ra) # 80000554 <_ZN4core3ptr24slice_from_raw_parts_mut17h6c8e9fe076134ba9E>
    8000002c:	60e2                	ld	ra,24(sp)
    8000002e:	6105                	addi	sp,sp,32
    80000030:	8082                	ret

0000000080000032 <_ZN106_$LT$core..ops..range..Range$LT$usize$GT$$u20$as$u20$core..slice..index..SliceIndex$LT$$u5b$T$u5d$$GT$$GT$9index_mut17h32227270b2655cadE>:
    80000032:	7139                	addi	sp,sp,-64
    80000034:	fc06                	sd	ra,56(sp)
    80000036:	f83a                	sd	a4,48(sp)
    80000038:	f436                	sd	a3,40(sp)
    8000003a:	f032                	sd	a2,32(sp)
    8000003c:	ec2e                	sd	a1,24(sp)
    8000003e:	e82a                	sd	a0,16(sp)
    80000040:	00a5ed63          	bltu	a1,a0,8000005a <_ZN106_$LT$core..ops..range..Range$LT$usize$GT$$u20$as$u20$core..slice..index..SliceIndex$LT$$u5b$T$u5d$$GT$$GT$9index_mut17h32227270b2655cadE+0x28>
    80000044:	a009                	j	80000046 <_ZN106_$LT$core..ops..range..Range$LT$usize$GT$$u20$as$u20$core..slice..index..SliceIndex$LT$$u5b$T$u5d$$GT$$GT$9index_mut17h32227270b2655cadE+0x14>
    80000046:	7502                	ld	a0,32(sp)
    80000048:	75a2                	ld	a1,40(sp)
    8000004a:	00001097          	auipc	ra,0x1
    8000004e:	bac080e7          	jalr	-1108(ra) # 80000bf6 <_ZN4core5slice29_$LT$impl$u20$$u5b$T$u5d$$GT$3len17h1f0782c67b061a39E>
    80000052:	65e2                	ld	a1,24(sp)
    80000054:	02b56663          	bltu	a0,a1,80000080 <_ZN106_$LT$core..ops..range..Range$LT$usize$GT$$u20$as$u20$core..slice..index..SliceIndex$LT$$u5b$T$u5d$$GT$$GT$9index_mut17h32227270b2655cadE+0x4e>
    80000058:	a809                	j	8000006a <_ZN106_$LT$core..ops..range..Range$LT$usize$GT$$u20$as$u20$core..slice..index..SliceIndex$LT$$u5b$T$u5d$$GT$$GT$9index_mut17h32227270b2655cadE+0x38>
    8000005a:	6542                	ld	a0,16(sp)
    8000005c:	65e2                	ld	a1,24(sp)
    8000005e:	7642                	ld	a2,48(sp)
    80000060:	00003097          	auipc	ra,0x3
    80000064:	a20080e7          	jalr	-1504(ra) # 80002a80 <_ZN4core5slice5index22slice_index_order_fail17h5557fc1adefafaafE>
    80000068:	0000                	unimp
    8000006a:	6542                	ld	a0,16(sp)
    8000006c:	65e2                	ld	a1,24(sp)
    8000006e:	7602                	ld	a2,32(sp)
    80000070:	76a2                	ld	a3,40(sp)
    80000072:	00000097          	auipc	ra,0x0
    80000076:	f8e080e7          	jalr	-114(ra) # 80000000 <_ZN106_$LT$core..ops..range..Range$LT$usize$GT$$u20$as$u20$core..slice..index..SliceIndex$LT$$u5b$T$u5d$$GT$$GT$17get_unchecked_mut17h97f5b57f479b560dE>
    8000007a:	70e2                	ld	ra,56(sp)
    8000007c:	6121                	addi	sp,sp,64
    8000007e:	8082                	ret
    80000080:	7502                	ld	a0,32(sp)
    80000082:	75a2                	ld	a1,40(sp)
    80000084:	00001097          	auipc	ra,0x1
    80000088:	b72080e7          	jalr	-1166(ra) # 80000bf6 <_ZN4core5slice29_$LT$impl$u20$$u5b$T$u5d$$GT$3len17h1f0782c67b061a39E>
    8000008c:	65e2                	ld	a1,24(sp)
    8000008e:	e42a                	sd	a0,8(sp)
    80000090:	852e                	mv	a0,a1
    80000092:	65a2                	ld	a1,8(sp)
    80000094:	7642                	ld	a2,48(sp)
    80000096:	00002097          	auipc	ra,0x2
    8000009a:	e96080e7          	jalr	-362(ra) # 80001f2c <_ZN4core5slice5index24slice_end_index_len_fail17h22e7ee92998b4241E>
	...

00000000800000a0 <_ZN108_$LT$core..ops..range..RangeTo$LT$usize$GT$$u20$as$u20$core..slice..index..SliceIndex$LT$$u5b$T$u5d$$GT$$GT$9index_mut17h627fc986b5f2693bE>:
    800000a0:	7139                	addi	sp,sp,-64
    800000a2:	fc06                	sd	ra,56(sp)
    800000a4:	4701                	li	a4,0
    800000a6:	f43a                	sd	a4,40(sp)
    800000a8:	f82a                	sd	a0,48(sp)
    800000aa:	f02a                	sd	a0,32(sp)
    800000ac:	853a                	mv	a0,a4
    800000ae:	7702                	ld	a4,32(sp)
    800000b0:	ec2e                	sd	a1,24(sp)
    800000b2:	85ba                	mv	a1,a4
    800000b4:	67e2                	ld	a5,24(sp)
    800000b6:	e832                	sd	a2,16(sp)
    800000b8:	863e                	mv	a2,a5
    800000ba:	6842                	ld	a6,16(sp)
    800000bc:	e436                	sd	a3,8(sp)
    800000be:	86c2                	mv	a3,a6
    800000c0:	6722                	ld	a4,8(sp)
    800000c2:	00000097          	auipc	ra,0x0
    800000c6:	f70080e7          	jalr	-144(ra) # 80000032 <_ZN106_$LT$core..ops..range..Range$LT$usize$GT$$u20$as$u20$core..slice..index..SliceIndex$LT$$u5b$T$u5d$$GT$$GT$9index_mut17h32227270b2655cadE>
    800000ca:	70e2                	ld	ra,56(sp)
    800000cc:	6121                	addi	sp,sp,64
    800000ce:	8082                	ret

00000000800000d0 <_ZN44_$LT$$RF$T$u20$as$u20$core..fmt..Display$GT$3fmt17h03bed7aab6509a0eE>:
    800000d0:	1101                	addi	sp,sp,-32
    800000d2:	ec06                	sd	ra,24(sp)
    800000d4:	6110                	ld	a2,0(a0)
    800000d6:	6508                	ld	a0,8(a0)
    800000d8:	e82a                	sd	a0,16(sp)
    800000da:	8532                	mv	a0,a2
    800000dc:	6642                	ld	a2,16(sp)
    800000de:	e42e                	sd	a1,8(sp)
    800000e0:	85b2                	mv	a1,a2
    800000e2:	6622                	ld	a2,8(sp)
    800000e4:	00003097          	auipc	ra,0x3
    800000e8:	c24080e7          	jalr	-988(ra) # 80002d08 <_ZN42_$LT$str$u20$as$u20$core..fmt..Display$GT$3fmt17hcd2a264bea390638E>
    800000ec:	60e2                	ld	ra,24(sp)
    800000ee:	6105                	addi	sp,sp,32
    800000f0:	8082                	ret

00000000800000f2 <_ZN44_$LT$$RF$T$u20$as$u20$core..fmt..Display$GT$3fmt17h41d7698a43e6d759E>:
    800000f2:	1141                	addi	sp,sp,-16
    800000f4:	e406                	sd	ra,8(sp)
    800000f6:	6108                	ld	a0,0(a0)
    800000f8:	00003097          	auipc	ra,0x3
    800000fc:	bda080e7          	jalr	-1062(ra) # 80002cd2 <_ZN57_$LT$core..fmt..Arguments$u20$as$u20$core..fmt..Debug$GT$3fmt17h071f14e02ec4b748E>
    80000100:	60a2                	ld	ra,8(sp)
    80000102:	0141                	addi	sp,sp,16
    80000104:	8082                	ret

0000000080000106 <_ZN47_$LT$i32$u20$as$u20$core..iter..range..Step$GT$17forward_unchecked17hf12eada4627474f3E>:
    80000106:	1141                	addi	sp,sp,-16
    80000108:	e406                	sd	ra,8(sp)
    8000010a:	862a                	mv	a2,a0
    8000010c:	e032                	sd	a2,0(sp)
    8000010e:	00000097          	auipc	ra,0x0
    80000112:	370080e7          	jalr	880(ra) # 8000047e <_ZN4core3num21_$LT$impl$u20$i32$GT$13unchecked_add17hb7baeb7ffac3d159E>
    80000116:	60a2                	ld	ra,8(sp)
    80000118:	0141                	addi	sp,sp,16
    8000011a:	8082                	ret

000000008000011c <_ZN4core10intrinsics19copy_nonoverlapping17h32669512e56f42d5E>:
    8000011c:	1141                	addi	sp,sp,-16
    8000011e:	e406                	sd	ra,8(sp)
    80000120:	e02a                	sd	a0,0(sp)
    80000122:	852e                	mv	a0,a1
    80000124:	6582                	ld	a1,0(sp)
    80000126:	00001097          	auipc	ra,0x1
    8000012a:	1fa080e7          	jalr	506(ra) # 80001320 <memcpy>
    8000012e:	60a2                	ld	ra,8(sp)
    80000130:	0141                	addi	sp,sp,16
    80000132:	8082                	ret

0000000080000134 <_ZN4core10intrinsics19copy_nonoverlapping17ha379d0d67ef5787dE>:
    80000134:	1141                	addi	sp,sp,-16
    80000136:	e406                	sd	ra,8(sp)
    80000138:	060a                	slli	a2,a2,0x2
    8000013a:	e02a                	sd	a0,0(sp)
    8000013c:	852e                	mv	a0,a1
    8000013e:	6582                	ld	a1,0(sp)
    80000140:	00001097          	auipc	ra,0x1
    80000144:	1e0080e7          	jalr	480(ra) # 80001320 <memcpy>
    80000148:	60a2                	ld	ra,8(sp)
    8000014a:	0141                	addi	sp,sp,16
    8000014c:	8082                	ret

000000008000014e <_ZN4core3cmp5impls55_$LT$impl$u20$core..cmp..PartialOrd$u20$for$u20$i32$GT$2lt17h62d0ea2653f8bdcbE>:
    8000014e:	4108                	lw	a0,0(a0)
    80000150:	418c                	lw	a1,0(a1)
    80000152:	00b52533          	slt	a0,a0,a1
    80000156:	8082                	ret

0000000080000158 <_ZN4core3fmt10ArgumentV13new17h3dca20cdd01c5628E>:
    80000158:	1101                	addi	sp,sp,-32
    8000015a:	e82e                	sd	a1,16(sp)
    8000015c:	ec2a                	sd	a0,24(sp)
    8000015e:	e02a                	sd	a0,0(sp)
    80000160:	e42e                	sd	a1,8(sp)
    80000162:	6105                	addi	sp,sp,32
    80000164:	8082                	ret

0000000080000166 <_ZN4core3fmt10ArgumentV13new17h8f09df2bb6746d3fE>:
    80000166:	1101                	addi	sp,sp,-32
    80000168:	e82e                	sd	a1,16(sp)
    8000016a:	ec2a                	sd	a0,24(sp)
    8000016c:	e02a                	sd	a0,0(sp)
    8000016e:	e42e                	sd	a1,8(sp)
    80000170:	6105                	addi	sp,sp,32
    80000172:	8082                	ret

0000000080000174 <_ZN4core3fmt10ArgumentV13new17h9a587f63706d1ecfE>:
    80000174:	1101                	addi	sp,sp,-32
    80000176:	e82e                	sd	a1,16(sp)
    80000178:	ec2a                	sd	a0,24(sp)
    8000017a:	e02a                	sd	a0,0(sp)
    8000017c:	e42e                	sd	a1,8(sp)
    8000017e:	6105                	addi	sp,sp,32
    80000180:	8082                	ret

0000000080000182 <_ZN4core3fmt10ArgumentV13new17hafe335a54ab74929E>:
    80000182:	1101                	addi	sp,sp,-32
    80000184:	e82e                	sd	a1,16(sp)
    80000186:	ec2a                	sd	a0,24(sp)
    80000188:	e02a                	sd	a0,0(sp)
    8000018a:	e42e                	sd	a1,8(sp)
    8000018c:	6105                	addi	sp,sp,32
    8000018e:	8082                	ret

0000000080000190 <_ZN4core3fmt10ArgumentV13new17hcef6fe4860a5dfcdE>:
    80000190:	1101                	addi	sp,sp,-32
    80000192:	e82e                	sd	a1,16(sp)
    80000194:	ec2a                	sd	a0,24(sp)
    80000196:	e02a                	sd	a0,0(sp)
    80000198:	e42e                	sd	a1,8(sp)
    8000019a:	6105                	addi	sp,sp,32
    8000019c:	8082                	ret

000000008000019e <_ZN4core3fmt5Write10write_char17h01796003e2e4e90bE>:
    8000019e:	7179                	addi	sp,sp,-48
    800001a0:	f406                	sd	ra,40(sp)
    800001a2:	862e                	mv	a2,a1
    800001a4:	4681                	li	a3,0
    800001a6:	d236                	sw	a3,36(sp)
    800001a8:	1054                	addi	a3,sp,36
    800001aa:	4711                	li	a4,4
    800001ac:	ec2a                	sd	a0,24(sp)
    800001ae:	852e                	mv	a0,a1
    800001b0:	85b6                	mv	a1,a3
    800001b2:	e832                	sd	a2,16(sp)
    800001b4:	863a                	mv	a2,a4
    800001b6:	00001097          	auipc	ra,0x1
    800001ba:	97e080e7          	jalr	-1666(ra) # 80000b34 <_ZN4core4char7methods22_$LT$impl$u20$char$GT$11encode_utf817hc6d6808654a2c1aeE>
    800001be:	6662                	ld	a2,24(sp)
    800001c0:	e42a                	sd	a0,8(sp)
    800001c2:	8532                	mv	a0,a2
    800001c4:	66a2                	ld	a3,8(sp)
    800001c6:	e02e                	sd	a1,0(sp)
    800001c8:	85b6                	mv	a1,a3
    800001ca:	6602                	ld	a2,0(sp)
    800001cc:	00001097          	auipc	ra,0x1
    800001d0:	422080e7          	jalr	1058(ra) # 800015ee <_ZN72_$LT$main..panic..InternalTerminalStruct$u20$as$u20$core..fmt..Write$GT$9write_str17h3a2375028035007aE>
    800001d4:	70a2                	ld	ra,40(sp)
    800001d6:	6145                	addi	sp,sp,48
    800001d8:	8082                	ret

00000000800001da <_ZN4core3fmt5Write10write_char17h2acce1ea924f0579E>:
    800001da:	7179                	addi	sp,sp,-48
    800001dc:	f406                	sd	ra,40(sp)
    800001de:	862e                	mv	a2,a1
    800001e0:	4681                	li	a3,0
    800001e2:	d236                	sw	a3,36(sp)
    800001e4:	1054                	addi	a3,sp,36
    800001e6:	4711                	li	a4,4
    800001e8:	ec2a                	sd	a0,24(sp)
    800001ea:	852e                	mv	a0,a1
    800001ec:	85b6                	mv	a1,a3
    800001ee:	e832                	sd	a2,16(sp)
    800001f0:	863a                	mv	a2,a4
    800001f2:	00001097          	auipc	ra,0x1
    800001f6:	942080e7          	jalr	-1726(ra) # 80000b34 <_ZN4core4char7methods22_$LT$impl$u20$char$GT$11encode_utf817hc6d6808654a2c1aeE>
    800001fa:	6662                	ld	a2,24(sp)
    800001fc:	e42a                	sd	a0,8(sp)
    800001fe:	8532                	mv	a0,a2
    80000200:	66a2                	ld	a3,8(sp)
    80000202:	e02e                	sd	a1,0(sp)
    80000204:	85b6                	mv	a1,a3
    80000206:	6602                	ld	a2,0(sp)
    80000208:	00001097          	auipc	ra,0x1
    8000020c:	438080e7          	jalr	1080(ra) # 80001640 <_ZN72_$LT$main..panic..InternalTerminalStruct$u20$as$u20$core..fmt..Write$GT$9write_str17hceef8a2550918339E>
    80000210:	70a2                	ld	ra,40(sp)
    80000212:	6145                	addi	sp,sp,48
    80000214:	8082                	ret

0000000080000216 <_ZN4core3fmt5Write10write_char17h313e2a4adc25b073E>:
    80000216:	7179                	addi	sp,sp,-48
    80000218:	f406                	sd	ra,40(sp)
    8000021a:	862e                	mv	a2,a1
    8000021c:	4681                	li	a3,0
    8000021e:	d236                	sw	a3,36(sp)
    80000220:	1054                	addi	a3,sp,36
    80000222:	4711                	li	a4,4
    80000224:	ec2a                	sd	a0,24(sp)
    80000226:	852e                	mv	a0,a1
    80000228:	85b6                	mv	a1,a3
    8000022a:	e832                	sd	a2,16(sp)
    8000022c:	863a                	mv	a2,a4
    8000022e:	00001097          	auipc	ra,0x1
    80000232:	906080e7          	jalr	-1786(ra) # 80000b34 <_ZN4core4char7methods22_$LT$impl$u20$char$GT$11encode_utf817hc6d6808654a2c1aeE>
    80000236:	6662                	ld	a2,24(sp)
    80000238:	e42a                	sd	a0,8(sp)
    8000023a:	8532                	mv	a0,a2
    8000023c:	66a2                	ld	a3,8(sp)
    8000023e:	e02e                	sd	a1,0(sp)
    80000240:	85b6                	mv	a1,a3
    80000242:	6602                	ld	a2,0(sp)
    80000244:	00001097          	auipc	ra,0x1
    80000248:	44e080e7          	jalr	1102(ra) # 80001692 <_ZN72_$LT$main..panic..InternalTerminalStruct$u20$as$u20$core..fmt..Write$GT$9write_str17h0fb862db8b87992cE>
    8000024c:	70a2                	ld	ra,40(sp)
    8000024e:	6145                	addi	sp,sp,48
    80000250:	8082                	ret

0000000080000252 <_ZN4core3fmt5Write10write_char17h3bfbe1ceed0b7818E>:
    80000252:	7179                	addi	sp,sp,-48
    80000254:	f406                	sd	ra,40(sp)
    80000256:	862e                	mv	a2,a1
    80000258:	4681                	li	a3,0
    8000025a:	d236                	sw	a3,36(sp)
    8000025c:	1054                	addi	a3,sp,36
    8000025e:	4711                	li	a4,4
    80000260:	ec2a                	sd	a0,24(sp)
    80000262:	852e                	mv	a0,a1
    80000264:	85b6                	mv	a1,a3
    80000266:	e832                	sd	a2,16(sp)
    80000268:	863a                	mv	a2,a4
    8000026a:	00001097          	auipc	ra,0x1
    8000026e:	8ca080e7          	jalr	-1846(ra) # 80000b34 <_ZN4core4char7methods22_$LT$impl$u20$char$GT$11encode_utf817hc6d6808654a2c1aeE>
    80000272:	6662                	ld	a2,24(sp)
    80000274:	e42a                	sd	a0,8(sp)
    80000276:	8532                	mv	a0,a2
    80000278:	66a2                	ld	a3,8(sp)
    8000027a:	e02e                	sd	a1,0(sp)
    8000027c:	85b6                	mv	a1,a3
    8000027e:	6602                	ld	a2,0(sp)
    80000280:	00001097          	auipc	ra,0x1
    80000284:	464080e7          	jalr	1124(ra) # 800016e4 <_ZN72_$LT$main..panic..InternalTerminalStruct$u20$as$u20$core..fmt..Write$GT$9write_str17h317868fcad7f8653E>
    80000288:	70a2                	ld	ra,40(sp)
    8000028a:	6145                	addi	sp,sp,48
    8000028c:	8082                	ret

000000008000028e <_ZN4core3fmt5Write10write_char17hd69353662a139e3aE>:
    8000028e:	7179                	addi	sp,sp,-48
    80000290:	f406                	sd	ra,40(sp)
    80000292:	862e                	mv	a2,a1
    80000294:	4681                	li	a3,0
    80000296:	d236                	sw	a3,36(sp)
    80000298:	1054                	addi	a3,sp,36
    8000029a:	4711                	li	a4,4
    8000029c:	ec2a                	sd	a0,24(sp)
    8000029e:	852e                	mv	a0,a1
    800002a0:	85b6                	mv	a1,a3
    800002a2:	e832                	sd	a2,16(sp)
    800002a4:	863a                	mv	a2,a4
    800002a6:	00001097          	auipc	ra,0x1
    800002aa:	88e080e7          	jalr	-1906(ra) # 80000b34 <_ZN4core4char7methods22_$LT$impl$u20$char$GT$11encode_utf817hc6d6808654a2c1aeE>
    800002ae:	6662                	ld	a2,24(sp)
    800002b0:	e42a                	sd	a0,8(sp)
    800002b2:	8532                	mv	a0,a2
    800002b4:	66a2                	ld	a3,8(sp)
    800002b6:	e02e                	sd	a1,0(sp)
    800002b8:	85b6                	mv	a1,a3
    800002ba:	6602                	ld	a2,0(sp)
    800002bc:	00001097          	auipc	ra,0x1
    800002c0:	2e0080e7          	jalr	736(ra) # 8000159c <_ZN71_$LT$main..test..InternalTerminalStruct$u20$as$u20$core..fmt..Write$GT$9write_str17h658f28fd76b003f8E>
    800002c4:	70a2                	ld	ra,40(sp)
    800002c6:	6145                	addi	sp,sp,48
    800002c8:	8082                	ret

00000000800002ca <_ZN4core3fmt5Write9write_fmt17h14ffed2b7bc6523bE>:
    800002ca:	7139                	addi	sp,sp,-64
    800002cc:	fc06                	sd	ra,56(sp)
    800002ce:	e02a                	sd	a0,0(sp)
    800002d0:	6188                	ld	a0,0(a1)
    800002d2:	e42a                	sd	a0,8(sp)
    800002d4:	6588                	ld	a0,8(a1)
    800002d6:	e82a                	sd	a0,16(sp)
    800002d8:	6988                	ld	a0,16(a1)
    800002da:	ec2a                	sd	a0,24(sp)
    800002dc:	6d88                	ld	a0,24(a1)
    800002de:	f02a                	sd	a0,32(sp)
    800002e0:	7188                	ld	a0,32(a1)
    800002e2:	f42a                	sd	a0,40(sp)
    800002e4:	7588                	ld	a0,40(a1)
    800002e6:	f82a                	sd	a0,48(sp)
    800002e8:	00003597          	auipc	a1,0x3
    800002ec:	d4858593          	addi	a1,a1,-696 # 80003030 <point+0x8>
    800002f0:	850a                	mv	a0,sp
    800002f2:	0030                	addi	a2,sp,8
    800002f4:	00002097          	auipc	ra,0x2
    800002f8:	32c080e7          	jalr	812(ra) # 80002620 <_ZN4core3fmt5write17hfdbb7c2670a3d940E>
    800002fc:	70e2                	ld	ra,56(sp)
    800002fe:	6121                	addi	sp,sp,64
    80000300:	8082                	ret

0000000080000302 <_ZN4core3fmt5Write9write_fmt17h6189dbd65f2c0b73E>:
    80000302:	7139                	addi	sp,sp,-64
    80000304:	fc06                	sd	ra,56(sp)
    80000306:	e02a                	sd	a0,0(sp)
    80000308:	6188                	ld	a0,0(a1)
    8000030a:	e42a                	sd	a0,8(sp)
    8000030c:	6588                	ld	a0,8(a1)
    8000030e:	e82a                	sd	a0,16(sp)
    80000310:	6988                	ld	a0,16(a1)
    80000312:	ec2a                	sd	a0,24(sp)
    80000314:	6d88                	ld	a0,24(a1)
    80000316:	f02a                	sd	a0,32(sp)
    80000318:	7188                	ld	a0,32(a1)
    8000031a:	f42a                	sd	a0,40(sp)
    8000031c:	7588                	ld	a0,40(a1)
    8000031e:	f82a                	sd	a0,48(sp)
    80000320:	00003597          	auipc	a1,0x3
    80000324:	d4058593          	addi	a1,a1,-704 # 80003060 <point+0x38>
    80000328:	850a                	mv	a0,sp
    8000032a:	0030                	addi	a2,sp,8
    8000032c:	00002097          	auipc	ra,0x2
    80000330:	2f4080e7          	jalr	756(ra) # 80002620 <_ZN4core3fmt5write17hfdbb7c2670a3d940E>
    80000334:	70e2                	ld	ra,56(sp)
    80000336:	6121                	addi	sp,sp,64
    80000338:	8082                	ret

000000008000033a <_ZN4core3fmt5Write9write_fmt17hc87f7c7ddfec3b28E>:
    8000033a:	7139                	addi	sp,sp,-64
    8000033c:	fc06                	sd	ra,56(sp)
    8000033e:	e02a                	sd	a0,0(sp)
    80000340:	6188                	ld	a0,0(a1)
    80000342:	e42a                	sd	a0,8(sp)
    80000344:	6588                	ld	a0,8(a1)
    80000346:	e82a                	sd	a0,16(sp)
    80000348:	6988                	ld	a0,16(a1)
    8000034a:	ec2a                	sd	a0,24(sp)
    8000034c:	6d88                	ld	a0,24(a1)
    8000034e:	f02a                	sd	a0,32(sp)
    80000350:	7188                	ld	a0,32(a1)
    80000352:	f42a                	sd	a0,40(sp)
    80000354:	7588                	ld	a0,40(a1)
    80000356:	f82a                	sd	a0,48(sp)
    80000358:	00003597          	auipc	a1,0x3
    8000035c:	d3858593          	addi	a1,a1,-712 # 80003090 <point+0x68>
    80000360:	850a                	mv	a0,sp
    80000362:	0030                	addi	a2,sp,8
    80000364:	00002097          	auipc	ra,0x2
    80000368:	2bc080e7          	jalr	700(ra) # 80002620 <_ZN4core3fmt5write17hfdbb7c2670a3d940E>
    8000036c:	70e2                	ld	ra,56(sp)
    8000036e:	6121                	addi	sp,sp,64
    80000370:	8082                	ret

0000000080000372 <_ZN4core3fmt5Write9write_fmt17hd759890e748d84bbE>:
    80000372:	7139                	addi	sp,sp,-64
    80000374:	fc06                	sd	ra,56(sp)
    80000376:	e02a                	sd	a0,0(sp)
    80000378:	6188                	ld	a0,0(a1)
    8000037a:	e42a                	sd	a0,8(sp)
    8000037c:	6588                	ld	a0,8(a1)
    8000037e:	e82a                	sd	a0,16(sp)
    80000380:	6988                	ld	a0,16(a1)
    80000382:	ec2a                	sd	a0,24(sp)
    80000384:	6d88                	ld	a0,24(a1)
    80000386:	f02a                	sd	a0,32(sp)
    80000388:	7188                	ld	a0,32(a1)
    8000038a:	f42a                	sd	a0,40(sp)
    8000038c:	7588                	ld	a0,40(a1)
    8000038e:	f82a                	sd	a0,48(sp)
    80000390:	00003597          	auipc	a1,0x3
    80000394:	d3058593          	addi	a1,a1,-720 # 800030c0 <point+0x98>
    80000398:	850a                	mv	a0,sp
    8000039a:	0030                	addi	a2,sp,8
    8000039c:	00002097          	auipc	ra,0x2
    800003a0:	284080e7          	jalr	644(ra) # 80002620 <_ZN4core3fmt5write17hfdbb7c2670a3d940E>
    800003a4:	70e2                	ld	ra,56(sp)
    800003a6:	6121                	addi	sp,sp,64
    800003a8:	8082                	ret

00000000800003aa <_ZN4core3fmt5Write9write_fmt17hfb225cb6e35b7615E>:
    800003aa:	7139                	addi	sp,sp,-64
    800003ac:	fc06                	sd	ra,56(sp)
    800003ae:	e02a                	sd	a0,0(sp)
    800003b0:	6188                	ld	a0,0(a1)
    800003b2:	e42a                	sd	a0,8(sp)
    800003b4:	6588                	ld	a0,8(a1)
    800003b6:	e82a                	sd	a0,16(sp)
    800003b8:	6988                	ld	a0,16(a1)
    800003ba:	ec2a                	sd	a0,24(sp)
    800003bc:	6d88                	ld	a0,24(a1)
    800003be:	f02a                	sd	a0,32(sp)
    800003c0:	7188                	ld	a0,32(a1)
    800003c2:	f42a                	sd	a0,40(sp)
    800003c4:	7588                	ld	a0,40(a1)
    800003c6:	f82a                	sd	a0,48(sp)
    800003c8:	00003597          	auipc	a1,0x3
    800003cc:	d2858593          	addi	a1,a1,-728 # 800030f0 <point+0xc8>
    800003d0:	850a                	mv	a0,sp
    800003d2:	0030                	addi	a2,sp,8
    800003d4:	00002097          	auipc	ra,0x2
    800003d8:	24c080e7          	jalr	588(ra) # 80002620 <_ZN4core3fmt5write17hfdbb7c2670a3d940E>
    800003dc:	70e2                	ld	ra,56(sp)
    800003de:	6121                	addi	sp,sp,64
    800003e0:	8082                	ret

00000000800003e2 <_ZN4core3fmt9Arguments6new_v117h5b30265b08afbc6eE>:
    800003e2:	1141                	addi	sp,sp,-16
    800003e4:	4781                	li	a5,0
    800003e6:	e03e                	sd	a5,0(sp)
    800003e8:	e10c                	sd	a1,0(a0)
    800003ea:	e510                	sd	a2,8(a0)
    800003ec:	6582                	ld	a1,0(sp)
    800003ee:	6622                	ld	a2,8(sp)
    800003f0:	e90c                	sd	a1,16(a0)
    800003f2:	ed10                	sd	a2,24(a0)
    800003f4:	f114                	sd	a3,32(a0)
    800003f6:	f518                	sd	a4,40(a0)
    800003f8:	0141                	addi	sp,sp,16
    800003fa:	8082                	ret

00000000800003fc <_ZN4core3mem12maybe_uninit20MaybeUninit$LT$T$GT$10as_mut_ptr17hf3133e757a316c5aE>:
    800003fc:	8082                	ret

00000000800003fe <_ZN4core3mem12maybe_uninit20MaybeUninit$LT$T$GT$10as_mut_ptr17hf9cc0e1c1b1fb1c7E>:
    800003fe:	8082                	ret

0000000080000400 <_ZN4core3mem12maybe_uninit20MaybeUninit$LT$T$GT$10as_mut_ptr17hfa5266f4a9f987ceE>:
    80000400:	8082                	ret

0000000080000402 <_ZN4core3mem12maybe_uninit20MaybeUninit$LT$T$GT$11assume_init17h58823d1bbcaea228E>:
    80000402:	1141                	addi	sp,sp,-16
    80000404:	e406                	sd	ra,8(sp)
    80000406:	85aa                	mv	a1,a0
    80000408:	e02e                	sd	a1,0(sp)
    8000040a:	00000097          	auipc	ra,0x0
    8000040e:	022080e7          	jalr	34(ra) # 8000042c <_ZN4core3mem13manually_drop21ManuallyDrop$LT$T$GT$10into_inner17hd4c133d3cc3597bdE>
    80000412:	60a2                	ld	ra,8(sp)
    80000414:	0141                	addi	sp,sp,16
    80000416:	8082                	ret

0000000080000418 <_ZN4core3mem12maybe_uninit20MaybeUninit$LT$T$GT$6uninit17h3131fc1774874b9fE>:
    80000418:	1141                	addi	sp,sp,-16
    8000041a:	4512                	lw	a0,4(sp)
    8000041c:	0141                	addi	sp,sp,16
    8000041e:	8082                	ret

0000000080000420 <_ZN4core3mem12maybe_uninit20MaybeUninit$LT$T$GT$6uninit17h356fd329b70cdf88E>:
    80000420:	1141                	addi	sp,sp,-16
    80000422:	0141                	addi	sp,sp,16
    80000424:	8082                	ret

0000000080000426 <_ZN4core3mem12maybe_uninit20MaybeUninit$LT$T$GT$6uninit17h48a81a167b3ffebbE>:
    80000426:	1141                	addi	sp,sp,-16
    80000428:	0141                	addi	sp,sp,16
    8000042a:	8082                	ret

000000008000042c <_ZN4core3mem13manually_drop21ManuallyDrop$LT$T$GT$10into_inner17hd4c133d3cc3597bdE>:
    8000042c:	85aa                	mv	a1,a0
    8000042e:	8082                	ret

0000000080000430 <_ZN4core3mem4swap17h7138d7c415ac5e1eE>:
    80000430:	1141                	addi	sp,sp,-16
    80000432:	e406                	sd	ra,8(sp)
    80000434:	00000097          	auipc	ra,0x0
    80000438:	0a6080e7          	jalr	166(ra) # 800004da <_ZN4core3ptr23swap_nonoverlapping_one17hc5273d53809f096bE>
    8000043c:	60a2                	ld	ra,8(sp)
    8000043e:	0141                	addi	sp,sp,16
    80000440:	8082                	ret

0000000080000442 <_ZN4core3mem7replace17h58f1910041f9e98cE>:
    80000442:	7179                	addi	sp,sp,-48
    80000444:	f406                	sd	ra,40(sp)
    80000446:	862e                	mv	a2,a1
    80000448:	ca2e                	sw	a1,20(sp)
    8000044a:	084c                	addi	a1,sp,20
    8000044c:	e432                	sd	a2,8(sp)
    8000044e:	00000097          	auipc	ra,0x0
    80000452:	fe2080e7          	jalr	-30(ra) # 80000430 <_ZN4core3mem4swap17h7138d7c415ac5e1eE>
    80000456:	4552                	lw	a0,20(sp)
    80000458:	70a2                	ld	ra,40(sp)
    8000045a:	6145                	addi	sp,sp,48
    8000045c:	8082                	ret

000000008000045e <_ZN4core3mem7size_of17h3f40db87ffefcd91E>:
    8000045e:	1141                	addi	sp,sp,-16
    80000460:	4505                	li	a0,1
    80000462:	e42a                	sd	a0,8(sp)
    80000464:	0141                	addi	sp,sp,16
    80000466:	8082                	ret

0000000080000468 <_ZN4core3mem7size_of17h7db91f8f921ea98cE>:
    80000468:	1141                	addi	sp,sp,-16
    8000046a:	4511                	li	a0,4
    8000046c:	e42a                	sd	a0,8(sp)
    8000046e:	0141                	addi	sp,sp,16
    80000470:	8082                	ret

0000000080000472 <_ZN4core3mem7size_of17hbce675de9b4f9e89E>:
    80000472:	1141                	addi	sp,sp,-16
    80000474:	02000513          	li	a0,32
    80000478:	e42a                	sd	a0,8(sp)
    8000047a:	0141                	addi	sp,sp,16
    8000047c:	8082                	ret

000000008000047e <_ZN4core3num21_$LT$impl$u20$i32$GT$13unchecked_add17hb7baeb7ffac3d159E>:
    8000047e:	1141                	addi	sp,sp,-16
    80000480:	862e                	mv	a2,a1
    80000482:	86aa                	mv	a3,a0
    80000484:	00b5073b          	addw	a4,a0,a1
    80000488:	952e                	add	a0,a0,a1
    8000048a:	c62a                	sw	a0,12(sp)
    8000048c:	853a                	mv	a0,a4
    8000048e:	0141                	addi	sp,sp,16
    80000490:	8082                	ret

0000000080000492 <_ZN4core3ptr13drop_in_place17h0abd15e9e0c5a486E>:
    80000492:	1141                	addi	sp,sp,-16
    80000494:	0141                	addi	sp,sp,16
    80000496:	8082                	ret

0000000080000498 <_ZN4core3ptr13drop_in_place17h5416e7492d58a19cE>:
    80000498:	1141                	addi	sp,sp,-16
    8000049a:	0141                	addi	sp,sp,16
    8000049c:	8082                	ret

000000008000049e <_ZN4core3ptr13drop_in_place17h86d0e5b703edc0baE>:
    8000049e:	1141                	addi	sp,sp,-16
    800004a0:	0141                	addi	sp,sp,16
    800004a2:	8082                	ret

00000000800004a4 <_ZN4core3ptr13drop_in_place17ha589032ce9430742E>:
    800004a4:	1141                	addi	sp,sp,-16
    800004a6:	0141                	addi	sp,sp,16
    800004a8:	8082                	ret

00000000800004aa <_ZN4core3ptr13drop_in_place17hb852785f97bc591cE>:
    800004aa:	1141                	addi	sp,sp,-16
    800004ac:	0141                	addi	sp,sp,16
    800004ae:	8082                	ret

00000000800004b0 <_ZN4core3ptr19swap_nonoverlapping17hde424540d8b0a3dfE>:
    800004b0:	1101                	addi	sp,sp,-32
    800004b2:	ec06                	sd	ra,24(sp)
    800004b4:	e832                	sd	a2,16(sp)
    800004b6:	e42e                	sd	a1,8(sp)
    800004b8:	e02a                	sd	a0,0(sp)
    800004ba:	00000097          	auipc	ra,0x0
    800004be:	fae080e7          	jalr	-82(ra) # 80000468 <_ZN4core3mem7size_of17h7db91f8f921ea98cE>
    800004c2:	65c2                	ld	a1,16(sp)
    800004c4:	02b50633          	mul	a2,a0,a1
    800004c8:	6502                	ld	a0,0(sp)
    800004ca:	65a2                	ld	a1,8(sp)
    800004cc:	00000097          	auipc	ra,0x0
    800004d0:	096080e7          	jalr	150(ra) # 80000562 <_ZN4core3ptr25swap_nonoverlapping_bytes17hea1090d3cc2cd31cE>
    800004d4:	60e2                	ld	ra,24(sp)
    800004d6:	6105                	addi	sp,sp,32
    800004d8:	8082                	ret

00000000800004da <_ZN4core3ptr23swap_nonoverlapping_one17hc5273d53809f096bE>:
    800004da:	715d                	addi	sp,sp,-80
    800004dc:	e486                	sd	ra,72(sp)
    800004de:	4601                	li	a2,0
    800004e0:	02c10ba3          	sb	a2,55(sp)
    800004e4:	f42e                	sd	a1,40(sp)
    800004e6:	f02a                	sd	a0,32(sp)
    800004e8:	00000097          	auipc	ra,0x0
    800004ec:	f80080e7          	jalr	-128(ra) # 80000468 <_ZN4core3mem7size_of17h7db91f8f921ea98cE>
    800004f0:	02000593          	li	a1,32
    800004f4:	00b56b63          	bltu	a0,a1,8000050a <_ZN4core3ptr23swap_nonoverlapping_one17hc5273d53809f096bE+0x30>
    800004f8:	a009                	j	800004fa <_ZN4core3ptr23swap_nonoverlapping_one17hc5273d53809f096bE+0x20>
    800004fa:	4605                	li	a2,1
    800004fc:	7502                	ld	a0,32(sp)
    800004fe:	75a2                	ld	a1,40(sp)
    80000500:	00000097          	auipc	ra,0x0
    80000504:	fb0080e7          	jalr	-80(ra) # 800004b0 <_ZN4core3ptr19swap_nonoverlapping17hde424540d8b0a3dfE>
    80000508:	a099                	j	8000054e <_ZN4core3ptr23swap_nonoverlapping_one17hc5273d53809f096bE+0x74>
    8000050a:	4505                	li	a0,1
    8000050c:	02a10ba3          	sb	a0,55(sp)
    80000510:	7582                	ld	a1,32(sp)
    80000512:	ec2a                	sd	a0,24(sp)
    80000514:	852e                	mv	a0,a1
    80000516:	00000097          	auipc	ra,0x0
    8000051a:	176080e7          	jalr	374(ra) # 8000068c <_ZN4core3ptr4read17h37e1083bf2d7add9E>
    8000051e:	75a2                	ld	a1,40(sp)
    80000520:	e82a                	sd	a0,16(sp)
    80000522:	852e                	mv	a0,a1
    80000524:	7582                	ld	a1,32(sp)
    80000526:	6662                	ld	a2,24(sp)
    80000528:	00000097          	auipc	ra,0x0
    8000052c:	c0c080e7          	jalr	-1012(ra) # 80000134 <_ZN4core10intrinsics19copy_nonoverlapping17ha379d0d67ef5787dE>
    80000530:	4501                	li	a0,0
    80000532:	02a10ba3          	sb	a0,55(sp)
    80000536:	75a2                	ld	a1,40(sp)
    80000538:	e42a                	sd	a0,8(sp)
    8000053a:	852e                	mv	a0,a1
    8000053c:	65c2                	ld	a1,16(sp)
    8000053e:	00000097          	auipc	ra,0x0
    80000542:	18a080e7          	jalr	394(ra) # 800006c8 <_ZN4core3ptr5write17h246520c56c73c72fE>
    80000546:	6522                	ld	a0,8(sp)
    80000548:	02a10ba3          	sb	a0,55(sp)
    8000054c:	a009                	j	8000054e <_ZN4core3ptr23swap_nonoverlapping_one17hc5273d53809f096bE+0x74>
    8000054e:	60a6                	ld	ra,72(sp)
    80000550:	6161                	addi	sp,sp,80
    80000552:	8082                	ret

0000000080000554 <_ZN4core3ptr24slice_from_raw_parts_mut17h6c8e9fe076134ba9E>:
    80000554:	1101                	addi	sp,sp,-32
    80000556:	e82a                	sd	a0,16(sp)
    80000558:	ec2e                	sd	a1,24(sp)
    8000055a:	e02a                	sd	a0,0(sp)
    8000055c:	e42e                	sd	a1,8(sp)
    8000055e:	6105                	addi	sp,sp,32
    80000560:	8082                	ret

0000000080000562 <_ZN4core3ptr25swap_nonoverlapping_bytes17hea1090d3cc2cd31cE>:
    80000562:	7111                	addi	sp,sp,-256
    80000564:	fd86                	sd	ra,248(sp)
    80000566:	f9a2                	sd	s0,240(sp)
    80000568:	0200                	addi	s0,sp,256
    8000056a:	fe017113          	andi	sp,sp,-32
    8000056e:	e532                	sd	a2,136(sp)
    80000570:	e12e                	sd	a1,128(sp)
    80000572:	fcaa                	sd	a0,120(sp)
    80000574:	00000097          	auipc	ra,0x0
    80000578:	efe080e7          	jalr	-258(ra) # 80000472 <_ZN4core3mem7size_of17hbce675de9b4f9e89E>
    8000057c:	4581                	li	a1,0
    8000057e:	ed2e                	sd	a1,152(sp)
    80000580:	f8aa                	sd	a0,112(sp)
    80000582:	a009                	j	80000584 <_ZN4core3ptr25swap_nonoverlapping_bytes17hea1090d3cc2cd31cE+0x22>
    80000584:	656a                	ld	a0,152(sp)
    80000586:	75c6                	ld	a1,112(sp)
    80000588:	952e                	add	a0,a0,a1
    8000058a:	662a                	ld	a2,136(sp)
    8000058c:	00a67863          	bgeu	a2,a0,8000059c <_ZN4core3ptr25swap_nonoverlapping_bytes17hea1090d3cc2cd31cE+0x3a>
    80000590:	a009                	j	80000592 <_ZN4core3ptr25swap_nonoverlapping_bytes17hea1090d3cc2cd31cE+0x30>
    80000592:	656a                	ld	a0,152(sp)
    80000594:	65aa                	ld	a1,136(sp)
    80000596:	06b56a63          	bltu	a0,a1,8000060a <_ZN4core3ptr25swap_nonoverlapping_bytes17hea1090d3cc2cd31cE+0xa8>
    8000059a:	a0cd                	j	8000067c <_ZN4core3ptr25swap_nonoverlapping_bytes17hea1090d3cc2cd31cE+0x11a>
    8000059c:	1108                	addi	a0,sp,160
    8000059e:	f4aa                	sd	a0,104(sp)
    800005a0:	00000097          	auipc	ra,0x0
    800005a4:	e86080e7          	jalr	-378(ra) # 80000426 <_ZN4core3mem12maybe_uninit20MaybeUninit$LT$T$GT$6uninit17h48a81a167b3ffebbE>
    800005a8:	7526                	ld	a0,104(sp)
    800005aa:	00000097          	auipc	ra,0x0
    800005ae:	e56080e7          	jalr	-426(ra) # 80000400 <_ZN4core3mem12maybe_uninit20MaybeUninit$LT$T$GT$10as_mut_ptr17hfa5266f4a9f987ceE>
    800005b2:	65ea                	ld	a1,152(sp)
    800005b4:	7666                	ld	a2,120(sp)
    800005b6:	f0aa                	sd	a0,96(sp)
    800005b8:	8532                	mv	a0,a2
    800005ba:	00000097          	auipc	ra,0x0
    800005be:	128080e7          	jalr	296(ra) # 800006e2 <_ZN4core3ptr7mut_ptr31_$LT$impl$u20$$BP$mut$u20$T$GT$3add17hbf57ab5661014a8fE>
    800005c2:	65ea                	ld	a1,152(sp)
    800005c4:	660a                	ld	a2,128(sp)
    800005c6:	ecaa                	sd	a0,88(sp)
    800005c8:	8532                	mv	a0,a2
    800005ca:	00000097          	auipc	ra,0x0
    800005ce:	118080e7          	jalr	280(ra) # 800006e2 <_ZN4core3ptr7mut_ptr31_$LT$impl$u20$$BP$mut$u20$T$GT$3add17hbf57ab5661014a8fE>
    800005d2:	65e6                	ld	a1,88(sp)
    800005d4:	e8aa                	sd	a0,80(sp)
    800005d6:	852e                	mv	a0,a1
    800005d8:	7586                	ld	a1,96(sp)
    800005da:	7646                	ld	a2,112(sp)
    800005dc:	00000097          	auipc	ra,0x0
    800005e0:	b40080e7          	jalr	-1216(ra) # 8000011c <_ZN4core10intrinsics19copy_nonoverlapping17h32669512e56f42d5E>
    800005e4:	6546                	ld	a0,80(sp)
    800005e6:	65e6                	ld	a1,88(sp)
    800005e8:	7646                	ld	a2,112(sp)
    800005ea:	00000097          	auipc	ra,0x0
    800005ee:	b32080e7          	jalr	-1230(ra) # 8000011c <_ZN4core10intrinsics19copy_nonoverlapping17h32669512e56f42d5E>
    800005f2:	7506                	ld	a0,96(sp)
    800005f4:	65c6                	ld	a1,80(sp)
    800005f6:	7646                	ld	a2,112(sp)
    800005f8:	00000097          	auipc	ra,0x0
    800005fc:	b24080e7          	jalr	-1244(ra) # 8000011c <_ZN4core10intrinsics19copy_nonoverlapping17h32669512e56f42d5E>
    80000600:	656a                	ld	a0,152(sp)
    80000602:	75c6                	ld	a1,112(sp)
    80000604:	952e                	add	a0,a0,a1
    80000606:	ed2a                	sd	a0,152(sp)
    80000608:	bfb5                	j	80000584 <_ZN4core3ptr25swap_nonoverlapping_bytes17hea1090d3cc2cd31cE+0x22>
    8000060a:	0988                	addi	a0,sp,208
    8000060c:	e4aa                	sd	a0,72(sp)
    8000060e:	00000097          	auipc	ra,0x0
    80000612:	e12080e7          	jalr	-494(ra) # 80000420 <_ZN4core3mem12maybe_uninit20MaybeUninit$LT$T$GT$6uninit17h356fd329b70cdf88E>
    80000616:	656a                	ld	a0,152(sp)
    80000618:	65aa                	ld	a1,136(sp)
    8000061a:	40a58533          	sub	a0,a1,a0
    8000061e:	6626                	ld	a2,72(sp)
    80000620:	e0aa                	sd	a0,64(sp)
    80000622:	8532                	mv	a0,a2
    80000624:	00000097          	auipc	ra,0x0
    80000628:	dda080e7          	jalr	-550(ra) # 800003fe <_ZN4core3mem12maybe_uninit20MaybeUninit$LT$T$GT$10as_mut_ptr17hf9cc0e1c1b1fb1c7E>
    8000062c:	65ea                	ld	a1,152(sp)
    8000062e:	7666                	ld	a2,120(sp)
    80000630:	fc2a                	sd	a0,56(sp)
    80000632:	8532                	mv	a0,a2
    80000634:	00000097          	auipc	ra,0x0
    80000638:	0ae080e7          	jalr	174(ra) # 800006e2 <_ZN4core3ptr7mut_ptr31_$LT$impl$u20$$BP$mut$u20$T$GT$3add17hbf57ab5661014a8fE>
    8000063c:	65ea                	ld	a1,152(sp)
    8000063e:	660a                	ld	a2,128(sp)
    80000640:	f82a                	sd	a0,48(sp)
    80000642:	8532                	mv	a0,a2
    80000644:	00000097          	auipc	ra,0x0
    80000648:	09e080e7          	jalr	158(ra) # 800006e2 <_ZN4core3ptr7mut_ptr31_$LT$impl$u20$$BP$mut$u20$T$GT$3add17hbf57ab5661014a8fE>
    8000064c:	75c2                	ld	a1,48(sp)
    8000064e:	f42a                	sd	a0,40(sp)
    80000650:	852e                	mv	a0,a1
    80000652:	75e2                	ld	a1,56(sp)
    80000654:	6606                	ld	a2,64(sp)
    80000656:	00000097          	auipc	ra,0x0
    8000065a:	ac6080e7          	jalr	-1338(ra) # 8000011c <_ZN4core10intrinsics19copy_nonoverlapping17h32669512e56f42d5E>
    8000065e:	7522                	ld	a0,40(sp)
    80000660:	75c2                	ld	a1,48(sp)
    80000662:	6606                	ld	a2,64(sp)
    80000664:	00000097          	auipc	ra,0x0
    80000668:	ab8080e7          	jalr	-1352(ra) # 8000011c <_ZN4core10intrinsics19copy_nonoverlapping17h32669512e56f42d5E>
    8000066c:	7562                	ld	a0,56(sp)
    8000066e:	75a2                	ld	a1,40(sp)
    80000670:	6606                	ld	a2,64(sp)
    80000672:	00000097          	auipc	ra,0x0
    80000676:	aaa080e7          	jalr	-1366(ra) # 8000011c <_ZN4core10intrinsics19copy_nonoverlapping17h32669512e56f42d5E>
    8000067a:	a009                	j	8000067c <_ZN4core3ptr25swap_nonoverlapping_bytes17hea1090d3cc2cd31cE+0x11a>
    8000067c:	f0040113          	addi	sp,s0,-256
    80000680:	744e                	ld	s0,240(sp)
    80000682:	70ee                	ld	ra,248(sp)
    80000684:	6111                	addi	sp,sp,256
    80000686:	8082                	ret

0000000080000688 <_ZN4core3ptr4null17hb4a269ecd696117cE>:
    80000688:	4501                	li	a0,0
    8000068a:	8082                	ret

000000008000068c <_ZN4core3ptr4read17h37e1083bf2d7add9E>:
    8000068c:	1101                	addi	sp,sp,-32
    8000068e:	ec06                	sd	ra,24(sp)
    80000690:	e42a                	sd	a0,8(sp)
    80000692:	00000097          	auipc	ra,0x0
    80000696:	d86080e7          	jalr	-634(ra) # 80000418 <_ZN4core3mem12maybe_uninit20MaybeUninit$LT$T$GT$6uninit17h3131fc1774874b9fE>
    8000069a:	ca2a                	sw	a0,20(sp)
    8000069c:	0848                	addi	a0,sp,20
    8000069e:	00000097          	auipc	ra,0x0
    800006a2:	d5e080e7          	jalr	-674(ra) # 800003fc <_ZN4core3mem12maybe_uninit20MaybeUninit$LT$T$GT$10as_mut_ptr17hf3133e757a316c5aE>
    800006a6:	4605                	li	a2,1
    800006a8:	65a2                	ld	a1,8(sp)
    800006aa:	e02a                	sd	a0,0(sp)
    800006ac:	852e                	mv	a0,a1
    800006ae:	6582                	ld	a1,0(sp)
    800006b0:	00000097          	auipc	ra,0x0
    800006b4:	a84080e7          	jalr	-1404(ra) # 80000134 <_ZN4core10intrinsics19copy_nonoverlapping17ha379d0d67ef5787dE>
    800006b8:	4552                	lw	a0,20(sp)
    800006ba:	00000097          	auipc	ra,0x0
    800006be:	d48080e7          	jalr	-696(ra) # 80000402 <_ZN4core3mem12maybe_uninit20MaybeUninit$LT$T$GT$11assume_init17h58823d1bbcaea228E>
    800006c2:	60e2                	ld	ra,24(sp)
    800006c4:	6105                	addi	sp,sp,32
    800006c6:	8082                	ret

00000000800006c8 <_ZN4core3ptr5write17h246520c56c73c72fE>:
    800006c8:	1141                	addi	sp,sp,-16
    800006ca:	862e                	mv	a2,a1
    800006cc:	c10c                	sw	a1,0(a0)
    800006ce:	0141                	addi	sp,sp,16
    800006d0:	8082                	ret

00000000800006d2 <_ZN4core3ptr7mut_ptr31_$LT$impl$u20$$BP$mut$u20$T$GT$13guaranteed_eq17h81da283228e02ae1E>:
    800006d2:	1141                	addi	sp,sp,-16
    800006d4:	8d2d                	xor	a0,a0,a1
    800006d6:	00153513          	seqz	a0,a0
    800006da:	00a107a3          	sb	a0,15(sp)
    800006de:	0141                	addi	sp,sp,16
    800006e0:	8082                	ret

00000000800006e2 <_ZN4core3ptr7mut_ptr31_$LT$impl$u20$$BP$mut$u20$T$GT$3add17hbf57ab5661014a8fE>:
    800006e2:	1141                	addi	sp,sp,-16
    800006e4:	e406                	sd	ra,8(sp)
    800006e6:	00000097          	auipc	ra,0x0
    800006ea:	00e080e7          	jalr	14(ra) # 800006f4 <_ZN4core3ptr7mut_ptr31_$LT$impl$u20$$BP$mut$u20$T$GT$6offset17hbdbe5f96a0c3526fE>
    800006ee:	60a2                	ld	ra,8(sp)
    800006f0:	0141                	addi	sp,sp,16
    800006f2:	8082                	ret

00000000800006f4 <_ZN4core3ptr7mut_ptr31_$LT$impl$u20$$BP$mut$u20$T$GT$6offset17hbdbe5f96a0c3526fE>:
    800006f4:	1141                	addi	sp,sp,-16
    800006f6:	952e                	add	a0,a0,a1
    800006f8:	e42a                	sd	a0,8(sp)
    800006fa:	0141                	addi	sp,sp,16
    800006fc:	8082                	ret

00000000800006fe <_ZN4core3ptr7mut_ptr31_$LT$impl$u20$$BP$mut$u20$T$GT$7is_null17hf76e879a55d9c912E>:
    800006fe:	1101                	addi	sp,sp,-32
    80000700:	ec06                	sd	ra,24(sp)
    80000702:	e82a                	sd	a0,16(sp)
    80000704:	00000097          	auipc	ra,0x0
    80000708:	02a080e7          	jalr	42(ra) # 8000072e <_ZN4core3ptr8null_mut17h705a7be6e34f0921E>
    8000070c:	65c2                	ld	a1,16(sp)
    8000070e:	e42a                	sd	a0,8(sp)
    80000710:	852e                	mv	a0,a1
    80000712:	65a2                	ld	a1,8(sp)
    80000714:	00000097          	auipc	ra,0x0
    80000718:	fbe080e7          	jalr	-66(ra) # 800006d2 <_ZN4core3ptr7mut_ptr31_$LT$impl$u20$$BP$mut$u20$T$GT$13guaranteed_eq17h81da283228e02ae1E>
    8000071c:	60e2                	ld	ra,24(sp)
    8000071e:	6105                	addi	sp,sp,32
    80000720:	8082                	ret

0000000080000722 <_ZN4core3ptr7mut_ptr41_$LT$impl$u20$$BP$mut$u20$$u5b$T$u5d$$GT$10as_mut_ptr17hc5721e54a5ca9cbeE>:
    80000722:	8082                	ret

0000000080000724 <_ZN4core3ptr8non_null16NonNull$LT$T$GT$13new_unchecked17h285d9dd25468d833E>:
    80000724:	1141                	addi	sp,sp,-16
    80000726:	e42a                	sd	a0,8(sp)
    80000728:	0141                	addi	sp,sp,16
    8000072a:	8082                	ret

000000008000072c <_ZN4core3ptr8non_null16NonNull$LT$T$GT$6as_ptr17ha364e7dc4c4c017fE>:
    8000072c:	8082                	ret

000000008000072e <_ZN4core3ptr8null_mut17h705a7be6e34f0921E>:
    8000072e:	4501                	li	a0,0
    80000730:	8082                	ret

0000000080000732 <_ZN4core3ptr9const_ptr33_$LT$impl$u20$$BP$const$u20$T$GT$12wrapping_add17hdc37a53c008a64faE>:
    80000732:	1141                	addi	sp,sp,-16
    80000734:	e406                	sd	ra,8(sp)
    80000736:	00000097          	auipc	ra,0x0
    8000073a:	01e080e7          	jalr	30(ra) # 80000754 <_ZN4core3ptr9const_ptr33_$LT$impl$u20$$BP$const$u20$T$GT$15wrapping_offset17h5243096fe1bc1337E>
    8000073e:	60a2                	ld	ra,8(sp)
    80000740:	0141                	addi	sp,sp,16
    80000742:	8082                	ret

0000000080000744 <_ZN4core3ptr9const_ptr33_$LT$impl$u20$$BP$const$u20$T$GT$13guaranteed_eq17h01c88e1d74cc4a4bE>:
    80000744:	1141                	addi	sp,sp,-16
    80000746:	8d2d                	xor	a0,a0,a1
    80000748:	00153513          	seqz	a0,a0
    8000074c:	00a107a3          	sb	a0,15(sp)
    80000750:	0141                	addi	sp,sp,16
    80000752:	8082                	ret

0000000080000754 <_ZN4core3ptr9const_ptr33_$LT$impl$u20$$BP$const$u20$T$GT$15wrapping_offset17h5243096fe1bc1337E>:
    80000754:	1141                	addi	sp,sp,-16
    80000756:	952e                	add	a0,a0,a1
    80000758:	e42a                	sd	a0,8(sp)
    8000075a:	0141                	addi	sp,sp,16
    8000075c:	8082                	ret

000000008000075e <_ZN4core3ptr9const_ptr33_$LT$impl$u20$$BP$const$u20$T$GT$3add17h4f8106d99b4d69f0E>:
    8000075e:	1141                	addi	sp,sp,-16
    80000760:	e406                	sd	ra,8(sp)
    80000762:	00000097          	auipc	ra,0x0
    80000766:	00e080e7          	jalr	14(ra) # 80000770 <_ZN4core3ptr9const_ptr33_$LT$impl$u20$$BP$const$u20$T$GT$6offset17h8e461d62c3e887eaE>
    8000076a:	60a2                	ld	ra,8(sp)
    8000076c:	0141                	addi	sp,sp,16
    8000076e:	8082                	ret

0000000080000770 <_ZN4core3ptr9const_ptr33_$LT$impl$u20$$BP$const$u20$T$GT$6offset17h8e461d62c3e887eaE>:
    80000770:	1141                	addi	sp,sp,-16
    80000772:	952e                	add	a0,a0,a1
    80000774:	e42a                	sd	a0,8(sp)
    80000776:	0141                	addi	sp,sp,16
    80000778:	8082                	ret

000000008000077a <_ZN4core3ptr9const_ptr33_$LT$impl$u20$$BP$const$u20$T$GT$7is_null17h55cea2ae11f2f979E>:
    8000077a:	1101                	addi	sp,sp,-32
    8000077c:	ec06                	sd	ra,24(sp)
    8000077e:	e82a                	sd	a0,16(sp)
    80000780:	00000097          	auipc	ra,0x0
    80000784:	f08080e7          	jalr	-248(ra) # 80000688 <_ZN4core3ptr4null17hb4a269ecd696117cE>
    80000788:	65c2                	ld	a1,16(sp)
    8000078a:	e42a                	sd	a0,8(sp)
    8000078c:	852e                	mv	a0,a1
    8000078e:	65a2                	ld	a1,8(sp)
    80000790:	00000097          	auipc	ra,0x0
    80000794:	fb4080e7          	jalr	-76(ra) # 80000744 <_ZN4core3ptr9const_ptr33_$LT$impl$u20$$BP$const$u20$T$GT$13guaranteed_eq17h01c88e1d74cc4a4bE>
    80000798:	60e2                	ld	ra,24(sp)
    8000079a:	6105                	addi	sp,sp,32
    8000079c:	8082                	ret

000000008000079e <_ZN4core3str11validations11unwrap_or_017h6ce1257ed996a28bE>:
    8000079e:	1141                	addi	sp,sp,-16
    800007a0:	e02a                	sd	a0,0(sp)
    800007a2:	4581                	li	a1,0
    800007a4:	00b51763          	bne	a0,a1,800007b2 <_ZN4core3str11validations11unwrap_or_017h6ce1257ed996a28bE+0x14>
    800007a8:	a009                	j	800007aa <_ZN4core3str11validations11unwrap_or_017h6ce1257ed996a28bE+0xc>
    800007aa:	4501                	li	a0,0
    800007ac:	00a107a3          	sb	a0,15(sp)
    800007b0:	a039                	j	800007be <_ZN4core3str11validations11unwrap_or_017h6ce1257ed996a28bE+0x20>
    800007b2:	6502                	ld	a0,0(sp)
    800007b4:	00050503          	lb	a0,0(a0)
    800007b8:	00a107a3          	sb	a0,15(sp)
    800007bc:	a009                	j	800007be <_ZN4core3str11validations11unwrap_or_017h6ce1257ed996a28bE+0x20>
    800007be:	00f10503          	lb	a0,15(sp)
    800007c2:	0141                	addi	sp,sp,16
    800007c4:	8082                	ret

00000000800007c6 <_ZN4core3str11validations15next_code_point17he8e495c947b1b4ecE>:
    800007c6:	7159                	addi	sp,sp,-112
    800007c8:	f486                	sd	ra,104(sp)
    800007ca:	e4aa                	sd	a0,72(sp)
    800007cc:	00001097          	auipc	ra,0x1
    800007d0:	800080e7          	jalr	-2048(ra) # 80000fcc <_ZN91_$LT$core..slice..iter..Iter$LT$T$GT$$u20$as$u20$core..iter..traits..iterator..Iterator$GT$4next17h023612bb33cf7b8fE>
    800007d4:	00000097          	auipc	ra,0x0
    800007d8:	7ae080e7          	jalr	1966(ra) # 80000f82 <_ZN69_$LT$core..option..Option$LT$T$GT$$u20$as$u20$core..ops..try..Try$GT$11into_result17habd757ebf9db451bE>
    800007dc:	ecaa                	sd	a0,88(sp)
    800007de:	4581                	li	a1,0
    800007e0:	00b50d63          	beq	a0,a1,800007fa <_ZN4core3str11validations15next_code_point17he8e495c947b1b4ecE+0x34>
    800007e4:	a009                	j	800007e6 <_ZN4core3str11validations15next_code_point17he8e495c947b1b4ecE+0x20>
    800007e6:	6566                	ld	a0,88(sp)
    800007e8:	00050503          	lb	a0,0(a0)
    800007ec:	0ff57593          	andi	a1,a0,255
    800007f0:	567d                	li	a2,-1
    800007f2:	e0ae                	sd	a1,64(sp)
    800007f4:	06a64363          	blt	a2,a0,8000085a <_ZN4core3str11validations15next_code_point17he8e495c947b1b4ecE+0x94>
    800007f8:	a821                	j	80000810 <_ZN4core3str11validations15next_code_point17he8e495c947b1b4ecE+0x4a>
    800007fa:	00000097          	auipc	ra,0x0
    800007fe:	772080e7          	jalr	1906(ra) # 80000f6c <_ZN50_$LT$T$u20$as$u20$core..convert..From$LT$T$GT$$GT$4from17h9201dc672112c2a6E>
    80000802:	00000097          	auipc	ra,0x0
    80000806:	774080e7          	jalr	1908(ra) # 80000f76 <_ZN69_$LT$core..option..Option$LT$T$GT$$u20$as$u20$core..ops..try..Try$GT$10from_error17h9d77fdd99fd547e8E>
    8000080a:	c8aa                	sw	a0,80(sp)
    8000080c:	caae                	sw	a1,84(sp)
    8000080e:	a8d1                	j	800008e2 <_ZN4core3str11validations15next_code_point17he8e495c947b1b4ecE+0x11c>
    80000810:	4589                	li	a1,2
    80000812:	6506                	ld	a0,64(sp)
    80000814:	00000097          	auipc	ra,0x0
    80000818:	0d8080e7          	jalr	216(ra) # 800008ec <_ZN4core3str11validations15utf8_first_byte17h1d30ecef13ee352bE>
    8000081c:	85aa                	mv	a1,a0
    8000081e:	6626                	ld	a2,72(sp)
    80000820:	fc2a                	sd	a0,56(sp)
    80000822:	8532                	mv	a0,a2
    80000824:	f82e                	sd	a1,48(sp)
    80000826:	00000097          	auipc	ra,0x0
    8000082a:	7a6080e7          	jalr	1958(ra) # 80000fcc <_ZN91_$LT$core..slice..iter..Iter$LT$T$GT$$u20$as$u20$core..iter..traits..iterator..Iterator$GT$4next17h023612bb33cf7b8fE>
    8000082e:	00000097          	auipc	ra,0x0
    80000832:	f70080e7          	jalr	-144(ra) # 8000079e <_ZN4core3str11validations11unwrap_or_017h6ce1257ed996a28bE>
    80000836:	85aa                	mv	a1,a0
    80000838:	7662                	ld	a2,56(sp)
    8000083a:	f42a                	sd	a0,40(sp)
    8000083c:	8532                	mv	a0,a2
    8000083e:	76a2                	ld	a3,40(sp)
    80000840:	f02e                	sd	a1,32(sp)
    80000842:	85b6                	mv	a1,a3
    80000844:	00000097          	auipc	ra,0x0
    80000848:	0ba080e7          	jalr	186(ra) # 800008fe <_ZN4core3str11validations18utf8_acc_cont_byte17h90a510a118fd0f9fE>
    8000084c:	d2aa                	sw	a0,100(sp)
    8000084e:	0df00513          	li	a0,223
    80000852:	6586                	ld	a1,64(sp)
    80000854:	00b56863          	bltu	a0,a1,80000864 <_ZN4core3str11validations15next_code_point17he8e495c947b1b4ecE+0x9e>
    80000858:	a041                	j	800008d8 <_ZN4core3str11validations15next_code_point17he8e495c947b1b4ecE+0x112>
    8000085a:	6506                	ld	a0,64(sp)
    8000085c:	caaa                	sw	a0,84(sp)
    8000085e:	4585                	li	a1,1
    80000860:	c8ae                	sw	a1,80(sp)
    80000862:	a041                	j	800008e2 <_ZN4core3str11validations15next_code_point17he8e495c947b1b4ecE+0x11c>
    80000864:	6526                	ld	a0,72(sp)
    80000866:	00000097          	auipc	ra,0x0
    8000086a:	766080e7          	jalr	1894(ra) # 80000fcc <_ZN91_$LT$core..slice..iter..Iter$LT$T$GT$$u20$as$u20$core..iter..traits..iterator..Iterator$GT$4next17h023612bb33cf7b8fE>
    8000086e:	00000097          	auipc	ra,0x0
    80000872:	f30080e7          	jalr	-208(ra) # 8000079e <_ZN4core3str11validations11unwrap_or_017h6ce1257ed996a28bE>
    80000876:	7582                	ld	a1,32(sp)
    80000878:	03f5f613          	andi	a2,a1,63
    8000087c:	ec2a                	sd	a0,24(sp)
    8000087e:	8532                	mv	a0,a2
    80000880:	65e2                	ld	a1,24(sp)
    80000882:	00000097          	auipc	ra,0x0
    80000886:	07c080e7          	jalr	124(ra) # 800008fe <_ZN4core3str11validations18utf8_acc_cont_byte17h90a510a118fd0f9fE>
    8000088a:	85aa                	mv	a1,a0
    8000088c:	7642                	ld	a2,48(sp)
    8000088e:	00c61693          	slli	a3,a2,0xc
    80000892:	8d55                	or	a0,a0,a3
    80000894:	d2aa                	sw	a0,100(sp)
    80000896:	0f000513          	li	a0,240
    8000089a:	6686                	ld	a3,64(sp)
    8000089c:	e82e                	sd	a1,16(sp)
    8000089e:	02a6ed63          	bltu	a3,a0,800008d8 <_ZN4core3str11validations15next_code_point17he8e495c947b1b4ecE+0x112>
    800008a2:	a009                	j	800008a4 <_ZN4core3str11validations15next_code_point17he8e495c947b1b4ecE+0xde>
    800008a4:	6526                	ld	a0,72(sp)
    800008a6:	00000097          	auipc	ra,0x0
    800008aa:	726080e7          	jalr	1830(ra) # 80000fcc <_ZN91_$LT$core..slice..iter..Iter$LT$T$GT$$u20$as$u20$core..iter..traits..iterator..Iterator$GT$4next17h023612bb33cf7b8fE>
    800008ae:	00000097          	auipc	ra,0x0
    800008b2:	ef0080e7          	jalr	-272(ra) # 8000079e <_ZN4core3str11validations11unwrap_or_017h6ce1257ed996a28bE>
    800008b6:	75c2                	ld	a1,48(sp)
    800008b8:	0075f613          	andi	a2,a1,7
    800008bc:	064a                	slli	a2,a2,0x12
    800008be:	66c2                	ld	a3,16(sp)
    800008c0:	e42a                	sd	a0,8(sp)
    800008c2:	8536                	mv	a0,a3
    800008c4:	65a2                	ld	a1,8(sp)
    800008c6:	e032                	sd	a2,0(sp)
    800008c8:	00000097          	auipc	ra,0x0
    800008cc:	036080e7          	jalr	54(ra) # 800008fe <_ZN4core3str11validations18utf8_acc_cont_byte17h90a510a118fd0f9fE>
    800008d0:	6582                	ld	a1,0(sp)
    800008d2:	8d4d                	or	a0,a0,a1
    800008d4:	d2aa                	sw	a0,100(sp)
    800008d6:	a009                	j	800008d8 <_ZN4core3str11validations15next_code_point17he8e495c947b1b4ecE+0x112>
    800008d8:	5516                	lw	a0,100(sp)
    800008da:	caaa                	sw	a0,84(sp)
    800008dc:	4505                	li	a0,1
    800008de:	c8aa                	sw	a0,80(sp)
    800008e0:	a009                	j	800008e2 <_ZN4core3str11validations15next_code_point17he8e495c947b1b4ecE+0x11c>
    800008e2:	4546                	lw	a0,80(sp)
    800008e4:	45d6                	lw	a1,84(sp)
    800008e6:	70a6                	ld	ra,104(sp)
    800008e8:	6165                	addi	sp,sp,112
    800008ea:	8082                	ret

00000000800008ec <_ZN4core3str11validations15utf8_first_byte17h1d30ecef13ee352bE>:
    800008ec:	862e                	mv	a2,a1
    800008ee:	86aa                	mv	a3,a0
    800008f0:	899d                	andi	a1,a1,7
    800008f2:	07f00713          	li	a4,127
    800008f6:	00b755b3          	srl	a1,a4,a1
    800008fa:	8d6d                	and	a0,a0,a1
    800008fc:	8082                	ret

00000000800008fe <_ZN4core3str11validations18utf8_acc_cont_byte17h90a510a118fd0f9fE>:
    800008fe:	862e                	mv	a2,a1
    80000900:	86aa                	mv	a3,a0
    80000902:	051a                	slli	a0,a0,0x6
    80000904:	03f5f593          	andi	a1,a1,63
    80000908:	8d4d                	or	a0,a0,a1
    8000090a:	8082                	ret

000000008000090c <_ZN4core3str21_$LT$impl$u20$str$GT$5chars17hb013d1d579903d21E>:
    8000090c:	1101                	addi	sp,sp,-32
    8000090e:	ec06                	sd	ra,24(sp)
    80000910:	00000097          	auipc	ra,0x0
    80000914:	01a080e7          	jalr	26(ra) # 8000092a <_ZN4core3str21_$LT$impl$u20$str$GT$8as_bytes17h462480eb37c5bf91E>
    80000918:	00000097          	auipc	ra,0x0
    8000091c:	2ea080e7          	jalr	746(ra) # 80000c02 <_ZN4core5slice29_$LT$impl$u20$$u5b$T$u5d$$GT$4iter17hfb8dd7d2d4905c4fE>
    80000920:	e42a                	sd	a0,8(sp)
    80000922:	e82e                	sd	a1,16(sp)
    80000924:	60e2                	ld	ra,24(sp)
    80000926:	6105                	addi	sp,sp,32
    80000928:	8082                	ret

000000008000092a <_ZN4core3str21_$LT$impl$u20$str$GT$8as_bytes17h462480eb37c5bf91E>:
    8000092a:	1141                	addi	sp,sp,-16
    8000092c:	e02a                	sd	a0,0(sp)
    8000092e:	e42e                	sd	a1,8(sp)
    80000930:	0141                	addi	sp,sp,16
    80000932:	8082                	ret

0000000080000934 <_ZN4core3str8converts23from_utf8_unchecked_mut17h61d5d743d6eeca77E>:
    80000934:	8082                	ret

0000000080000936 <_ZN4core4char7convert18from_u32_unchecked17h30a4204f364e3398E>:
    80000936:	1141                	addi	sp,sp,-16
    80000938:	85aa                	mv	a1,a0
    8000093a:	c62a                	sw	a0,12(sp)
    8000093c:	0141                	addi	sp,sp,16
    8000093e:	8082                	ret

0000000080000940 <_ZN4core4char7methods15encode_utf8_raw17h0f6cc194f059b576E>:
    80000940:	7169                	addi	sp,sp,-304
    80000942:	f606                	sd	ra,296(sp)
    80000944:	86aa                	mv	a3,a0
    80000946:	daaa                	sw	a0,116(sp)
    80000948:	f4b2                	sd	a2,104(sp)
    8000094a:	f0ae                	sd	a1,96(sp)
    8000094c:	ecb6                	sd	a3,88(sp)
    8000094e:	00000097          	auipc	ra,0x0
    80000952:	204080e7          	jalr	516(ra) # 80000b52 <_ZN4core4char7methods8len_utf817hc0c87783aa9b531eE>
    80000956:	fcaa                	sd	a0,120(sp)
    80000958:	00003617          	auipc	a2,0x3
    8000095c:	81860613          	addi	a2,a2,-2024 # 80003170 <point+0x148>
    80000960:	7586                	ld	a1,96(sp)
    80000962:	e8aa                	sd	a0,80(sp)
    80000964:	852e                	mv	a0,a1
    80000966:	75a6                	ld	a1,104(sp)
    80000968:	00000097          	auipc	ra,0x0
    8000096c:	3c0080e7          	jalr	960(ra) # 80000d28 <_ZN4core5slice5index77_$LT$impl$u20$core..ops..index..IndexMut$LT$I$GT$$u20$for$u20$$u5b$T$u5d$$GT$9index_mut17hfff88c5a43a38da4E>
    80000970:	6646                	ld	a2,80(sp)
    80000972:	e132                	sd	a2,128(sp)
    80000974:	e52a                	sd	a0,136(sp)
    80000976:	e92e                	sd	a1,144(sp)
    80000978:	4505                	li	a0,1
    8000097a:	65c6                	ld	a1,80(sp)
    8000097c:	e4b2                	sd	a2,72(sp)
    8000097e:	02a58263          	beq	a1,a0,800009a2 <_ZN4core4char7methods15encode_utf8_raw17h0f6cc194f059b576E+0x62>
    80000982:	a009                	j	80000984 <_ZN4core4char7methods15encode_utf8_raw17h0f6cc194f059b576E+0x44>
    80000984:	4509                	li	a0,2
    80000986:	65a6                	ld	a1,72(sp)
    80000988:	0ca58463          	beq	a1,a0,80000a50 <_ZN4core4char7methods15encode_utf8_raw17h0f6cc194f059b576E+0x110>
    8000098c:	a009                	j	8000098e <_ZN4core4char7methods15encode_utf8_raw17h0f6cc194f059b576E+0x4e>
    8000098e:	450d                	li	a0,3
    80000990:	65a6                	ld	a1,72(sp)
    80000992:	0ca58463          	beq	a1,a0,80000a5a <_ZN4core4char7methods15encode_utf8_raw17h0f6cc194f059b576E+0x11a>
    80000996:	a009                	j	80000998 <_ZN4core4char7methods15encode_utf8_raw17h0f6cc194f059b576E+0x58>
    80000998:	4511                	li	a0,4
    8000099a:	65a6                	ld	a1,72(sp)
    8000099c:	0ca58463          	beq	a1,a0,80000a64 <_ZN4core4char7methods15encode_utf8_raw17h0f6cc194f059b576E+0x124>
    800009a0:	a031                	j	800009ac <_ZN4core4char7methods15encode_utf8_raw17h0f6cc194f059b576E+0x6c>
    800009a2:	654a                	ld	a0,144(sp)
    800009a4:	4581                	li	a1,0
    800009a6:	0cb51463          	bne	a0,a1,80000a6e <_ZN4core4char7methods15encode_utf8_raw17h0f6cc194f059b576E+0x12e>
    800009aa:	a009                	j	800009ac <_ZN4core4char7methods15encode_utf8_raw17h0f6cc194f059b576E+0x6c>
    800009ac:	7506                	ld	a0,96(sp)
    800009ae:	75a6                	ld	a1,104(sp)
    800009b0:	00000097          	auipc	ra,0x0
    800009b4:	246080e7          	jalr	582(ra) # 80000bf6 <_ZN4core5slice29_$LT$impl$u20$$u5b$T$u5d$$GT$3len17h1f0782c67b061a39E>
    800009b8:	ee2a                	sd	a0,280(sp)
    800009ba:	18a8                	addi	a0,sp,120
    800009bc:	e22a                	sd	a0,256(sp)
    800009be:	18cc                	addi	a1,sp,116
    800009c0:	e62e                	sd	a1,264(sp)
    800009c2:	0a30                	addi	a2,sp,280
    800009c4:	ea32                	sd	a2,272(sp)
    800009c6:	00001697          	auipc	a3,0x1
    800009ca:	de668693          	addi	a3,a3,-538 # 800017ac <_ZN4core3fmt3num3imp52_$LT$impl$u20$core..fmt..Display$u20$for$u20$u64$GT$3fmt17h22caa4a622631133E>
    800009ce:	e0ae                	sd	a1,64(sp)
    800009d0:	85b6                	mv	a1,a3
    800009d2:	fc32                	sd	a2,56(sp)
    800009d4:	f836                	sd	a3,48(sp)
    800009d6:	fffff097          	auipc	ra,0xfffff
    800009da:	79e080e7          	jalr	1950(ra) # 80000174 <_ZN4core3fmt10ArgumentV13new17h9a587f63706d1ecfE>
    800009de:	00002617          	auipc	a2,0x2
    800009e2:	54060613          	addi	a2,a2,1344 # 80002f1e <_ZN4core3fmt3num53_$LT$impl$u20$core..fmt..UpperHex$u20$for$u20$i32$GT$3fmt17hc0b9d65fef18039fE>
    800009e6:	6686                	ld	a3,64(sp)
    800009e8:	f42a                	sd	a0,40(sp)
    800009ea:	8536                	mv	a0,a3
    800009ec:	f02e                	sd	a1,32(sp)
    800009ee:	85b2                	mv	a1,a2
    800009f0:	fffff097          	auipc	ra,0xfffff
    800009f4:	768080e7          	jalr	1896(ra) # 80000158 <_ZN4core3fmt10ArgumentV13new17h3dca20cdd01c5628E>
    800009f8:	7662                	ld	a2,56(sp)
    800009fa:	ec2a                	sd	a0,24(sp)
    800009fc:	8532                	mv	a0,a2
    800009fe:	76c2                	ld	a3,48(sp)
    80000a00:	e82e                	sd	a1,16(sp)
    80000a02:	85b6                	mv	a1,a3
    80000a04:	fffff097          	auipc	ra,0xfffff
    80000a08:	770080e7          	jalr	1904(ra) # 80000174 <_ZN4core3fmt10ArgumentV13new17h9a587f63706d1ecfE>
    80000a0c:	7622                	ld	a2,40(sp)
    80000a0e:	e9b2                	sd	a2,208(sp)
    80000a10:	7682                	ld	a3,32(sp)
    80000a12:	edb6                	sd	a3,216(sp)
    80000a14:	6762                	ld	a4,24(sp)
    80000a16:	f1ba                	sd	a4,224(sp)
    80000a18:	67c2                	ld	a5,16(sp)
    80000a1a:	f5be                	sd	a5,232(sp)
    80000a1c:	f9aa                	sd	a0,240(sp)
    80000a1e:	fdae                	sd	a1,248(sp)
    80000a20:	00002597          	auipc	a1,0x2
    80000a24:	7c058593          	addi	a1,a1,1984 # 800031e0 <point+0x1b8>
    80000a28:	1108                	addi	a0,sp,160
    80000a2a:	0994                	addi	a3,sp,208
    80000a2c:	480d                	li	a6,3
    80000a2e:	e42a                	sd	a0,8(sp)
    80000a30:	8642                	mv	a2,a6
    80000a32:	8742                	mv	a4,a6
    80000a34:	00000097          	auipc	ra,0x0
    80000a38:	9ae080e7          	jalr	-1618(ra) # 800003e2 <_ZN4core3fmt9Arguments6new_v117h5b30265b08afbc6eE>
    80000a3c:	00002597          	auipc	a1,0x2
    80000a40:	7d458593          	addi	a1,a1,2004 # 80003210 <point+0x1e8>
    80000a44:	6522                	ld	a0,8(sp)
    80000a46:	00001097          	auipc	ra,0x1
    80000a4a:	f54080e7          	jalr	-172(ra) # 8000199a <_ZN4core9panicking9panic_fmt17h58fb395352900abeE>
    80000a4e:	0000                	unimp
    80000a50:	654a                	ld	a0,144(sp)
    80000a52:	4585                	li	a1,1
    80000a54:	02a5e363          	bltu	a1,a0,80000a7a <_ZN4core4char7methods15encode_utf8_raw17h0f6cc194f059b576E+0x13a>
    80000a58:	bf91                	j	800009ac <_ZN4core4char7methods15encode_utf8_raw17h0f6cc194f059b576E+0x6c>
    80000a5a:	654a                	ld	a0,144(sp)
    80000a5c:	4589                	li	a1,2
    80000a5e:	02a5ef63          	bltu	a1,a0,80000a9c <_ZN4core4char7methods15encode_utf8_raw17h0f6cc194f059b576E+0x15c>
    80000a62:	b7a9                	j	800009ac <_ZN4core4char7methods15encode_utf8_raw17h0f6cc194f059b576E+0x6c>
    80000a64:	654a                	ld	a0,144(sp)
    80000a66:	458d                	li	a1,3
    80000a68:	06a5e363          	bltu	a1,a0,80000ace <_ZN4core4char7methods15encode_utf8_raw17h0f6cc194f059b576E+0x18e>
    80000a6c:	b781                	j	800009ac <_ZN4core4char7methods15encode_utf8_raw17h0f6cc194f059b576E+0x6c>
    80000a6e:	652a                	ld	a0,136(sp)
    80000a70:	07410583          	lb	a1,116(sp)
    80000a74:	00b50023          	sb	a1,0(a0)
    80000a78:	a861                	j	80000b10 <_ZN4core4char7methods15encode_utf8_raw17h0f6cc194f059b576E+0x1d0>
    80000a7a:	652a                	ld	a0,136(sp)
    80000a7c:	55d6                	lw	a1,116(sp)
    80000a7e:	8199                	srli	a1,a1,0x6
    80000a80:	89fd                	andi	a1,a1,31
    80000a82:	0c05e593          	ori	a1,a1,192
    80000a86:	00b50023          	sb	a1,0(a0)
    80000a8a:	07414583          	lbu	a1,116(sp)
    80000a8e:	03f5f593          	andi	a1,a1,63
    80000a92:	0805e593          	ori	a1,a1,128
    80000a96:	00b500a3          	sb	a1,1(a0)
    80000a9a:	a89d                	j	80000b10 <_ZN4core4char7methods15encode_utf8_raw17h0f6cc194f059b576E+0x1d0>
    80000a9c:	652a                	ld	a0,136(sp)
    80000a9e:	55d6                	lw	a1,116(sp)
    80000aa0:	81b1                	srli	a1,a1,0xc
    80000aa2:	89bd                	andi	a1,a1,15
    80000aa4:	0e05e593          	ori	a1,a1,224
    80000aa8:	00b50023          	sb	a1,0(a0)
    80000aac:	55d6                	lw	a1,116(sp)
    80000aae:	8199                	srli	a1,a1,0x6
    80000ab0:	03f5f593          	andi	a1,a1,63
    80000ab4:	0805e593          	ori	a1,a1,128
    80000ab8:	00b500a3          	sb	a1,1(a0)
    80000abc:	07414583          	lbu	a1,116(sp)
    80000ac0:	03f5f593          	andi	a1,a1,63
    80000ac4:	0805e593          	ori	a1,a1,128
    80000ac8:	00b50123          	sb	a1,2(a0)
    80000acc:	a091                	j	80000b10 <_ZN4core4char7methods15encode_utf8_raw17h0f6cc194f059b576E+0x1d0>
    80000ace:	652a                	ld	a0,136(sp)
    80000ad0:	55d6                	lw	a1,116(sp)
    80000ad2:	81c9                	srli	a1,a1,0x12
    80000ad4:	899d                	andi	a1,a1,7
    80000ad6:	0f05e593          	ori	a1,a1,240
    80000ada:	00b50023          	sb	a1,0(a0)
    80000ade:	55d6                	lw	a1,116(sp)
    80000ae0:	81b1                	srli	a1,a1,0xc
    80000ae2:	03f5f593          	andi	a1,a1,63
    80000ae6:	0805e593          	ori	a1,a1,128
    80000aea:	00b500a3          	sb	a1,1(a0)
    80000aee:	55d6                	lw	a1,116(sp)
    80000af0:	8199                	srli	a1,a1,0x6
    80000af2:	03f5f593          	andi	a1,a1,63
    80000af6:	0805e593          	ori	a1,a1,128
    80000afa:	00b50123          	sb	a1,2(a0)
    80000afe:	07414583          	lbu	a1,116(sp)
    80000b02:	03f5f593          	andi	a1,a1,63
    80000b06:	0805e593          	ori	a1,a1,128
    80000b0a:	00b501a3          	sb	a1,3(a0)
    80000b0e:	a009                	j	80000b10 <_ZN4core4char7methods15encode_utf8_raw17h0f6cc194f059b576E+0x1d0>
    80000b10:	7566                	ld	a0,120(sp)
    80000b12:	f22a                	sd	a0,288(sp)
    80000b14:	00002697          	auipc	a3,0x2
    80000b18:	67468693          	addi	a3,a3,1652 # 80003188 <point+0x160>
    80000b1c:	7586                	ld	a1,96(sp)
    80000b1e:	e02a                	sd	a0,0(sp)
    80000b20:	852e                	mv	a0,a1
    80000b22:	75a6                	ld	a1,104(sp)
    80000b24:	6602                	ld	a2,0(sp)
    80000b26:	00000097          	auipc	ra,0x0
    80000b2a:	1e4080e7          	jalr	484(ra) # 80000d0a <_ZN4core5slice5index77_$LT$impl$u20$core..ops..index..IndexMut$LT$I$GT$$u20$for$u20$$u5b$T$u5d$$GT$9index_mut17hf10571f4d8ff040aE>
    80000b2e:	70b2                	ld	ra,296(sp)
    80000b30:	6155                	addi	sp,sp,304
    80000b32:	8082                	ret

0000000080000b34 <_ZN4core4char7methods22_$LT$impl$u20$char$GT$11encode_utf817hc6d6808654a2c1aeE>:
    80000b34:	1141                	addi	sp,sp,-16
    80000b36:	e406                	sd	ra,8(sp)
    80000b38:	86aa                	mv	a3,a0
    80000b3a:	e036                	sd	a3,0(sp)
    80000b3c:	00000097          	auipc	ra,0x0
    80000b40:	e04080e7          	jalr	-508(ra) # 80000940 <_ZN4core4char7methods15encode_utf8_raw17h0f6cc194f059b576E>
    80000b44:	00000097          	auipc	ra,0x0
    80000b48:	df0080e7          	jalr	-528(ra) # 80000934 <_ZN4core3str8converts23from_utf8_unchecked_mut17h61d5d743d6eeca77E>
    80000b4c:	60a2                	ld	ra,8(sp)
    80000b4e:	0141                	addi	sp,sp,16
    80000b50:	8082                	ret

0000000080000b52 <_ZN4core4char7methods8len_utf817hc0c87783aa9b531eE>:
    80000b52:	1141                	addi	sp,sp,-16
    80000b54:	0005059b          	sext.w	a1,a0
    80000b58:	08000613          	li	a2,128
    80000b5c:	e02a                	sd	a0,0(sp)
    80000b5e:	00c5ea63          	bltu	a1,a2,80000b72 <_ZN4core4char7methods8len_utf817hc0c87783aa9b531eE+0x20>
    80000b62:	a009                	j	80000b64 <_ZN4core4char7methods8len_utf817hc0c87783aa9b531eE+0x12>
    80000b64:	6502                	ld	a0,0(sp)
    80000b66:	00b5559b          	srliw	a1,a0,0xb
    80000b6a:	4601                	li	a2,0
    80000b6c:	00c58d63          	beq	a1,a2,80000b86 <_ZN4core4char7methods8len_utf817hc0c87783aa9b531eE+0x34>
    80000b70:	a021                	j	80000b78 <_ZN4core4char7methods8len_utf817hc0c87783aa9b531eE+0x26>
    80000b72:	4505                	li	a0,1
    80000b74:	e42a                	sd	a0,8(sp)
    80000b76:	a00d                	j	80000b98 <_ZN4core4char7methods8len_utf817hc0c87783aa9b531eE+0x46>
    80000b78:	6502                	ld	a0,0(sp)
    80000b7a:	0105559b          	srliw	a1,a0,0x10
    80000b7e:	4601                	li	a2,0
    80000b80:	00c58963          	beq	a1,a2,80000b92 <_ZN4core4char7methods8len_utf817hc0c87783aa9b531eE+0x40>
    80000b84:	a021                	j	80000b8c <_ZN4core4char7methods8len_utf817hc0c87783aa9b531eE+0x3a>
    80000b86:	4509                	li	a0,2
    80000b88:	e42a                	sd	a0,8(sp)
    80000b8a:	a039                	j	80000b98 <_ZN4core4char7methods8len_utf817hc0c87783aa9b531eE+0x46>
    80000b8c:	4511                	li	a0,4
    80000b8e:	e42a                	sd	a0,8(sp)
    80000b90:	a021                	j	80000b98 <_ZN4core4char7methods8len_utf817hc0c87783aa9b531eE+0x46>
    80000b92:	450d                	li	a0,3
    80000b94:	e42a                	sd	a0,8(sp)
    80000b96:	a009                	j	80000b98 <_ZN4core4char7methods8len_utf817hc0c87783aa9b531eE+0x46>
    80000b98:	6522                	ld	a0,8(sp)
    80000b9a:	0141                	addi	sp,sp,16
    80000b9c:	8082                	ret

0000000080000b9e <_ZN4core4iter5range101_$LT$impl$u20$core..iter..traits..iterator..Iterator$u20$for$u20$core..ops..range..Range$LT$A$GT$$GT$4next17h0e55921054be0607E>:
    80000b9e:	7179                	addi	sp,sp,-48
    80000ba0:	f406                	sd	ra,40(sp)
    80000ba2:	00450593          	addi	a1,a0,4
    80000ba6:	ec2a                	sd	a0,24(sp)
    80000ba8:	fffff097          	auipc	ra,0xfffff
    80000bac:	5a6080e7          	jalr	1446(ra) # 8000014e <_ZN4core3cmp5impls55_$LT$impl$u20$core..cmp..PartialOrd$u20$for$u20$i32$GT$2lt17h62d0ea2653f8bdcbE>
    80000bb0:	e509                	bnez	a0,80000bba <_ZN4core4iter5range101_$LT$impl$u20$core..iter..traits..iterator..Iterator$u20$for$u20$core..ops..range..Range$LT$A$GT$$GT$4next17h0e55921054be0607E+0x1c>
    80000bb2:	a009                	j	80000bb4 <_ZN4core4iter5range101_$LT$impl$u20$core..iter..traits..iterator..Iterator$u20$for$u20$core..ops..range..Range$LT$A$GT$$GT$4next17h0e55921054be0607E+0x16>
    80000bb4:	4501                	li	a0,0
    80000bb6:	d02a                	sw	a0,32(sp)
    80000bb8:	a805                	j	80000be8 <_ZN4core4iter5range101_$LT$impl$u20$core..iter..traits..iterator..Iterator$u20$for$u20$core..ops..range..Range$LT$A$GT$$GT$4next17h0e55921054be0607E+0x4a>
    80000bba:	6562                	ld	a0,24(sp)
    80000bbc:	00000097          	auipc	ra,0x0
    80000bc0:	036080e7          	jalr	54(ra) # 80000bf2 <_ZN4core5clone5impls52_$LT$impl$u20$core..clone..Clone$u20$for$u20$i32$GT$5clone17h95bc9168300e557bE>
    80000bc4:	4585                	li	a1,1
    80000bc6:	e82e                	sd	a1,16(sp)
    80000bc8:	fffff097          	auipc	ra,0xfffff
    80000bcc:	53e080e7          	jalr	1342(ra) # 80000106 <_ZN47_$LT$i32$u20$as$u20$core..iter..range..Step$GT$17forward_unchecked17hf12eada4627474f3E>
    80000bd0:	65e2                	ld	a1,24(sp)
    80000bd2:	e42a                	sd	a0,8(sp)
    80000bd4:	852e                	mv	a0,a1
    80000bd6:	65a2                	ld	a1,8(sp)
    80000bd8:	00000097          	auipc	ra,0x0
    80000bdc:	86a080e7          	jalr	-1942(ra) # 80000442 <_ZN4core3mem7replace17h58f1910041f9e98cE>
    80000be0:	d22a                	sw	a0,36(sp)
    80000be2:	6542                	ld	a0,16(sp)
    80000be4:	d02a                	sw	a0,32(sp)
    80000be6:	a009                	j	80000be8 <_ZN4core4iter5range101_$LT$impl$u20$core..iter..traits..iterator..Iterator$u20$for$u20$core..ops..range..Range$LT$A$GT$$GT$4next17h0e55921054be0607E+0x4a>
    80000be8:	5502                	lw	a0,32(sp)
    80000bea:	5592                	lw	a1,36(sp)
    80000bec:	70a2                	ld	ra,40(sp)
    80000bee:	6145                	addi	sp,sp,48
    80000bf0:	8082                	ret

0000000080000bf2 <_ZN4core5clone5impls52_$LT$impl$u20$core..clone..Clone$u20$for$u20$i32$GT$5clone17h95bc9168300e557bE>:
    80000bf2:	4108                	lw	a0,0(a0)
    80000bf4:	8082                	ret

0000000080000bf6 <_ZN4core5slice29_$LT$impl$u20$$u5b$T$u5d$$GT$3len17h1f0782c67b061a39E>:
    80000bf6:	1141                	addi	sp,sp,-16
    80000bf8:	e02a                	sd	a0,0(sp)
    80000bfa:	e42e                	sd	a1,8(sp)
    80000bfc:	852e                	mv	a0,a1
    80000bfe:	0141                	addi	sp,sp,16
    80000c00:	8082                	ret

0000000080000c02 <_ZN4core5slice29_$LT$impl$u20$$u5b$T$u5d$$GT$4iter17hfb8dd7d2d4905c4fE>:
    80000c02:	1141                	addi	sp,sp,-16
    80000c04:	e406                	sd	ra,8(sp)
    80000c06:	00000097          	auipc	ra,0x0
    80000c0a:	08c080e7          	jalr	140(ra) # 80000c92 <_ZN4core5slice4iter13Iter$LT$T$GT$3new17h5e5bf2c1aa08cd80E>
    80000c0e:	60a2                	ld	ra,8(sp)
    80000c10:	0141                	addi	sp,sp,16
    80000c12:	8082                	ret

0000000080000c14 <_ZN4core5slice29_$LT$impl$u20$$u5b$T$u5d$$GT$6as_ptr17hd6c4e567226c7d95E>:
    80000c14:	8082                	ret

0000000080000c16 <_ZN4core5slice4iter13Iter$LT$T$GT$14post_inc_start17h07ce45462a1c9fafE>:
    80000c16:	7179                	addi	sp,sp,-48
    80000c18:	f406                	sd	ra,40(sp)
    80000c1a:	ec2e                	sd	a1,24(sp)
    80000c1c:	e82a                	sd	a0,16(sp)
    80000c1e:	00000097          	auipc	ra,0x0
    80000c22:	840080e7          	jalr	-1984(ra) # 8000045e <_ZN4core3mem7size_of17h3f40db87ffefcd91E>
    80000c26:	4581                	li	a1,0
    80000c28:	02b50f63          	beq	a0,a1,80000c66 <_ZN4core5slice4iter13Iter$LT$T$GT$14post_inc_start17h07ce45462a1c9fafE+0x50>
    80000c2c:	a009                	j	80000c2e <_ZN4core5slice4iter13Iter$LT$T$GT$14post_inc_start17h07ce45462a1c9fafE+0x18>
    80000c2e:	6542                	ld	a0,16(sp)
    80000c30:	6108                	ld	a0,0(a0)
    80000c32:	00000097          	auipc	ra,0x0
    80000c36:	afa080e7          	jalr	-1286(ra) # 8000072c <_ZN4core3ptr8non_null16NonNull$LT$T$GT$6as_ptr17ha364e7dc4c4c017fE>
    80000c3a:	65c2                	ld	a1,16(sp)
    80000c3c:	6190                	ld	a2,0(a1)
    80000c3e:	e42a                	sd	a0,8(sp)
    80000c40:	8532                	mv	a0,a2
    80000c42:	00000097          	auipc	ra,0x0
    80000c46:	aea080e7          	jalr	-1302(ra) # 8000072c <_ZN4core3ptr8non_null16NonNull$LT$T$GT$6as_ptr17ha364e7dc4c4c017fE>
    80000c4a:	65e2                	ld	a1,24(sp)
    80000c4c:	00000097          	auipc	ra,0x0
    80000c50:	aa8080e7          	jalr	-1368(ra) # 800006f4 <_ZN4core3ptr7mut_ptr31_$LT$impl$u20$$BP$mut$u20$T$GT$6offset17hbdbe5f96a0c3526fE>
    80000c54:	00000097          	auipc	ra,0x0
    80000c58:	ad0080e7          	jalr	-1328(ra) # 80000724 <_ZN4core3ptr8non_null16NonNull$LT$T$GT$13new_unchecked17h285d9dd25468d833E>
    80000c5c:	65c2                	ld	a1,16(sp)
    80000c5e:	e188                	sd	a0,0(a1)
    80000c60:	6522                	ld	a0,8(sp)
    80000c62:	f02a                	sd	a0,32(sp)
    80000c64:	a01d                	j	80000c8a <_ZN4core5slice4iter13Iter$LT$T$GT$14post_inc_start17h07ce45462a1c9fafE+0x74>
    80000c66:	6542                	ld	a0,16(sp)
    80000c68:	6508                	ld	a0,8(a0)
    80000c6a:	4581                	li	a1,0
    80000c6c:	6662                	ld	a2,24(sp)
    80000c6e:	8d91                	sub	a1,a1,a2
    80000c70:	00000097          	auipc	ra,0x0
    80000c74:	ae4080e7          	jalr	-1308(ra) # 80000754 <_ZN4core3ptr9const_ptr33_$LT$impl$u20$$BP$const$u20$T$GT$15wrapping_offset17h5243096fe1bc1337E>
    80000c78:	65c2                	ld	a1,16(sp)
    80000c7a:	e588                	sd	a0,8(a1)
    80000c7c:	6188                	ld	a0,0(a1)
    80000c7e:	00000097          	auipc	ra,0x0
    80000c82:	aae080e7          	jalr	-1362(ra) # 8000072c <_ZN4core3ptr8non_null16NonNull$LT$T$GT$6as_ptr17ha364e7dc4c4c017fE>
    80000c86:	f02a                	sd	a0,32(sp)
    80000c88:	a009                	j	80000c8a <_ZN4core5slice4iter13Iter$LT$T$GT$14post_inc_start17h07ce45462a1c9fafE+0x74>
    80000c8a:	7502                	ld	a0,32(sp)
    80000c8c:	70a2                	ld	ra,40(sp)
    80000c8e:	6145                	addi	sp,sp,48
    80000c90:	8082                	ret

0000000080000c92 <_ZN4core5slice4iter13Iter$LT$T$GT$3new17h5e5bf2c1aa08cd80E>:
    80000c92:	715d                	addi	sp,sp,-80
    80000c94:	e486                	sd	ra,72(sp)
    80000c96:	f42a                	sd	a0,40(sp)
    80000c98:	f02e                	sd	a1,32(sp)
    80000c9a:	00000097          	auipc	ra,0x0
    80000c9e:	f7a080e7          	jalr	-134(ra) # 80000c14 <_ZN4core5slice29_$LT$impl$u20$$u5b$T$u5d$$GT$6as_ptr17hd6c4e567226c7d95E>
    80000ca2:	85aa                	mv	a1,a0
    80000ca4:	ec2e                	sd	a1,24(sp)
    80000ca6:	00000097          	auipc	ra,0x0
    80000caa:	ad4080e7          	jalr	-1324(ra) # 8000077a <_ZN4core3ptr9const_ptr33_$LT$impl$u20$$BP$const$u20$T$GT$7is_null17h55cea2ae11f2f979E>
    80000cae:	e82a                	sd	a0,16(sp)
    80000cb0:	fffff097          	auipc	ra,0xfffff
    80000cb4:	7ae080e7          	jalr	1966(ra) # 8000045e <_ZN4core3mem7size_of17h3f40db87ffefcd91E>
    80000cb8:	75a2                	ld	a1,40(sp)
    80000cba:	e42a                	sd	a0,8(sp)
    80000cbc:	852e                	mv	a0,a1
    80000cbe:	7582                	ld	a1,32(sp)
    80000cc0:	00000097          	auipc	ra,0x0
    80000cc4:	f36080e7          	jalr	-202(ra) # 80000bf6 <_ZN4core5slice29_$LT$impl$u20$$u5b$T$u5d$$GT$3len17h1f0782c67b061a39E>
    80000cc8:	4581                	li	a1,0
    80000cca:	6622                	ld	a2,8(sp)
    80000ccc:	e02a                	sd	a0,0(sp)
    80000cce:	00b60b63          	beq	a2,a1,80000ce4 <_ZN4core5slice4iter13Iter$LT$T$GT$3new17h5e5bf2c1aa08cd80E+0x52>
    80000cd2:	a009                	j	80000cd4 <_ZN4core5slice4iter13Iter$LT$T$GT$3new17h5e5bf2c1aa08cd80E+0x42>
    80000cd4:	6562                	ld	a0,24(sp)
    80000cd6:	6582                	ld	a1,0(sp)
    80000cd8:	00000097          	auipc	ra,0x0
    80000cdc:	a86080e7          	jalr	-1402(ra) # 8000075e <_ZN4core3ptr9const_ptr33_$LT$impl$u20$$BP$const$u20$T$GT$3add17h4f8106d99b4d69f0E>
    80000ce0:	e0aa                	sd	a0,64(sp)
    80000ce2:	a809                	j	80000cf4 <_ZN4core5slice4iter13Iter$LT$T$GT$3new17h5e5bf2c1aa08cd80E+0x62>
    80000ce4:	6562                	ld	a0,24(sp)
    80000ce6:	6582                	ld	a1,0(sp)
    80000ce8:	00000097          	auipc	ra,0x0
    80000cec:	a4a080e7          	jalr	-1462(ra) # 80000732 <_ZN4core3ptr9const_ptr33_$LT$impl$u20$$BP$const$u20$T$GT$12wrapping_add17hdc37a53c008a64faE>
    80000cf0:	e0aa                	sd	a0,64(sp)
    80000cf2:	a009                	j	80000cf4 <_ZN4core5slice4iter13Iter$LT$T$GT$3new17h5e5bf2c1aa08cd80E+0x62>
    80000cf4:	6562                	ld	a0,24(sp)
    80000cf6:	00000097          	auipc	ra,0x0
    80000cfa:	a2e080e7          	jalr	-1490(ra) # 80000724 <_ZN4core3ptr8non_null16NonNull$LT$T$GT$13new_unchecked17h285d9dd25468d833E>
    80000cfe:	6586                	ld	a1,64(sp)
    80000d00:	f82a                	sd	a0,48(sp)
    80000d02:	fc2e                	sd	a1,56(sp)
    80000d04:	60a6                	ld	ra,72(sp)
    80000d06:	6161                	addi	sp,sp,80
    80000d08:	8082                	ret

0000000080000d0a <_ZN4core5slice5index77_$LT$impl$u20$core..ops..index..IndexMut$LT$I$GT$$u20$for$u20$$u5b$T$u5d$$GT$9index_mut17hf10571f4d8ff040aE>:
    80000d0a:	1101                	addi	sp,sp,-32
    80000d0c:	ec06                	sd	ra,24(sp)
    80000d0e:	e82a                	sd	a0,16(sp)
    80000d10:	8532                	mv	a0,a2
    80000d12:	6642                	ld	a2,16(sp)
    80000d14:	e42e                	sd	a1,8(sp)
    80000d16:	85b2                	mv	a1,a2
    80000d18:	6622                	ld	a2,8(sp)
    80000d1a:	fffff097          	auipc	ra,0xfffff
    80000d1e:	386080e7          	jalr	902(ra) # 800000a0 <_ZN108_$LT$core..ops..range..RangeTo$LT$usize$GT$$u20$as$u20$core..slice..index..SliceIndex$LT$$u5b$T$u5d$$GT$$GT$9index_mut17h627fc986b5f2693bE>
    80000d22:	60e2                	ld	ra,24(sp)
    80000d24:	6105                	addi	sp,sp,32
    80000d26:	8082                	ret

0000000080000d28 <_ZN4core5slice5index77_$LT$impl$u20$core..ops..index..IndexMut$LT$I$GT$$u20$for$u20$$u5b$T$u5d$$GT$9index_mut17hfff88c5a43a38da4E>:
    80000d28:	1141                	addi	sp,sp,-16
    80000d2a:	e406                	sd	ra,8(sp)
    80000d2c:	00000097          	auipc	ra,0x0
    80000d30:	30e080e7          	jalr	782(ra) # 8000103a <_ZN97_$LT$core..ops..range..RangeFull$u20$as$u20$core..slice..index..SliceIndex$LT$$u5b$T$u5d$$GT$$GT$9index_mut17he7eccd50c5e62c2aE>
    80000d34:	60a2                	ld	ra,8(sp)
    80000d36:	0141                	addi	sp,sp,16
    80000d38:	8082                	ret

0000000080000d3a <_ZN4core6option15Option$LT$T$GT$3map17hb245302b35b50634E>:
    80000d3a:	1101                	addi	sp,sp,-32
    80000d3c:	ec06                	sd	ra,24(sp)
    80000d3e:	862e                	mv	a2,a1
    80000d40:	86aa                	mv	a3,a0
    80000d42:	c02a                	sw	a0,0(sp)
    80000d44:	c22e                	sw	a1,4(sp)
    80000d46:	4585                	li	a1,1
    80000d48:	00b10ba3          	sb	a1,23(sp)
    80000d4c:	1502                	slli	a0,a0,0x20
    80000d4e:	9101                	srli	a0,a0,0x20
    80000d50:	4581                	li	a1,0
    80000d52:	00b51763          	bne	a0,a1,80000d60 <_ZN4core6option15Option$LT$T$GT$3map17hb245302b35b50634E+0x26>
    80000d56:	a009                	j	80000d58 <_ZN4core6option15Option$LT$T$GT$3map17hb245302b35b50634E+0x1e>
    80000d58:	00110537          	lui	a0,0x110
    80000d5c:	c62a                	sw	a0,12(sp)
    80000d5e:	a831                	j	80000d7a <_ZN4core6option15Option$LT$T$GT$3map17hb245302b35b50634E+0x40>
    80000d60:	4512                	lw	a0,4(sp)
    80000d62:	4581                	li	a1,0
    80000d64:	00b10ba3          	sb	a1,23(sp)
    80000d68:	c82a                	sw	a0,16(sp)
    80000d6a:	00000097          	auipc	ra,0x0
    80000d6e:	248080e7          	jalr	584(ra) # 80000fb2 <_ZN81_$LT$core..str..iter..Chars$u20$as$u20$core..iter..traits..iterator..Iterator$GT$4next28_$u7b$$u7b$closure$u7d$$u7d$17h9df08781dd5ffb05E>
    80000d72:	1502                	slli	a0,a0,0x20
    80000d74:	9101                	srli	a0,a0,0x20
    80000d76:	c62a                	sw	a0,12(sp)
    80000d78:	a009                	j	80000d7a <_ZN4core6option15Option$LT$T$GT$3map17hb245302b35b50634E+0x40>
    80000d7a:	4532                	lw	a0,12(sp)
    80000d7c:	60e2                	ld	ra,24(sp)
    80000d7e:	6105                	addi	sp,sp,32
    80000d80:	8082                	ret

0000000080000d82 <_ZN4core6option15Option$LT$T$GT$5ok_or17h6cc6080637db9991E>:
    80000d82:	1101                	addi	sp,sp,-32
    80000d84:	e42a                	sd	a0,8(sp)
    80000d86:	4585                	li	a1,1
    80000d88:	00b10fa3          	sb	a1,31(sp)
    80000d8c:	4581                	li	a1,0
    80000d8e:	00b51863          	bne	a0,a1,80000d9e <_ZN4core6option15Option$LT$T$GT$5ok_or17h6cc6080637db9991E+0x1c>
    80000d92:	a009                	j	80000d94 <_ZN4core6option15Option$LT$T$GT$5ok_or17h6cc6080637db9991E+0x12>
    80000d94:	4501                	li	a0,0
    80000d96:	00a10fa3          	sb	a0,31(sp)
    80000d9a:	e82a                	sd	a0,16(sp)
    80000d9c:	a021                	j	80000da4 <_ZN4core6option15Option$LT$T$GT$5ok_or17h6cc6080637db9991E+0x22>
    80000d9e:	6522                	ld	a0,8(sp)
    80000da0:	e82a                	sd	a0,16(sp)
    80000da2:	a009                	j	80000da4 <_ZN4core6option15Option$LT$T$GT$5ok_or17h6cc6080637db9991E+0x22>
    80000da4:	6542                	ld	a0,16(sp)
    80000da6:	6105                	addi	sp,sp,32
    80000da8:	8082                	ret

0000000080000daa <_ZN50_$LT$$RF$mut$u20$W$u20$as$u20$core..fmt..Write$GT$10write_char17h03f8fd123d125f6eE>:
    80000daa:	1141                	addi	sp,sp,-16
    80000dac:	e406                	sd	ra,8(sp)
    80000dae:	862e                	mv	a2,a1
    80000db0:	6108                	ld	a0,0(a0)
    80000db2:	e032                	sd	a2,0(sp)
    80000db4:	fffff097          	auipc	ra,0xfffff
    80000db8:	426080e7          	jalr	1062(ra) # 800001da <_ZN4core3fmt5Write10write_char17h2acce1ea924f0579E>
    80000dbc:	60a2                	ld	ra,8(sp)
    80000dbe:	0141                	addi	sp,sp,16
    80000dc0:	8082                	ret

0000000080000dc2 <_ZN50_$LT$$RF$mut$u20$W$u20$as$u20$core..fmt..Write$GT$10write_char17h90a3128abd0c241bE>:
    80000dc2:	1141                	addi	sp,sp,-16
    80000dc4:	e406                	sd	ra,8(sp)
    80000dc6:	862e                	mv	a2,a1
    80000dc8:	6108                	ld	a0,0(a0)
    80000dca:	e032                	sd	a2,0(sp)
    80000dcc:	fffff097          	auipc	ra,0xfffff
    80000dd0:	44a080e7          	jalr	1098(ra) # 80000216 <_ZN4core3fmt5Write10write_char17h313e2a4adc25b073E>
    80000dd4:	60a2                	ld	ra,8(sp)
    80000dd6:	0141                	addi	sp,sp,16
    80000dd8:	8082                	ret

0000000080000dda <_ZN50_$LT$$RF$mut$u20$W$u20$as$u20$core..fmt..Write$GT$10write_char17hc2a8a11d47f35888E>:
    80000dda:	1141                	addi	sp,sp,-16
    80000ddc:	e406                	sd	ra,8(sp)
    80000dde:	862e                	mv	a2,a1
    80000de0:	6108                	ld	a0,0(a0)
    80000de2:	e032                	sd	a2,0(sp)
    80000de4:	fffff097          	auipc	ra,0xfffff
    80000de8:	46e080e7          	jalr	1134(ra) # 80000252 <_ZN4core3fmt5Write10write_char17h3bfbe1ceed0b7818E>
    80000dec:	60a2                	ld	ra,8(sp)
    80000dee:	0141                	addi	sp,sp,16
    80000df0:	8082                	ret

0000000080000df2 <_ZN50_$LT$$RF$mut$u20$W$u20$as$u20$core..fmt..Write$GT$10write_char17hc3feefa5ef7b514fE>:
    80000df2:	1141                	addi	sp,sp,-16
    80000df4:	e406                	sd	ra,8(sp)
    80000df6:	862e                	mv	a2,a1
    80000df8:	6108                	ld	a0,0(a0)
    80000dfa:	e032                	sd	a2,0(sp)
    80000dfc:	fffff097          	auipc	ra,0xfffff
    80000e00:	3a2080e7          	jalr	930(ra) # 8000019e <_ZN4core3fmt5Write10write_char17h01796003e2e4e90bE>
    80000e04:	60a2                	ld	ra,8(sp)
    80000e06:	0141                	addi	sp,sp,16
    80000e08:	8082                	ret

0000000080000e0a <_ZN50_$LT$$RF$mut$u20$W$u20$as$u20$core..fmt..Write$GT$10write_char17hfbbdb628f51c7336E>:
    80000e0a:	1141                	addi	sp,sp,-16
    80000e0c:	e406                	sd	ra,8(sp)
    80000e0e:	862e                	mv	a2,a1
    80000e10:	6108                	ld	a0,0(a0)
    80000e12:	e032                	sd	a2,0(sp)
    80000e14:	fffff097          	auipc	ra,0xfffff
    80000e18:	47a080e7          	jalr	1146(ra) # 8000028e <_ZN4core3fmt5Write10write_char17hd69353662a139e3aE>
    80000e1c:	60a2                	ld	ra,8(sp)
    80000e1e:	0141                	addi	sp,sp,16
    80000e20:	8082                	ret

0000000080000e22 <_ZN50_$LT$$RF$mut$u20$W$u20$as$u20$core..fmt..Write$GT$9write_fmt17h084aac68e6735941E>:
    80000e22:	7139                	addi	sp,sp,-64
    80000e24:	fc06                	sd	ra,56(sp)
    80000e26:	6108                	ld	a0,0(a0)
    80000e28:	7590                	ld	a2,40(a1)
    80000e2a:	f832                	sd	a2,48(sp)
    80000e2c:	7190                	ld	a2,32(a1)
    80000e2e:	f432                	sd	a2,40(sp)
    80000e30:	6d90                	ld	a2,24(a1)
    80000e32:	f032                	sd	a2,32(sp)
    80000e34:	6990                	ld	a2,16(a1)
    80000e36:	ec32                	sd	a2,24(sp)
    80000e38:	6590                	ld	a2,8(a1)
    80000e3a:	e832                	sd	a2,16(sp)
    80000e3c:	618c                	ld	a1,0(a1)
    80000e3e:	e42e                	sd	a1,8(sp)
    80000e40:	002c                	addi	a1,sp,8
    80000e42:	fffff097          	auipc	ra,0xfffff
    80000e46:	530080e7          	jalr	1328(ra) # 80000372 <_ZN4core3fmt5Write9write_fmt17hd759890e748d84bbE>
    80000e4a:	70e2                	ld	ra,56(sp)
    80000e4c:	6121                	addi	sp,sp,64
    80000e4e:	8082                	ret

0000000080000e50 <_ZN50_$LT$$RF$mut$u20$W$u20$as$u20$core..fmt..Write$GT$9write_fmt17h26e04e7590a7b555E>:
    80000e50:	7139                	addi	sp,sp,-64
    80000e52:	fc06                	sd	ra,56(sp)
    80000e54:	6108                	ld	a0,0(a0)
    80000e56:	7590                	ld	a2,40(a1)
    80000e58:	f832                	sd	a2,48(sp)
    80000e5a:	7190                	ld	a2,32(a1)
    80000e5c:	f432                	sd	a2,40(sp)
    80000e5e:	6d90                	ld	a2,24(a1)
    80000e60:	f032                	sd	a2,32(sp)
    80000e62:	6990                	ld	a2,16(a1)
    80000e64:	ec32                	sd	a2,24(sp)
    80000e66:	6590                	ld	a2,8(a1)
    80000e68:	e832                	sd	a2,16(sp)
    80000e6a:	618c                	ld	a1,0(a1)
    80000e6c:	e42e                	sd	a1,8(sp)
    80000e6e:	002c                	addi	a1,sp,8
    80000e70:	fffff097          	auipc	ra,0xfffff
    80000e74:	492080e7          	jalr	1170(ra) # 80000302 <_ZN4core3fmt5Write9write_fmt17h6189dbd65f2c0b73E>
    80000e78:	70e2                	ld	ra,56(sp)
    80000e7a:	6121                	addi	sp,sp,64
    80000e7c:	8082                	ret

0000000080000e7e <_ZN50_$LT$$RF$mut$u20$W$u20$as$u20$core..fmt..Write$GT$9write_fmt17h79d1e2c6fc04e557E>:
    80000e7e:	7139                	addi	sp,sp,-64
    80000e80:	fc06                	sd	ra,56(sp)
    80000e82:	6108                	ld	a0,0(a0)
    80000e84:	7590                	ld	a2,40(a1)
    80000e86:	f832                	sd	a2,48(sp)
    80000e88:	7190                	ld	a2,32(a1)
    80000e8a:	f432                	sd	a2,40(sp)
    80000e8c:	6d90                	ld	a2,24(a1)
    80000e8e:	f032                	sd	a2,32(sp)
    80000e90:	6990                	ld	a2,16(a1)
    80000e92:	ec32                	sd	a2,24(sp)
    80000e94:	6590                	ld	a2,8(a1)
    80000e96:	e832                	sd	a2,16(sp)
    80000e98:	618c                	ld	a1,0(a1)
    80000e9a:	e42e                	sd	a1,8(sp)
    80000e9c:	002c                	addi	a1,sp,8
    80000e9e:	fffff097          	auipc	ra,0xfffff
    80000ea2:	49c080e7          	jalr	1180(ra) # 8000033a <_ZN4core3fmt5Write9write_fmt17hc87f7c7ddfec3b28E>
    80000ea6:	70e2                	ld	ra,56(sp)
    80000ea8:	6121                	addi	sp,sp,64
    80000eaa:	8082                	ret

0000000080000eac <_ZN50_$LT$$RF$mut$u20$W$u20$as$u20$core..fmt..Write$GT$9write_fmt17h7fa6cc1438bc0cd0E>:
    80000eac:	7139                	addi	sp,sp,-64
    80000eae:	fc06                	sd	ra,56(sp)
    80000eb0:	6108                	ld	a0,0(a0)
    80000eb2:	7590                	ld	a2,40(a1)
    80000eb4:	f832                	sd	a2,48(sp)
    80000eb6:	7190                	ld	a2,32(a1)
    80000eb8:	f432                	sd	a2,40(sp)
    80000eba:	6d90                	ld	a2,24(a1)
    80000ebc:	f032                	sd	a2,32(sp)
    80000ebe:	6990                	ld	a2,16(a1)
    80000ec0:	ec32                	sd	a2,24(sp)
    80000ec2:	6590                	ld	a2,8(a1)
    80000ec4:	e832                	sd	a2,16(sp)
    80000ec6:	618c                	ld	a1,0(a1)
    80000ec8:	e42e                	sd	a1,8(sp)
    80000eca:	002c                	addi	a1,sp,8
    80000ecc:	fffff097          	auipc	ra,0xfffff
    80000ed0:	3fe080e7          	jalr	1022(ra) # 800002ca <_ZN4core3fmt5Write9write_fmt17h14ffed2b7bc6523bE>
    80000ed4:	70e2                	ld	ra,56(sp)
    80000ed6:	6121                	addi	sp,sp,64
    80000ed8:	8082                	ret

0000000080000eda <_ZN50_$LT$$RF$mut$u20$W$u20$as$u20$core..fmt..Write$GT$9write_fmt17hf15ff2da81f43e1aE>:
    80000eda:	7139                	addi	sp,sp,-64
    80000edc:	fc06                	sd	ra,56(sp)
    80000ede:	6108                	ld	a0,0(a0)
    80000ee0:	7590                	ld	a2,40(a1)
    80000ee2:	f832                	sd	a2,48(sp)
    80000ee4:	7190                	ld	a2,32(a1)
    80000ee6:	f432                	sd	a2,40(sp)
    80000ee8:	6d90                	ld	a2,24(a1)
    80000eea:	f032                	sd	a2,32(sp)
    80000eec:	6990                	ld	a2,16(a1)
    80000eee:	ec32                	sd	a2,24(sp)
    80000ef0:	6590                	ld	a2,8(a1)
    80000ef2:	e832                	sd	a2,16(sp)
    80000ef4:	618c                	ld	a1,0(a1)
    80000ef6:	e42e                	sd	a1,8(sp)
    80000ef8:	002c                	addi	a1,sp,8
    80000efa:	fffff097          	auipc	ra,0xfffff
    80000efe:	4b0080e7          	jalr	1200(ra) # 800003aa <_ZN4core3fmt5Write9write_fmt17hfb225cb6e35b7615E>
    80000f02:	70e2                	ld	ra,56(sp)
    80000f04:	6121                	addi	sp,sp,64
    80000f06:	8082                	ret

0000000080000f08 <_ZN50_$LT$$RF$mut$u20$W$u20$as$u20$core..fmt..Write$GT$9write_str17h46e1f1cc7509d35aE>:
    80000f08:	1141                	addi	sp,sp,-16
    80000f0a:	e406                	sd	ra,8(sp)
    80000f0c:	6108                	ld	a0,0(a0)
    80000f0e:	00000097          	auipc	ra,0x0
    80000f12:	6e0080e7          	jalr	1760(ra) # 800015ee <_ZN72_$LT$main..panic..InternalTerminalStruct$u20$as$u20$core..fmt..Write$GT$9write_str17h3a2375028035007aE>
    80000f16:	60a2                	ld	ra,8(sp)
    80000f18:	0141                	addi	sp,sp,16
    80000f1a:	8082                	ret

0000000080000f1c <_ZN50_$LT$$RF$mut$u20$W$u20$as$u20$core..fmt..Write$GT$9write_str17h7d6dc6487ec078feE>:
    80000f1c:	1141                	addi	sp,sp,-16
    80000f1e:	e406                	sd	ra,8(sp)
    80000f20:	6108                	ld	a0,0(a0)
    80000f22:	00000097          	auipc	ra,0x0
    80000f26:	770080e7          	jalr	1904(ra) # 80001692 <_ZN72_$LT$main..panic..InternalTerminalStruct$u20$as$u20$core..fmt..Write$GT$9write_str17h0fb862db8b87992cE>
    80000f2a:	60a2                	ld	ra,8(sp)
    80000f2c:	0141                	addi	sp,sp,16
    80000f2e:	8082                	ret

0000000080000f30 <_ZN50_$LT$$RF$mut$u20$W$u20$as$u20$core..fmt..Write$GT$9write_str17h9d94d703d7673659E>:
    80000f30:	1141                	addi	sp,sp,-16
    80000f32:	e406                	sd	ra,8(sp)
    80000f34:	6108                	ld	a0,0(a0)
    80000f36:	00000097          	auipc	ra,0x0
    80000f3a:	666080e7          	jalr	1638(ra) # 8000159c <_ZN71_$LT$main..test..InternalTerminalStruct$u20$as$u20$core..fmt..Write$GT$9write_str17h658f28fd76b003f8E>
    80000f3e:	60a2                	ld	ra,8(sp)
    80000f40:	0141                	addi	sp,sp,16
    80000f42:	8082                	ret

0000000080000f44 <_ZN50_$LT$$RF$mut$u20$W$u20$as$u20$core..fmt..Write$GT$9write_str17hc99cd8b31b01b822E>:
    80000f44:	1141                	addi	sp,sp,-16
    80000f46:	e406                	sd	ra,8(sp)
    80000f48:	6108                	ld	a0,0(a0)
    80000f4a:	00000097          	auipc	ra,0x0
    80000f4e:	79a080e7          	jalr	1946(ra) # 800016e4 <_ZN72_$LT$main..panic..InternalTerminalStruct$u20$as$u20$core..fmt..Write$GT$9write_str17h317868fcad7f8653E>
    80000f52:	60a2                	ld	ra,8(sp)
    80000f54:	0141                	addi	sp,sp,16
    80000f56:	8082                	ret

0000000080000f58 <_ZN50_$LT$$RF$mut$u20$W$u20$as$u20$core..fmt..Write$GT$9write_str17hf492ac2efdd4ef2dE>:
    80000f58:	1141                	addi	sp,sp,-16
    80000f5a:	e406                	sd	ra,8(sp)
    80000f5c:	6108                	ld	a0,0(a0)
    80000f5e:	00000097          	auipc	ra,0x0
    80000f62:	6e2080e7          	jalr	1762(ra) # 80001640 <_ZN72_$LT$main..panic..InternalTerminalStruct$u20$as$u20$core..fmt..Write$GT$9write_str17hceef8a2550918339E>
    80000f66:	60a2                	ld	ra,8(sp)
    80000f68:	0141                	addi	sp,sp,16
    80000f6a:	8082                	ret

0000000080000f6c <_ZN50_$LT$T$u20$as$u20$core..convert..From$LT$T$GT$$GT$4from17h9201dc672112c2a6E>:
    80000f6c:	8082                	ret

0000000080000f6e <_ZN63_$LT$I$u20$as$u20$core..iter..traits..collect..IntoIterator$GT$9into_iter17h0f4869994a91f83bE>:
    80000f6e:	862e                	mv	a2,a1
    80000f70:	86aa                	mv	a3,a0
    80000f72:	8082                	ret

0000000080000f74 <_ZN63_$LT$I$u20$as$u20$core..iter..traits..collect..IntoIterator$GT$9into_iter17h117a1887a51e185aE>:
    80000f74:	8082                	ret

0000000080000f76 <_ZN69_$LT$core..option..Option$LT$T$GT$$u20$as$u20$core..ops..try..Try$GT$10from_error17h9d77fdd99fd547e8E>:
    80000f76:	1141                	addi	sp,sp,-16
    80000f78:	4501                	li	a0,0
    80000f7a:	c42a                	sw	a0,8(sp)
    80000f7c:	45b2                	lw	a1,12(sp)
    80000f7e:	0141                	addi	sp,sp,16
    80000f80:	8082                	ret

0000000080000f82 <_ZN69_$LT$core..option..Option$LT$T$GT$$u20$as$u20$core..ops..try..Try$GT$11into_result17habd757ebf9db451bE>:
    80000f82:	1141                	addi	sp,sp,-16
    80000f84:	e406                	sd	ra,8(sp)
    80000f86:	00000097          	auipc	ra,0x0
    80000f8a:	dfc080e7          	jalr	-516(ra) # 80000d82 <_ZN4core6option15Option$LT$T$GT$5ok_or17h6cc6080637db9991E>
    80000f8e:	60a2                	ld	ra,8(sp)
    80000f90:	0141                	addi	sp,sp,16
    80000f92:	8082                	ret

0000000080000f94 <_ZN81_$LT$core..str..iter..Chars$u20$as$u20$core..iter..traits..iterator..Iterator$GT$4next17h3c3c9bf87d2f1576E>:
    80000f94:	1141                	addi	sp,sp,-16
    80000f96:	e406                	sd	ra,8(sp)
    80000f98:	00000097          	auipc	ra,0x0
    80000f9c:	82e080e7          	jalr	-2002(ra) # 800007c6 <_ZN4core3str11validations15next_code_point17he8e495c947b1b4ecE>
    80000fa0:	00000097          	auipc	ra,0x0
    80000fa4:	d9a080e7          	jalr	-614(ra) # 80000d3a <_ZN4core6option15Option$LT$T$GT$3map17hb245302b35b50634E>
    80000fa8:	1502                	slli	a0,a0,0x20
    80000faa:	9101                	srli	a0,a0,0x20
    80000fac:	60a2                	ld	ra,8(sp)
    80000fae:	0141                	addi	sp,sp,16
    80000fb0:	8082                	ret

0000000080000fb2 <_ZN81_$LT$core..str..iter..Chars$u20$as$u20$core..iter..traits..iterator..Iterator$GT$4next28_$u7b$$u7b$closure$u7d$$u7d$17h9df08781dd5ffb05E>:
    80000fb2:	1141                	addi	sp,sp,-16
    80000fb4:	e406                	sd	ra,8(sp)
    80000fb6:	85aa                	mv	a1,a0
    80000fb8:	e02e                	sd	a1,0(sp)
    80000fba:	00000097          	auipc	ra,0x0
    80000fbe:	97c080e7          	jalr	-1668(ra) # 80000936 <_ZN4core4char7convert18from_u32_unchecked17h30a4204f364e3398E>
    80000fc2:	1502                	slli	a0,a0,0x20
    80000fc4:	9101                	srli	a0,a0,0x20
    80000fc6:	60a2                	ld	ra,8(sp)
    80000fc8:	0141                	addi	sp,sp,16
    80000fca:	8082                	ret

0000000080000fcc <_ZN91_$LT$core..slice..iter..Iter$LT$T$GT$$u20$as$u20$core..iter..traits..iterator..Iterator$GT$4next17h023612bb33cf7b8fE>:
    80000fcc:	1101                	addi	sp,sp,-32
    80000fce:	ec06                	sd	ra,24(sp)
    80000fd0:	610c                	ld	a1,0(a0)
    80000fd2:	e42a                	sd	a0,8(sp)
    80000fd4:	852e                	mv	a0,a1
    80000fd6:	fffff097          	auipc	ra,0xfffff
    80000fda:	756080e7          	jalr	1878(ra) # 8000072c <_ZN4core3ptr8non_null16NonNull$LT$T$GT$6as_ptr17ha364e7dc4c4c017fE>
    80000fde:	fffff097          	auipc	ra,0xfffff
    80000fe2:	720080e7          	jalr	1824(ra) # 800006fe <_ZN4core3ptr7mut_ptr31_$LT$impl$u20$$BP$mut$u20$T$GT$7is_null17hf76e879a55d9c912E>
    80000fe6:	e02a                	sd	a0,0(sp)
    80000fe8:	fffff097          	auipc	ra,0xfffff
    80000fec:	476080e7          	jalr	1142(ra) # 8000045e <_ZN4core3mem7size_of17h3f40db87ffefcd91E>
    80000ff0:	4581                	li	a1,0
    80000ff2:	00b50a63          	beq	a0,a1,80001006 <_ZN91_$LT$core..slice..iter..Iter$LT$T$GT$$u20$as$u20$core..iter..traits..iterator..Iterator$GT$4next17h023612bb33cf7b8fE+0x3a>
    80000ff6:	a009                	j	80000ff8 <_ZN91_$LT$core..slice..iter..Iter$LT$T$GT$$u20$as$u20$core..iter..traits..iterator..Iterator$GT$4next17h023612bb33cf7b8fE+0x2c>
    80000ff8:	6522                	ld	a0,8(sp)
    80000ffa:	6508                	ld	a0,8(a0)
    80000ffc:	fffff097          	auipc	ra,0xfffff
    80001000:	77e080e7          	jalr	1918(ra) # 8000077a <_ZN4core3ptr9const_ptr33_$LT$impl$u20$$BP$const$u20$T$GT$7is_null17h55cea2ae11f2f979E>
    80001004:	a009                	j	80001006 <_ZN91_$LT$core..slice..iter..Iter$LT$T$GT$$u20$as$u20$core..iter..traits..iterator..Iterator$GT$4next17h023612bb33cf7b8fE+0x3a>
    80001006:	6522                	ld	a0,8(sp)
    80001008:	6108                	ld	a0,0(a0)
    8000100a:	fffff097          	auipc	ra,0xfffff
    8000100e:	722080e7          	jalr	1826(ra) # 8000072c <_ZN4core3ptr8non_null16NonNull$LT$T$GT$6as_ptr17ha364e7dc4c4c017fE>
    80001012:	65a2                	ld	a1,8(sp)
    80001014:	6590                	ld	a2,8(a1)
    80001016:	00c50b63          	beq	a0,a2,8000102c <_ZN91_$LT$core..slice..iter..Iter$LT$T$GT$$u20$as$u20$core..iter..traits..iterator..Iterator$GT$4next17h023612bb33cf7b8fE+0x60>
    8000101a:	a009                	j	8000101c <_ZN91_$LT$core..slice..iter..Iter$LT$T$GT$$u20$as$u20$core..iter..traits..iterator..Iterator$GT$4next17h023612bb33cf7b8fE+0x50>
    8000101c:	4585                	li	a1,1
    8000101e:	6522                	ld	a0,8(sp)
    80001020:	00000097          	auipc	ra,0x0
    80001024:	bf6080e7          	jalr	-1034(ra) # 80000c16 <_ZN4core5slice4iter13Iter$LT$T$GT$14post_inc_start17h07ce45462a1c9fafE>
    80001028:	e82a                	sd	a0,16(sp)
    8000102a:	a021                	j	80001032 <_ZN91_$LT$core..slice..iter..Iter$LT$T$GT$$u20$as$u20$core..iter..traits..iterator..Iterator$GT$4next17h023612bb33cf7b8fE+0x66>
    8000102c:	4501                	li	a0,0
    8000102e:	e82a                	sd	a0,16(sp)
    80001030:	a009                	j	80001032 <_ZN91_$LT$core..slice..iter..Iter$LT$T$GT$$u20$as$u20$core..iter..traits..iterator..Iterator$GT$4next17h023612bb33cf7b8fE+0x66>
    80001032:	6542                	ld	a0,16(sp)
    80001034:	60e2                	ld	ra,24(sp)
    80001036:	6105                	addi	sp,sp,32
    80001038:	8082                	ret

000000008000103a <_ZN97_$LT$core..ops..range..RangeFull$u20$as$u20$core..slice..index..SliceIndex$LT$$u5b$T$u5d$$GT$$GT$9index_mut17he7eccd50c5e62c2aE>:
    8000103a:	8082                	ret

000000008000103c <rust_main>:
    8000103c:	1141                	addi	sp,sp,-16
    8000103e:	e406                	sd	ra,8(sp)
    80001040:	00000097          	auipc	ra,0x0
    80001044:	024080e7          	jalr	36(ra) # 80001064 <fib>
    80001048:	00002517          	auipc	a0,0x2
    8000104c:	1e050513          	addi	a0,a0,480 # 80003228 <point+0x200>
    80001050:	00002617          	auipc	a2,0x2
    80001054:	1f860613          	addi	a2,a2,504 # 80003248 <point+0x220>
    80001058:	45c9                	li	a1,18
    8000105a:	00000097          	auipc	ra,0x0
    8000105e:	6e2080e7          	jalr	1762(ra) # 8000173c <_ZN4core9panicking5panic17h070221acf2d57f95E>
	...

0000000080001064 <fib>:
addi	sp,sp,-64
sd	ra,56(sp)
li	a0,1
sw	a0,24(sp)
sw	a0,28(sp)
li	a0,5
slli	a0,a0,0x21
sd	a0,32(sp)
li	a0,0
 	li	a1,10
auipc	ra,0x0
jalr	-266(ra) # 80000f6e <_ZN63_$LT$I$u20$as$u20$core..iter..traits..collect..IntoIterator$GT$9into_iter17h0f4869994a91f83bE>

sw	a0,40(sp)
sw	a1,44(sp)
j	80001086 <fib+0x22>
addi	a0,sp,40
ipc	ra,0x0
jalr	-1258(ra) # 80000b9e <_ZN4core4iter5range101_$LT$impl$u20$core..iter..traits..iterator..Iterator$u20$for$u20$core..ops..range..Range$LT$A$GT$$GT$4next17h0e55921054be0607E>
sw	a0,48(sp)
sw	a1,52(sp)
lw	a0,48(sp)
li	a1,0
bne	a0,a1,800010a4 <fib+0x40>
j	8000109e <fib+0x3a>
ld	ra,56(sp)
addi	sp,sp,64
ret
lw	a0,28(sp)
auipc	ra,0x0
jalr	72(ra) # 800010ee <_ZN4main4test17hb706e43d441cd80cE>
lw	a0,28(sp)
slli	a1,a0,0x20
srli	a1,a1,0x20
lw	a2,24(sp)
add	a3,a0,a2
addw	a0,a0,a2
sd	a1,16(sp)
sd	a3,8(sp)
bne	a0,a3,800010d2 <fib+0x6e>
j	800010c8 <fib+0x64>
ld	a0,8(sp)
sw	a0,28(sp)
ld	a1,16(sp)
sw	a1,24(sp)
j	80001086 <fib+0x22>
auipc	a0,0x2
addi	a0,a0,430 # 80003280 <str.0>
auipc	a2,0x2
addi	a2,a2,390 # 80003260 <point+0x238>
li	a1,28
auipc	ra,0x0
jalr	1624(ra) # 8000173c <_ZN4core9panicking5panic17h070221acf2d57f95E>


hb706e43d441cd80cE>:
 	addi	sp,sp,-144
 	sd	ra,136(sp)
 	mv	a1,a0
 	sw	a0,52(sp)
 	addi	a0,sp,52
 	sd	a0,128(sp)
 auipc	a2,0x2
 	addi	a2,a2,-986 # 80002d20 <_ZN4core3fmt3num3imp52_$LT$impl$u20$core..fmt..Display$u20$for$u20$i32$GT$3fmt17hb5f330747680893bE>
   	sd	a1,40(sp)
   	mv	a1,a2
 	auipc	ra,0xfffff
 	jalr	124(ra) # 80000182 <_ZN4core3fmt10ArgumentV13new17hafe335a54ab74929E>
   	sd	a0,112(sp)
   	sd	a1,120(sp)
 	auipc	a1,0x2
 	addi	a1,a1,398 # 800032a0 <str.0+0x20>
   	addi	a0,sp,64
   	addi	a3,sp,112
   	li	a2,1
   	sd	a0,32(sp)
   	sd	a2,24(sp)
   	ld	a4,24(sp)
 	auipc	ra,0xfffff
 	jalr	700(ra) # 800003e2 <_ZN4core3fmt9Arguments6new_v117h5b30265b08afbc6eE>
   	addi	a0,sp,56
   	sd	a0,16(sp)
   	ld	a1,32(sp)
 	auipc	ra,0xfffff
 	jalr	630(ra) # 800003aa <_ZN4core3fmt5Write9write_fmt17hfb225cb6e35b7615E>
 	auipc	a1,0x2
 	addi	a1,a1,372 # 800032b0 <str.0+0x30>
   	ld	a2,16(sp)
   	sd	a0,8(sp)
   	mv	a0,a2
   	ld	a2,24(sp)
4c:	00000097          	auipc	ra,0x0
50:	450080e7          	jalr	1104(ra) # 8000159c <_ZN71_$LT$main..test..InternalTerminalStruct$u20$as$u20$core..fmt..Write$GT$9write_str17h658f28fd76b003f8E>
54:	60aa                	ld	ra,136(sp)
56:	6149                	addi	sp,sp,144
    80001158:	8082                	ret

000000008000115a <rust_begin_unwind>:
    8000115a:	df010113          	addi	sp,sp,-528
    8000115e:	20113423          	sd	ra,520(sp)
    80001162:	e92a                	sd	a0,144(sp)
    80001164:	00002097          	auipc	ra,0x2
    80001168:	95e080e7          	jalr	-1698(ra) # 80002ac2 <_ZN4core5panic9PanicInfo7message17h7e06d7c4da9bb8fbE>
    8000116c:	ed2a                	sd	a0,152(sp)
    8000116e:	4581                	li	a1,0
    80001170:	02b51a63          	bne	a0,a1,800011a4 <rust_begin_unwind+0x4a>
    80001174:	a009                	j	80001176 <rust_begin_unwind+0x1c>
    80001176:	00002597          	auipc	a1,0x2
    8000117a:	15258593          	addi	a1,a1,338 # 800032c8 <str.0+0x48>
    8000117e:	00002697          	auipc	a3,0x2
    80001182:	12268693          	addi	a3,a3,290 # 800032a0 <str.0+0x20>
    80001186:	0208                	addi	a0,sp,256
    80001188:	4605                	li	a2,1
    8000118a:	4701                	li	a4,0
    8000118c:	e52a                	sd	a0,136(sp)
    8000118e:	fffff097          	auipc	ra,0xfffff
    80001192:	254080e7          	jalr	596(ra) # 800003e2 <_ZN4core3fmt9Arguments6new_v117h5b30265b08afbc6eE>
    80001196:	19a8                	addi	a0,sp,248
    80001198:	65aa                	ld	a1,136(sp)
    8000119a:	fffff097          	auipc	ra,0xfffff
    8000119e:	1d8080e7          	jalr	472(ra) # 80000372 <_ZN4core3fmt5Write9write_fmt17hd759890e748d84bbE>
    800011a2:	a099                	j	800011e8 <rust_begin_unwind+0x8e>
    800011a4:	656a                	ld	a0,152(sp)
    800011a6:	f12a                	sd	a0,160(sp)
    800011a8:	1108                	addi	a0,sp,160
    800011aa:	f9aa                	sd	a0,240(sp)
    800011ac:	fffff597          	auipc	a1,0xfffff
    800011b0:	f4658593          	addi	a1,a1,-186 # 800000f2 <_ZN44_$LT$$RF$T$u20$as$u20$core..fmt..Display$GT$3fmt17h41d7698a43e6d759E>
    800011b4:	fffff097          	auipc	ra,0xfffff
    800011b8:	fdc080e7          	jalr	-36(ra) # 80000190 <_ZN4core3fmt10ArgumentV13new17hcef6fe4860a5dfcdE>
    800011bc:	f1aa                	sd	a0,224(sp)
    800011be:	f5ae                	sd	a1,232(sp)
    800011c0:	00002597          	auipc	a1,0x2
    800011c4:	13058593          	addi	a1,a1,304 # 800032f0 <str.0+0x70>
    800011c8:	1908                	addi	a0,sp,176
    800011ca:	4609                	li	a2,2
    800011cc:	1194                	addi	a3,sp,224
    800011ce:	4705                	li	a4,1
    800011d0:	e12a                	sd	a0,128(sp)
    800011d2:	fffff097          	auipc	ra,0xfffff
    800011d6:	210080e7          	jalr	528(ra) # 800003e2 <_ZN4core3fmt9Arguments6new_v117h5b30265b08afbc6eE>
    800011da:	1128                	addi	a0,sp,168
    800011dc:	658a                	ld	a1,128(sp)
    800011de:	fffff097          	auipc	ra,0xfffff
    800011e2:	15c080e7          	jalr	348(ra) # 8000033a <_ZN4core3fmt5Write9write_fmt17hc87f7c7ddfec3b28E>
    800011e6:	a009                	j	800011e8 <rust_begin_unwind+0x8e>
    800011e8:	654a                	ld	a0,144(sp)
    800011ea:	00002097          	auipc	ra,0x2
    800011ee:	8dc080e7          	jalr	-1828(ra) # 80002ac6 <_ZN4core5panic9PanicInfo8location17h0abc48c834101343E>
    800011f2:	fa2a                	sd	a0,304(sp)
    800011f4:	4581                	li	a1,0
    800011f6:	04b51863          	bne	a0,a1,80001246 <rust_begin_unwind+0xec>
    800011fa:	a009                	j	800011fc <rust_begin_unwind+0xa2>
    800011fc:	00002597          	auipc	a1,0x2
    80001200:	12c58593          	addi	a1,a1,300 # 80003328 <str.0+0xa8>
    80001204:	00002697          	auipc	a3,0x2
    80001208:	09c68693          	addi	a3,a3,156 # 800032a0 <str.0+0x20>
    8000120c:	0ba8                	addi	a0,sp,472
    8000120e:	4605                	li	a2,1
    80001210:	4701                	li	a4,0
    80001212:	fcaa                	sd	a0,120(sp)
    80001214:	f8b2                	sd	a2,112(sp)
    80001216:	fffff097          	auipc	ra,0xfffff
    8000121a:	1cc080e7          	jalr	460(ra) # 800003e2 <_ZN4core3fmt9Arguments6new_v117h5b30265b08afbc6eE>
    8000121e:	0b88                	addi	a0,sp,464
    80001220:	f4aa                	sd	a0,104(sp)
    80001222:	75e6                	ld	a1,120(sp)
    80001224:	fffff097          	auipc	ra,0xfffff
    80001228:	0a6080e7          	jalr	166(ra) # 800002ca <_ZN4core3fmt5Write9write_fmt17h14ffed2b7bc6523bE>
    8000122c:	00002597          	auipc	a1,0x2
    80001230:	08458593          	addi	a1,a1,132 # 800032b0 <str.0+0x30>
    80001234:	7626                	ld	a2,104(sp)
    80001236:	f0aa                	sd	a0,96(sp)
    80001238:	8532                	mv	a0,a2
    8000123a:	7646                	ld	a2,112(sp)
    8000123c:	00000097          	auipc	ra,0x0
    80001240:	4a8080e7          	jalr	1192(ra) # 800016e4 <_ZN72_$LT$main..panic..InternalTerminalStruct$u20$as$u20$core..fmt..Write$GT$9write_str17h317868fcad7f8653E>
    80001244:	a8e1                	j	8000131c <rust_begin_unwind+0x1c2>
    80001246:	7552                	ld	a0,304(sp)
    80001248:	ecaa                	sd	a0,88(sp)
    8000124a:	00002097          	auipc	ra,0x2
    8000124e:	a70080e7          	jalr	-1424(ra) # 80002cba <_ZN4core5panic8Location4file17h3278b1ab669d65c9E>
    80001252:	ff2a                	sd	a0,440(sp)
    80001254:	e3ae                	sd	a1,448(sp)
    80001256:	6566                	ld	a0,88(sp)
    80001258:	00002097          	auipc	ra,0x2
    8000125c:	a72080e7          	jalr	-1422(ra) # 80002cca <_ZN4core5panic8Location4line17h3493b519820d30c1E>
    80001260:	1ca12423          	sw	a0,456(sp)
    80001264:	6566                	ld	a0,88(sp)
    80001266:	00002097          	auipc	ra,0x2
    8000126a:	a68080e7          	jalr	-1432(ra) # 80002cce <_ZN4core5panic8Location6column17h4292e61a8d1363daE>
    8000126e:	1ca12623          	sw	a0,460(sp)
    80001272:	1b28                	addi	a0,sp,440
    80001274:	f32a                	sd	a0,416(sp)
    80001276:	03ac                	addi	a1,sp,456
    80001278:	f72e                	sd	a1,424(sp)
    8000127a:	03f0                	addi	a2,sp,460
    8000127c:	fb32                	sd	a2,432(sp)
    8000127e:	fffff697          	auipc	a3,0xfffff
    80001282:	e5268693          	addi	a3,a3,-430 # 800000d0 <_ZN44_$LT$$RF$T$u20$as$u20$core..fmt..Display$GT$3fmt17h03bed7aab6509a0eE>
    80001286:	e8ae                	sd	a1,80(sp)
    80001288:	85b6                	mv	a1,a3
    8000128a:	e4b2                	sd	a2,72(sp)
    8000128c:	fffff097          	auipc	ra,0xfffff
    80001290:	eda080e7          	jalr	-294(ra) # 80000166 <_ZN4core3fmt10ArgumentV13new17h8f09df2bb6746d3fE>
    80001294:	00002617          	auipc	a2,0x2
    80001298:	83660613          	addi	a2,a2,-1994 # 80002aca <_ZN4core3fmt3num3imp52_$LT$impl$u20$core..fmt..Display$u20$for$u20$u32$GT$3fmt17ha3e73a453614bdb8E>
    8000129c:	66c6                	ld	a3,80(sp)
    8000129e:	e0aa                	sd	a0,64(sp)
    800012a0:	8536                	mv	a0,a3
    800012a2:	fc2e                	sd	a1,56(sp)
    800012a4:	85b2                	mv	a1,a2
    800012a6:	f832                	sd	a2,48(sp)
    800012a8:	fffff097          	auipc	ra,0xfffff
    800012ac:	eb0080e7          	jalr	-336(ra) # 80000158 <_ZN4core3fmt10ArgumentV13new17h3dca20cdd01c5628E>
    800012b0:	6626                	ld	a2,72(sp)
    800012b2:	f42a                	sd	a0,40(sp)
    800012b4:	8532                	mv	a0,a2
    800012b6:	76c2                	ld	a3,48(sp)
    800012b8:	f02e                	sd	a1,32(sp)
    800012ba:	85b6                	mv	a1,a3
    800012bc:	fffff097          	auipc	ra,0xfffff
    800012c0:	e9c080e7          	jalr	-356(ra) # 80000158 <_ZN4core3fmt10ArgumentV13new17h3dca20cdd01c5628E>
    800012c4:	6606                	ld	a2,64(sp)
    800012c6:	fab2                	sd	a2,368(sp)
    800012c8:	76e2                	ld	a3,56(sp)
    800012ca:	feb6                	sd	a3,376(sp)
    800012cc:	7722                	ld	a4,40(sp)
    800012ce:	e33a                	sd	a4,384(sp)
    800012d0:	7782                	ld	a5,32(sp)
    800012d2:	e73e                	sd	a5,392(sp)
    800012d4:	eb2a                	sd	a0,400(sp)
    800012d6:	ef2e                	sd	a1,408(sp)
    800012d8:	00002597          	auipc	a1,0x2
    800012dc:	07058593          	addi	a1,a1,112 # 80003348 <str.0+0xc8>
    800012e0:	0288                	addi	a0,sp,320
    800012e2:	1a94                	addi	a3,sp,368
    800012e4:	480d                	li	a6,3
    800012e6:	ec2a                	sd	a0,24(sp)
    800012e8:	8642                	mv	a2,a6
    800012ea:	8742                	mv	a4,a6
    800012ec:	fffff097          	auipc	ra,0xfffff
    800012f0:	0f6080e7          	jalr	246(ra) # 800003e2 <_ZN4core3fmt9Arguments6new_v117h5b30265b08afbc6eE>
    800012f4:	1a28                	addi	a0,sp,312
    800012f6:	e82a                	sd	a0,16(sp)
    800012f8:	65e2                	ld	a1,24(sp)
    800012fa:	fffff097          	auipc	ra,0xfffff
    800012fe:	008080e7          	jalr	8(ra) # 80000302 <_ZN4core3fmt5Write9write_fmt17h6189dbd65f2c0b73E>
    80001302:	00002597          	auipc	a1,0x2
    80001306:	fae58593          	addi	a1,a1,-82 # 800032b0 <str.0+0x30>
    8000130a:	4605                	li	a2,1
    8000130c:	66c2                	ld	a3,16(sp)
    8000130e:	e42a                	sd	a0,8(sp)
    80001310:	8536                	mv	a0,a3
    80001312:	00000097          	auipc	ra,0x0
    80001316:	380080e7          	jalr	896(ra) # 80001692 <_ZN72_$LT$main..panic..InternalTerminalStruct$u20$as$u20$core..fmt..Write$GT$9write_str17h0fb862db8b87992cE>
    8000131a:	a009                	j	8000131c <rust_begin_unwind+0x1c2>
    8000131c:	a009                	j	8000131e <rust_begin_unwind+0x1c4>
    8000131e:	a001                	j	8000131e <rust_begin_unwind+0x1c4>

0000000080001320 <memcpy>:
    80001320:	7139                	addi	sp,sp,-64
    80001322:	fc06                	sd	ra,56(sp)
    80001324:	4681                	li	a3,0
    80001326:	f836                	sd	a3,48(sp)
    80001328:	f432                	sd	a2,40(sp)
    8000132a:	f02e                	sd	a1,32(sp)
    8000132c:	ec2a                	sd	a0,24(sp)
    8000132e:	a009                	j	80001330 <memcpy+0x10>
    80001330:	7542                	ld	a0,48(sp)
    80001332:	75a2                	ld	a1,40(sp)
    80001334:	00b56763          	bltu	a0,a1,80001342 <memcpy+0x22>
    80001338:	a009                	j	8000133a <memcpy+0x1a>
    8000133a:	6562                	ld	a0,24(sp)
    8000133c:	70e2                	ld	ra,56(sp)
    8000133e:	6121                	addi	sp,sp,64
    80001340:	8082                	ret
    80001342:	75c2                	ld	a1,48(sp)
    80001344:	7502                	ld	a0,32(sp)
    80001346:	fffff097          	auipc	ra,0xfffff
    8000134a:	42a080e7          	jalr	1066(ra) # 80000770 <_ZN4core3ptr9const_ptr33_$LT$impl$u20$$BP$const$u20$T$GT$6offset17h8e461d62c3e887eaE>
    8000134e:	00050503          	lb	a0,0(a0)
    80001352:	75c2                	ld	a1,48(sp)
    80001354:	6662                	ld	a2,24(sp)
    80001356:	e82a                	sd	a0,16(sp)
    80001358:	8532                	mv	a0,a2
    8000135a:	fffff097          	auipc	ra,0xfffff
    8000135e:	39a080e7          	jalr	922(ra) # 800006f4 <_ZN4core3ptr7mut_ptr31_$LT$impl$u20$$BP$mut$u20$T$GT$6offset17hbdbe5f96a0c3526fE>
    80001362:	65c2                	ld	a1,16(sp)
    80001364:	00b50023          	sb	a1,0(a0)
    80001368:	7542                	ld	a0,48(sp)
    8000136a:	00150593          	addi	a1,a0,1
    8000136e:	e42e                	sd	a1,8(sp)
    80001370:	00a5e663          	bltu	a1,a0,8000137c <memcpy+0x5c>
    80001374:	a009                	j	80001376 <memcpy+0x56>
    80001376:	6522                	ld	a0,8(sp)
    80001378:	f82a                	sd	a0,48(sp)
    8000137a:	bf5d                	j	80001330 <memcpy+0x10>
    8000137c:	00002517          	auipc	a0,0x2
    80001380:	f0450513          	addi	a0,a0,-252 # 80003280 <str.0>
    80001384:	00002617          	auipc	a2,0x2
    80001388:	ff460613          	addi	a2,a2,-12 # 80003378 <str.0+0xf8>
    8000138c:	45f1                	li	a1,28
    8000138e:	00000097          	auipc	ra,0x0
    80001392:	3ae080e7          	jalr	942(ra) # 8000173c <_ZN4core9panicking5panic17h070221acf2d57f95E>
	...

0000000080001398 <memmove>:
    80001398:	715d                	addi	sp,sp,-80
    8000139a:	e486                	sd	ra,72(sp)
    8000139c:	f832                	sd	a2,48(sp)
    8000139e:	f42e                	sd	a1,40(sp)
    800013a0:	f02a                	sd	a0,32(sp)
    800013a2:	00a5e663          	bltu	a1,a0,800013ae <memmove+0x16>
    800013a6:	a009                	j	800013a8 <memmove+0x10>
    800013a8:	4501                	li	a0,0
    800013aa:	e0aa                	sd	a0,64(sp)
    800013ac:	a0b1                	j	800013f8 <memmove+0x60>
    800013ae:	7542                	ld	a0,48(sp)
    800013b0:	fc2a                	sd	a0,56(sp)
    800013b2:	a009                	j	800013b4 <memmove+0x1c>
    800013b4:	7562                	ld	a0,56(sp)
    800013b6:	4581                	li	a1,0
    800013b8:	08b50263          	beq	a0,a1,8000143c <memmove+0xa4>
    800013bc:	a009                	j	800013be <memmove+0x26>
    800013be:	7562                	ld	a0,56(sp)
    800013c0:	fff50593          	addi	a1,a0,-1
    800013c4:	ec2e                	sd	a1,24(sp)
    800013c6:	06b56f63          	bltu	a0,a1,80001444 <memmove+0xac>
    800013ca:	a009                	j	800013cc <memmove+0x34>
    800013cc:	6562                	ld	a0,24(sp)
    800013ce:	fc2a                	sd	a0,56(sp)
    800013d0:	7522                	ld	a0,40(sp)
    800013d2:	65e2                	ld	a1,24(sp)
    800013d4:	fffff097          	auipc	ra,0xfffff
    800013d8:	39c080e7          	jalr	924(ra) # 80000770 <_ZN4core3ptr9const_ptr33_$LT$impl$u20$$BP$const$u20$T$GT$6offset17h8e461d62c3e887eaE>
    800013dc:	00050503          	lb	a0,0(a0)
    800013e0:	75e2                	ld	a1,56(sp)
    800013e2:	7602                	ld	a2,32(sp)
    800013e4:	e82a                	sd	a0,16(sp)
    800013e6:	8532                	mv	a0,a2
    800013e8:	fffff097          	auipc	ra,0xfffff
    800013ec:	30c080e7          	jalr	780(ra) # 800006f4 <_ZN4core3ptr7mut_ptr31_$LT$impl$u20$$BP$mut$u20$T$GT$6offset17hbdbe5f96a0c3526fE>
    800013f0:	65c2                	ld	a1,16(sp)
    800013f2:	00b50023          	sb	a1,0(a0)
    800013f6:	bf7d                	j	800013b4 <memmove+0x1c>
    800013f8:	6506                	ld	a0,64(sp)
    800013fa:	75c2                	ld	a1,48(sp)
    800013fc:	04b57063          	bgeu	a0,a1,8000143c <memmove+0xa4>
    80001400:	a009                	j	80001402 <memmove+0x6a>
    80001402:	6586                	ld	a1,64(sp)
    80001404:	7522                	ld	a0,40(sp)
    80001406:	fffff097          	auipc	ra,0xfffff
    8000140a:	36a080e7          	jalr	874(ra) # 80000770 <_ZN4core3ptr9const_ptr33_$LT$impl$u20$$BP$const$u20$T$GT$6offset17h8e461d62c3e887eaE>
    8000140e:	00050503          	lb	a0,0(a0)
    80001412:	6586                	ld	a1,64(sp)
    80001414:	7602                	ld	a2,32(sp)
    80001416:	e42a                	sd	a0,8(sp)
    80001418:	8532                	mv	a0,a2
    8000141a:	fffff097          	auipc	ra,0xfffff
    8000141e:	2da080e7          	jalr	730(ra) # 800006f4 <_ZN4core3ptr7mut_ptr31_$LT$impl$u20$$BP$mut$u20$T$GT$6offset17hbdbe5f96a0c3526fE>
    80001422:	65a2                	ld	a1,8(sp)
    80001424:	00b50023          	sb	a1,0(a0)
    80001428:	6506                	ld	a0,64(sp)
    8000142a:	00150593          	addi	a1,a0,1
    8000142e:	e02e                	sd	a1,0(sp)
    80001430:	02a5e963          	bltu	a1,a0,80001462 <memmove+0xca>
    80001434:	a009                	j	80001436 <memmove+0x9e>
    80001436:	6502                	ld	a0,0(sp)
    80001438:	e0aa                	sd	a0,64(sp)
    8000143a:	bf7d                	j	800013f8 <memmove+0x60>
    8000143c:	7502                	ld	a0,32(sp)
    8000143e:	60a6                	ld	ra,72(sp)
    80001440:	6161                	addi	sp,sp,80
    80001442:	8082                	ret
    80001444:	00002517          	auipc	a0,0x2
    80001448:	f6c50513          	addi	a0,a0,-148 # 800033b0 <str.1>
    8000144c:	00002617          	auipc	a2,0x2
    80001450:	f4460613          	addi	a2,a2,-188 # 80003390 <str.0+0x110>
    80001454:	02100593          	li	a1,33
    80001458:	00000097          	auipc	ra,0x0
    8000145c:	2e4080e7          	jalr	740(ra) # 8000173c <_ZN4core9panicking5panic17h070221acf2d57f95E>
    80001460:	0000                	unimp
    80001462:	00002517          	auipc	a0,0x2
    80001466:	e1e50513          	addi	a0,a0,-482 # 80003280 <str.0>
    8000146a:	00002617          	auipc	a2,0x2
    8000146e:	f6e60613          	addi	a2,a2,-146 # 800033d8 <str.1+0x28>
    80001472:	45f1                	li	a1,28
    80001474:	00000097          	auipc	ra,0x0
    80001478:	2c8080e7          	jalr	712(ra) # 8000173c <_ZN4core9panicking5panic17h070221acf2d57f95E>
	...

000000008000147e <memset>:
    8000147e:	7179                	addi	sp,sp,-48
    80001480:	f406                	sd	ra,40(sp)
    80001482:	4681                	li	a3,0
    80001484:	f036                	sd	a3,32(sp)
    80001486:	ec32                	sd	a2,24(sp)
    80001488:	e82a                	sd	a0,16(sp)
    8000148a:	e42e                	sd	a1,8(sp)
    8000148c:	a009                	j	8000148e <memset+0x10>
    8000148e:	7502                	ld	a0,32(sp)
    80001490:	65e2                	ld	a1,24(sp)
    80001492:	00b56763          	bltu	a0,a1,800014a0 <memset+0x22>
    80001496:	a009                	j	80001498 <memset+0x1a>
    80001498:	6542                	ld	a0,16(sp)
    8000149a:	70a2                	ld	ra,40(sp)
    8000149c:	6145                	addi	sp,sp,48
    8000149e:	8082                	ret
    800014a0:	7582                	ld	a1,32(sp)
    800014a2:	6542                	ld	a0,16(sp)
    800014a4:	fffff097          	auipc	ra,0xfffff
    800014a8:	250080e7          	jalr	592(ra) # 800006f4 <_ZN4core3ptr7mut_ptr31_$LT$impl$u20$$BP$mut$u20$T$GT$6offset17hbdbe5f96a0c3526fE>
    800014ac:	65a2                	ld	a1,8(sp)
    800014ae:	00b50023          	sb	a1,0(a0)
    800014b2:	7502                	ld	a0,32(sp)
    800014b4:	00150613          	addi	a2,a0,1
    800014b8:	e032                	sd	a2,0(sp)
    800014ba:	00a66663          	bltu	a2,a0,800014c6 <memset+0x48>
    800014be:	a009                	j	800014c0 <memset+0x42>
    800014c0:	6502                	ld	a0,0(sp)
    800014c2:	f02a                	sd	a0,32(sp)
    800014c4:	b7e9                	j	8000148e <memset+0x10>
    800014c6:	00002517          	auipc	a0,0x2
    800014ca:	dba50513          	addi	a0,a0,-582 # 80003280 <str.0>
    800014ce:	00002617          	auipc	a2,0x2
    800014d2:	f2260613          	addi	a2,a2,-222 # 800033f0 <str.1+0x40>
    800014d6:	45f1                	li	a1,28
    800014d8:	00000097          	auipc	ra,0x0
    800014dc:	264080e7          	jalr	612(ra) # 8000173c <_ZN4core9panicking5panic17h070221acf2d57f95E>
	...

00000000800014e2 <memcmp>:
    800014e2:	715d                	addi	sp,sp,-80
    800014e4:	e486                	sd	ra,72(sp)
    800014e6:	4681                	li	a3,0
    800014e8:	e0b6                	sd	a3,64(sp)
    800014ea:	f832                	sd	a2,48(sp)
    800014ec:	f42e                	sd	a1,40(sp)
    800014ee:	f02a                	sd	a0,32(sp)
    800014f0:	a009                	j	800014f2 <memcmp+0x10>
    800014f2:	6506                	ld	a0,64(sp)
    800014f4:	75c2                	ld	a1,48(sp)
    800014f6:	00b56663          	bltu	a0,a1,80001502 <memcmp+0x20>
    800014fa:	a009                	j	800014fc <memcmp+0x1a>
    800014fc:	4501                	li	a0,0
    800014fe:	de2a                	sw	a0,60(sp)
    80001500:	a8a9                	j	8000155a <memcmp+0x78>
    80001502:	6586                	ld	a1,64(sp)
    80001504:	7502                	ld	a0,32(sp)
    80001506:	fffff097          	auipc	ra,0xfffff
    8000150a:	26a080e7          	jalr	618(ra) # 80000770 <_ZN4core3ptr9const_ptr33_$LT$impl$u20$$BP$const$u20$T$GT$6offset17h8e461d62c3e887eaE>
    8000150e:	00054503          	lbu	a0,0(a0)
    80001512:	6586                	ld	a1,64(sp)
    80001514:	7622                	ld	a2,40(sp)
    80001516:	ec2a                	sd	a0,24(sp)
    80001518:	8532                	mv	a0,a2
    8000151a:	fffff097          	auipc	ra,0xfffff
    8000151e:	256080e7          	jalr	598(ra) # 80000770 <_ZN4core3ptr9const_ptr33_$LT$impl$u20$$BP$const$u20$T$GT$6offset17h8e461d62c3e887eaE>
    80001522:	00054503          	lbu	a0,0(a0)
    80001526:	65e2                	ld	a1,24(sp)
    80001528:	e82a                	sd	a0,16(sp)
    8000152a:	00a59a63          	bne	a1,a0,8000153e <memcmp+0x5c>
    8000152e:	a009                	j	80001530 <memcmp+0x4e>
    80001530:	6506                	ld	a0,64(sp)
    80001532:	00150593          	addi	a1,a0,1
    80001536:	e42e                	sd	a1,8(sp)
    80001538:	04a5e463          	bltu	a1,a0,80001580 <memcmp+0x9e>
    8000153c:	a821                	j	80001554 <memcmp+0x72>
    8000153e:	6562                	ld	a0,24(sp)
    80001540:	65c2                	ld	a1,16(sp)
    80001542:	40b50633          	sub	a2,a0,a1
    80001546:	4681                	li	a3,0
    80001548:	e032                	sd	a2,0(sp)
    8000154a:	ee81                	bnez	a3,80001562 <memcmp+0x80>
    8000154c:	a009                	j	8000154e <memcmp+0x6c>
    8000154e:	6502                	ld	a0,0(sp)
    80001550:	de2a                	sw	a0,60(sp)
    80001552:	a021                	j	8000155a <memcmp+0x78>
    80001554:	6522                	ld	a0,8(sp)
    80001556:	e0aa                	sd	a0,64(sp)
    80001558:	bf69                	j	800014f2 <memcmp+0x10>
    8000155a:	5572                	lw	a0,60(sp)
    8000155c:	60a6                	ld	ra,72(sp)
    8000155e:	6161                	addi	sp,sp,80
    80001560:	8082                	ret
    80001562:	00002517          	auipc	a0,0x2
    80001566:	e4e50513          	addi	a0,a0,-434 # 800033b0 <str.1>
    8000156a:	00002617          	auipc	a2,0x2
    8000156e:	e9e60613          	addi	a2,a2,-354 # 80003408 <str.1+0x58>
    80001572:	02100593          	li	a1,33
    80001576:	00000097          	auipc	ra,0x0
    8000157a:	1c6080e7          	jalr	454(ra) # 8000173c <_ZN4core9panicking5panic17h070221acf2d57f95E>
    8000157e:	0000                	unimp
    80001580:	00002517          	auipc	a0,0x2
    80001584:	d0050513          	addi	a0,a0,-768 # 80003280 <str.0>
    80001588:	00002617          	auipc	a2,0x2
    8000158c:	e9860613          	addi	a2,a2,-360 # 80003420 <str.1+0x70>
    80001590:	45f1                	li	a1,28
    80001592:	00000097          	auipc	ra,0x0
    80001596:	1aa080e7          	jalr	426(ra) # 8000173c <_ZN4core9panicking5panic17h070221acf2d57f95E>
	...

000000008000159c <_ZN71_$LT$main..test..InternalTerminalStruct$u20$as$u20$core..fmt..Write$GT$9write_str17h658f28fd76b003f8E>:
    8000159c:	7179                	addi	sp,sp,-48
    8000159e:	f406                	sd	ra,40(sp)
    800015a0:	852e                	mv	a0,a1
    800015a2:	85b2                	mv	a1,a2
    800015a4:	fffff097          	auipc	ra,0xfffff
    800015a8:	368080e7          	jalr	872(ra) # 8000090c <_ZN4core3str21_$LT$impl$u20$str$GT$5chars17hb013d1d579903d21E>
    800015ac:	00000097          	auipc	ra,0x0
    800015b0:	9c8080e7          	jalr	-1592(ra) # 80000f74 <_ZN63_$LT$I$u20$as$u20$core..iter..traits..collect..IntoIterator$GT$9into_iter17h117a1887a51e185aE>
    800015b4:	e82a                	sd	a0,16(sp)
    800015b6:	ec2e                	sd	a1,24(sp)
    800015b8:	a009                	j	800015ba <_ZN71_$LT$main..test..InternalTerminalStruct$u20$as$u20$core..fmt..Write$GT$9write_str17h658f28fd76b003f8E+0x1e>
    800015ba:	0808                	addi	a0,sp,16
    800015bc:	00000097          	auipc	ra,0x0
    800015c0:	9d8080e7          	jalr	-1576(ra) # 80000f94 <_ZN81_$LT$core..str..iter..Chars$u20$as$u20$core..iter..traits..iterator..Iterator$GT$4next17h3c3c9bf87d2f1576E>
    800015c4:	1502                	slli	a0,a0,0x20
    800015c6:	9101                	srli	a0,a0,0x20
    800015c8:	d22a                	sw	a0,36(sp)
    800015ca:	001105b7          	lui	a1,0x110
    800015ce:	00b51963          	bne	a0,a1,800015e0 <_ZN71_$LT$main..test..InternalTerminalStruct$u20$as$u20$core..fmt..Write$GT$9write_str17h658f28fd76b003f8E+0x44>
    800015d2:	a009                	j	800015d4 <_ZN71_$LT$main..test..InternalTerminalStruct$u20$as$u20$core..fmt..Write$GT$9write_str17h658f28fd76b003f8E+0x38>
    800015d4:	4501                	li	a0,0
    800015d6:	00a107a3          	sb	a0,15(sp)
    800015da:	70a2                	ld	ra,40(sp)
    800015dc:	6145                	addi	sp,sp,48
    800015de:	8082                	ret
    800015e0:	02410503          	lb	a0,36(sp)
    800015e4:	100005b7          	lui	a1,0x10000
    800015e8:	00a58023          	sb	a0,0(a1) # 10000000 <_ZN106_$LT$core..ops..range..Range$LT$usize$GT$$u20$as$u20$core..slice..index..SliceIndex$LT$$u5b$T$u5d$$GT$$GT$17get_unchecked_mut17h97f5b57f479b560dE-0x70000000>
    800015ec:	b7f9                	j	800015ba <_ZN71_$LT$main..test..InternalTerminalStruct$u20$as$u20$core..fmt..Write$GT$9write_str17h658f28fd76b003f8E+0x1e>

00000000800015ee <_ZN72_$LT$main..panic..InternalTerminalStruct$u20$as$u20$core..fmt..Write$GT$9write_str17h3a2375028035007aE>:
    800015ee:	7179                	addi	sp,sp,-48
    800015f0:	f406                	sd	ra,40(sp)
    800015f2:	852e                	mv	a0,a1
    800015f4:	85b2                	mv	a1,a2
    800015f6:	fffff097          	auipc	ra,0xfffff
    800015fa:	316080e7          	jalr	790(ra) # 8000090c <_ZN4core3str21_$LT$impl$u20$str$GT$5chars17hb013d1d579903d21E>
    800015fe:	00000097          	auipc	ra,0x0
    80001602:	976080e7          	jalr	-1674(ra) # 80000f74 <_ZN63_$LT$I$u20$as$u20$core..iter..traits..collect..IntoIterator$GT$9into_iter17h117a1887a51e185aE>
    80001606:	e82a                	sd	a0,16(sp)
    80001608:	ec2e                	sd	a1,24(sp)
    8000160a:	a009                	j	8000160c <_ZN72_$LT$main..panic..InternalTerminalStruct$u20$as$u20$core..fmt..Write$GT$9write_str17h3a2375028035007aE+0x1e>
    8000160c:	0808                	addi	a0,sp,16
    8000160e:	00000097          	auipc	ra,0x0
    80001612:	986080e7          	jalr	-1658(ra) # 80000f94 <_ZN81_$LT$core..str..iter..Chars$u20$as$u20$core..iter..traits..iterator..Iterator$GT$4next17h3c3c9bf87d2f1576E>
    80001616:	1502                	slli	a0,a0,0x20
    80001618:	9101                	srli	a0,a0,0x20
    8000161a:	d22a                	sw	a0,36(sp)
    8000161c:	001105b7          	lui	a1,0x110
    80001620:	00b51963          	bne	a0,a1,80001632 <_ZN72_$LT$main..panic..InternalTerminalStruct$u20$as$u20$core..fmt..Write$GT$9write_str17h3a2375028035007aE+0x44>
    80001624:	a009                	j	80001626 <_ZN72_$LT$main..panic..InternalTerminalStruct$u20$as$u20$core..fmt..Write$GT$9write_str17h3a2375028035007aE+0x38>
    80001626:	4501                	li	a0,0
    80001628:	00a107a3          	sb	a0,15(sp)
    8000162c:	70a2                	ld	ra,40(sp)
    8000162e:	6145                	addi	sp,sp,48
    80001630:	8082                	ret
    80001632:	02410503          	lb	a0,36(sp)
    80001636:	100005b7          	lui	a1,0x10000
    8000163a:	00a58023          	sb	a0,0(a1) # 10000000 <_ZN106_$LT$core..ops..range..Range$LT$usize$GT$$u20$as$u20$core..slice..index..SliceIndex$LT$$u5b$T$u5d$$GT$$GT$17get_unchecked_mut17h97f5b57f479b560dE-0x70000000>
    8000163e:	b7f9                	j	8000160c <_ZN72_$LT$main..panic..InternalTerminalStruct$u20$as$u20$core..fmt..Write$GT$9write_str17h3a2375028035007aE+0x1e>

0000000080001640 <_ZN72_$LT$main..panic..InternalTerminalStruct$u20$as$u20$core..fmt..Write$GT$9write_str17hceef8a2550918339E>:
    80001640:	7179                	addi	sp,sp,-48
    80001642:	f406                	sd	ra,40(sp)
    80001644:	852e                	mv	a0,a1
    80001646:	85b2                	mv	a1,a2
    80001648:	fffff097          	auipc	ra,0xfffff
    8000164c:	2c4080e7          	jalr	708(ra) # 8000090c <_ZN4core3str21_$LT$impl$u20$str$GT$5chars17hb013d1d579903d21E>
    80001650:	00000097          	auipc	ra,0x0
    80001654:	924080e7          	jalr	-1756(ra) # 80000f74 <_ZN63_$LT$I$u20$as$u20$core..iter..traits..collect..IntoIterator$GT$9into_iter17h117a1887a51e185aE>
    80001658:	e82a                	sd	a0,16(sp)
    8000165a:	ec2e                	sd	a1,24(sp)
    8000165c:	a009                	j	8000165e <_ZN72_$LT$main..panic..InternalTerminalStruct$u20$as$u20$core..fmt..Write$GT$9write_str17hceef8a2550918339E+0x1e>
    8000165e:	0808                	addi	a0,sp,16
    80001660:	00000097          	auipc	ra,0x0
    80001664:	934080e7          	jalr	-1740(ra) # 80000f94 <_ZN81_$LT$core..str..iter..Chars$u20$as$u20$core..iter..traits..iterator..Iterator$GT$4next17h3c3c9bf87d2f1576E>
    80001668:	1502                	slli	a0,a0,0x20
    8000166a:	9101                	srli	a0,a0,0x20
    8000166c:	d22a                	sw	a0,36(sp)
    8000166e:	001105b7          	lui	a1,0x110
    80001672:	00b51963          	bne	a0,a1,80001684 <_ZN72_$LT$main..panic..InternalTerminalStruct$u20$as$u20$core..fmt..Write$GT$9write_str17hceef8a2550918339E+0x44>
    80001676:	a009                	j	80001678 <_ZN72_$LT$main..panic..InternalTerminalStruct$u20$as$u20$core..fmt..Write$GT$9write_str17hceef8a2550918339E+0x38>
    80001678:	4501                	li	a0,0
    8000167a:	00a107a3          	sb	a0,15(sp)
    8000167e:	70a2                	ld	ra,40(sp)
    80001680:	6145                	addi	sp,sp,48
    80001682:	8082                	ret
    80001684:	02410503          	lb	a0,36(sp)
    80001688:	100005b7          	lui	a1,0x10000
    8000168c:	00a58023          	sb	a0,0(a1) # 10000000 <_ZN106_$LT$core..ops..range..Range$LT$usize$GT$$u20$as$u20$core..slice..index..SliceIndex$LT$$u5b$T$u5d$$GT$$GT$17get_unchecked_mut17h97f5b57f479b560dE-0x70000000>
    80001690:	b7f9                	j	8000165e <_ZN72_$LT$main..panic..InternalTerminalStruct$u20$as$u20$core..fmt..Write$GT$9write_str17hceef8a2550918339E+0x1e>

0000000080001692 <_ZN72_$LT$main..panic..InternalTerminalStruct$u20$as$u20$core..fmt..Write$GT$9write_str17h0fb862db8b87992cE>:
    80001692:	7179                	addi	sp,sp,-48
    80001694:	f406                	sd	ra,40(sp)
    80001696:	852e                	mv	a0,a1
    80001698:	85b2                	mv	a1,a2
    8000169a:	fffff097          	auipc	ra,0xfffff
    8000169e:	272080e7          	jalr	626(ra) # 8000090c <_ZN4core3str21_$LT$impl$u20$str$GT$5chars17hb013d1d579903d21E>
    800016a2:	00000097          	auipc	ra,0x0
    800016a6:	8d2080e7          	jalr	-1838(ra) # 80000f74 <_ZN63_$LT$I$u20$as$u20$core..iter..traits..collect..IntoIterator$GT$9into_iter17h117a1887a51e185aE>
    800016aa:	e82a                	sd	a0,16(sp)
    800016ac:	ec2e                	sd	a1,24(sp)
    800016ae:	a009                	j	800016b0 <_ZN72_$LT$main..panic..InternalTerminalStruct$u20$as$u20$core..fmt..Write$GT$9write_str17h0fb862db8b87992cE+0x1e>
    800016b0:	0808                	addi	a0,sp,16
    800016b2:	00000097          	auipc	ra,0x0
    800016b6:	8e2080e7          	jalr	-1822(ra) # 80000f94 <_ZN81_$LT$core..str..iter..Chars$u20$as$u20$core..iter..traits..iterator..Iterator$GT$4next17h3c3c9bf87d2f1576E>
    800016ba:	1502                	slli	a0,a0,0x20
    800016bc:	9101                	srli	a0,a0,0x20
    800016be:	d22a                	sw	a0,36(sp)
    800016c0:	001105b7          	lui	a1,0x110
    800016c4:	00b51963          	bne	a0,a1,800016d6 <_ZN72_$LT$main..panic..InternalTerminalStruct$u20$as$u20$core..fmt..Write$GT$9write_str17h0fb862db8b87992cE+0x44>
    800016c8:	a009                	j	800016ca <_ZN72_$LT$main..panic..InternalTerminalStruct$u20$as$u20$core..fmt..Write$GT$9write_str17h0fb862db8b87992cE+0x38>
    800016ca:	4501                	li	a0,0
    800016cc:	00a107a3          	sb	a0,15(sp)
    800016d0:	70a2                	ld	ra,40(sp)
    800016d2:	6145                	addi	sp,sp,48
    800016d4:	8082                	ret
    800016d6:	02410503          	lb	a0,36(sp)
    800016da:	100005b7          	lui	a1,0x10000
    800016de:	00a58023          	sb	a0,0(a1) # 10000000 <_ZN106_$LT$core..ops..range..Range$LT$usize$GT$$u20$as$u20$core..slice..index..SliceIndex$LT$$u5b$T$u5d$$GT$$GT$17get_unchecked_mut17h97f5b57f479b560dE-0x70000000>
    800016e2:	b7f9                	j	800016b0 <_ZN72_$LT$main..panic..InternalTerminalStruct$u20$as$u20$core..fmt..Write$GT$9write_str17h0fb862db8b87992cE+0x1e>

00000000800016e4 <_ZN72_$LT$main..panic..InternalTerminalStruct$u20$as$u20$core..fmt..Write$GT$9write_str17h317868fcad7f8653E>:
    800016e4:	7179                	addi	sp,sp,-48
    800016e6:	f406                	sd	ra,40(sp)
    800016e8:	852e                	mv	a0,a1
    800016ea:	85b2                	mv	a1,a2
    800016ec:	fffff097          	auipc	ra,0xfffff
    800016f0:	220080e7          	jalr	544(ra) # 8000090c <_ZN4core3str21_$LT$impl$u20$str$GT$5chars17hb013d1d579903d21E>
    800016f4:	00000097          	auipc	ra,0x0
    800016f8:	880080e7          	jalr	-1920(ra) # 80000f74 <_ZN63_$LT$I$u20$as$u20$core..iter..traits..collect..IntoIterator$GT$9into_iter17h117a1887a51e185aE>
    800016fc:	e82a                	sd	a0,16(sp)
    800016fe:	ec2e                	sd	a1,24(sp)
    80001700:	a009                	j	80001702 <_ZN72_$LT$main..panic..InternalTerminalStruct$u20$as$u20$core..fmt..Write$GT$9write_str17h317868fcad7f8653E+0x1e>
    80001702:	0808                	addi	a0,sp,16
    80001704:	00000097          	auipc	ra,0x0
    80001708:	890080e7          	jalr	-1904(ra) # 80000f94 <_ZN81_$LT$core..str..iter..Chars$u20$as$u20$core..iter..traits..iterator..Iterator$GT$4next17h3c3c9bf87d2f1576E>
    8000170c:	1502                	slli	a0,a0,0x20
    8000170e:	9101                	srli	a0,a0,0x20
    80001710:	d22a                	sw	a0,36(sp)
    80001712:	001105b7          	lui	a1,0x110
    80001716:	00b51963          	bne	a0,a1,80001728 <_ZN72_$LT$main..panic..InternalTerminalStruct$u20$as$u20$core..fmt..Write$GT$9write_str17h317868fcad7f8653E+0x44>
    8000171a:	a009                	j	8000171c <_ZN72_$LT$main..panic..InternalTerminalStruct$u20$as$u20$core..fmt..Write$GT$9write_str17h317868fcad7f8653E+0x38>
    8000171c:	4501                	li	a0,0
    8000171e:	00a107a3          	sb	a0,15(sp)
    80001722:	70a2                	ld	ra,40(sp)
    80001724:	6145                	addi	sp,sp,48
    80001726:	8082                	ret
    80001728:	02410503          	lb	a0,36(sp)
    8000172c:	100005b7          	lui	a1,0x10000
    80001730:	00a58023          	sb	a0,0(a1) # 10000000 <_ZN106_$LT$core..ops..range..Range$LT$usize$GT$$u20$as$u20$core..slice..index..SliceIndex$LT$$u5b$T$u5d$$GT$$GT$17get_unchecked_mut17h97f5b57f479b560dE-0x70000000>
    80001734:	b7f9                	j	80001702 <_ZN72_$LT$main..panic..InternalTerminalStruct$u20$as$u20$core..fmt..Write$GT$9write_str17h317868fcad7f8653E+0x1e>

0000000080001736 <_ZN4core3ops8function6FnOnce9call_once17h35ae281d4cc49c3aE>:
    80001736:	6108                	ld	a0,0(a0)
    80001738:	a009                	j	8000173a <_ZN4core3ops8function6FnOnce9call_once17h35ae281d4cc49c3aE+0x4>
    8000173a:	a001                	j	8000173a <_ZN4core3ops8function6FnOnce9call_once17h35ae281d4cc49c3aE+0x4>

000000008000173c <_ZN4core9panicking5panic17h070221acf2d57f95E>:
    8000173c:	715d                	addi	sp,sp,-80
    8000173e:	e486                	sd	ra,72(sp)
    80001740:	fc2a                	sd	a0,56(sp)
    80001742:	e0ae                	sd	a1,64(sp)
    80001744:	1828                	addi	a0,sp,56
    80001746:	e42a                	sd	a0,8(sp)
    80001748:	4505                	li	a0,1
    8000174a:	e82a                	sd	a0,16(sp)
    8000174c:	4501                	li	a0,0
    8000174e:	ec2a                	sd	a0,24(sp)
    80001750:	00002597          	auipc	a1,0x2
    80001754:	d0858593          	addi	a1,a1,-760 # 80003458 <str.1+0xa8>
    80001758:	f42e                	sd	a1,40(sp)
    8000175a:	f82a                	sd	a0,48(sp)
    8000175c:	0028                	addi	a0,sp,8
    8000175e:	85b2                	mv	a1,a2
    80001760:	00000097          	auipc	ra,0x0
    80001764:	23a080e7          	jalr	570(ra) # 8000199a <_ZN4core9panicking9panic_fmt17h58fb395352900abeE>
	...

000000008000176a <_ZN4core9panicking18panic_bounds_check17h5dcda81e3137698fE>:
    8000176a:	7159                	addi	sp,sp,-112
    8000176c:	f486                	sd	ra,104(sp)
    8000176e:	e42a                	sd	a0,8(sp)
    80001770:	e82e                	sd	a1,16(sp)
    80001772:	0808                	addi	a0,sp,16
    80001774:	e4aa                	sd	a0,72(sp)
    80001776:	00000517          	auipc	a0,0x0
    8000177a:	03650513          	addi	a0,a0,54 # 800017ac <_ZN4core3fmt3num3imp52_$LT$impl$u20$core..fmt..Display$u20$for$u20$u64$GT$3fmt17h22caa4a622631133E>
    8000177e:	e8aa                	sd	a0,80(sp)
    80001780:	002c                	addi	a1,sp,8
    80001782:	ecae                	sd	a1,88(sp)
    80001784:	f0aa                	sd	a0,96(sp)
    80001786:	00002517          	auipc	a0,0x2
    8000178a:	cb250513          	addi	a0,a0,-846 # 80003438 <str.1+0x88>
    8000178e:	ec2a                	sd	a0,24(sp)
    80001790:	4509                	li	a0,2
    80001792:	f02a                	sd	a0,32(sp)
    80001794:	4581                	li	a1,0
    80001796:	f42e                	sd	a1,40(sp)
    80001798:	00ac                	addi	a1,sp,72
    8000179a:	fc2e                	sd	a1,56(sp)
    8000179c:	e0aa                	sd	a0,64(sp)
    8000179e:	0828                	addi	a0,sp,24
    800017a0:	85b2                	mv	a1,a2
    800017a2:	00000097          	auipc	ra,0x0
    800017a6:	1f8080e7          	jalr	504(ra) # 8000199a <_ZN4core9panicking9panic_fmt17h58fb395352900abeE>
	...

00000000800017ac <_ZN4core3fmt3num3imp52_$LT$impl$u20$core..fmt..Display$u20$for$u20$u64$GT$3fmt17h22caa4a622631133E>:
    800017ac:	7175                	addi	sp,sp,-144
    800017ae:	e506                	sd	ra,136(sp)
    800017b0:	6108                	ld	a0,0(a0)
    800017b2:	06110613          	addi	a2,sp,97
    800017b6:	00455693          	srli	a3,a0,0x4
    800017ba:	02700713          	li	a4,39
    800017be:	27000793          	li	a5,624
    800017c2:	ecae                	sd	a1,88(sp)
    800017c4:	e8ba                	sd	a4,80(sp)
    800017c6:	e4aa                	sd	a0,72(sp)
    800017c8:	02d7e063          	bltu	a5,a3,800017e8 <_ZN4core3fmt3num3imp52_$LT$impl$u20$core..fmt..Display$u20$for$u20$u64$GT$3fmt17h22caa4a622631133E+0x3c>
    800017cc:	a009                	j	800017ce <_ZN4core3fmt3num3imp52_$LT$impl$u20$core..fmt..Display$u20$for$u20$u64$GT$3fmt17h22caa4a622631133E+0x22>
    800017ce:	6526                	ld	a0,72(sp)
    800017d0:	65c6                	ld	a1,80(sp)
    800017d2:	06300613          	li	a2,99
    800017d6:	86aa                	mv	a3,a0
    800017d8:	872e                	mv	a4,a1
    800017da:	e0aa                	sd	a0,64(sp)
    800017dc:	fc2e                	sd	a1,56(sp)
    800017de:	f836                	sd	a3,48(sp)
    800017e0:	f43a                	sd	a4,40(sp)
    800017e2:	0ca64163          	blt	a2,a0,800018a4 <_ZN4core3fmt3num3imp52_$LT$impl$u20$core..fmt..Display$u20$for$u20$u64$GT$3fmt17h22caa4a622631133E+0xf8>
    800017e6:	a21d                	j	8000190c <_ZN4core3fmt3num3imp52_$LT$impl$u20$core..fmt..Display$u20$for$u20$u64$GT$3fmt17h22caa4a622631133E+0x160>
    800017e8:	6546                	ld	a0,80(sp)
    800017ea:	65a6                	ld	a1,72(sp)
    800017ec:	862e                	mv	a2,a1
    800017ee:	001a36b7          	lui	a3,0x1a3
    800017f2:	6e36869b          	addiw	a3,a3,1763
    800017f6:	06ba                	slli	a3,a3,0xe
    800017f8:	ac768693          	addi	a3,a3,-1337 # 1a2ac7 <_ZN106_$LT$core..ops..range..Range$LT$usize$GT$$u20$as$u20$core..slice..index..SliceIndex$LT$$u5b$T$u5d$$GT$$GT$17get_unchecked_mut17h97f5b57f479b560dE-0x7fe5d539>
    800017fc:	06ba                	slli	a3,a3,0xe
    800017fe:	43368693          	addi	a3,a3,1075
    80001802:	06b6                	slli	a3,a3,0xd
    80001804:	94b68693          	addi	a3,a3,-1717
    80001808:	02d636b3          	mulhu	a3,a2,a3
    8000180c:	82ad                	srli	a3,a3,0xb
    8000180e:	6709                	lui	a4,0x2
    80001810:	7107071b          	addiw	a4,a4,1808
    80001814:	02e68733          	mul	a4,a3,a4
    80001818:	8e19                	sub	a2,a2,a4
    8000181a:	6741                	lui	a4,0x10
    8000181c:	ffc7079b          	addiw	a5,a4,-4
    80001820:	8ff1                	and	a5,a5,a2
    80001822:	8389                	srli	a5,a5,0x2
    80001824:	0051f837          	lui	a6,0x51f
    80001828:	b858081b          	addiw	a6,a6,-1147
    8000182c:	0836                	slli	a6,a6,0xd
    8000182e:	3d780813          	addi	a6,a6,983 # 51f3d7 <_ZN106_$LT$core..ops..range..Range$LT$usize$GT$$u20$as$u20$core..slice..index..SliceIndex$LT$$u5b$T$u5d$$GT$$GT$17get_unchecked_mut17h97f5b57f479b560dE-0x7fae0c29>
    80001832:	083a                	slli	a6,a6,0xe
    80001834:	28f80813          	addi	a6,a6,655
    80001838:	0832                	slli	a6,a6,0xc
    8000183a:	5c380813          	addi	a6,a6,1475
    8000183e:	0307b7b3          	mulhu	a5,a5,a6
    80001842:	8389                	srli	a5,a5,0x2
    80001844:	00179813          	slli	a6,a5,0x1
    80001848:	06400893          	li	a7,100
    8000184c:	031787b3          	mul	a5,a5,a7
    80001850:	8e1d                	sub	a2,a2,a5
    80001852:	0606                	slli	a2,a2,0x1
    80001854:	3779                	addiw	a4,a4,-2
    80001856:	8e79                	and	a2,a2,a4
    80001858:	ffc50713          	addi	a4,a0,-4
    8000185c:	00002797          	auipc	a5,0x2
    80001860:	c4e78793          	addi	a5,a5,-946 # 800034aa <str.1+0xfa>
    80001864:	983e                	add	a6,a6,a5
    80001866:	06110893          	addi	a7,sp,97
    8000186a:	00e882b3          	add	t0,a7,a4
    8000186e:	00084303          	lbu	t1,0(a6)
    80001872:	00180803          	lb	a6,1(a6)
    80001876:	010280a3          	sb	a6,1(t0)
    8000187a:	00628023          	sb	t1,0(t0)
    8000187e:	963e                	add	a2,a2,a5
    80001880:	9546                	add	a0,a0,a7
    80001882:	00064783          	lbu	a5,0(a2)
    80001886:	00160603          	lb	a2,1(a2)
    8000188a:	fec50fa3          	sb	a2,-1(a0)
    8000188e:	fef50f23          	sb	a5,-2(a0)
    80001892:	05f5e537          	lui	a0,0x5f5e
    80001896:	0ff5051b          	addiw	a0,a0,255
    8000189a:	e8ba                	sd	a4,80(sp)
    8000189c:	e4b6                	sd	a3,72(sp)
    8000189e:	f4b565e3          	bltu	a0,a1,800017e8 <_ZN4core3fmt3num3imp52_$LT$impl$u20$core..fmt..Display$u20$for$u20$u64$GT$3fmt17h22caa4a622631133E+0x3c>
    800018a2:	b735                	j	800017ce <_ZN4core3fmt3num3imp52_$LT$impl$u20$core..fmt..Display$u20$for$u20$u64$GT$3fmt17h22caa4a622631133E+0x22>
    800018a4:	6506                	ld	a0,64(sp)
    800018a6:	65c1                	lui	a1,0x10
    800018a8:	ffc5861b          	addiw	a2,a1,-4
    800018ac:	8e69                	and	a2,a2,a0
    800018ae:	8209                	srli	a2,a2,0x2
    800018b0:	0051f6b7          	lui	a3,0x51f
    800018b4:	b856869b          	addiw	a3,a3,-1147
    800018b8:	06b6                	slli	a3,a3,0xd
    800018ba:	3d768693          	addi	a3,a3,983 # 51f3d7 <_ZN106_$LT$core..ops..range..Range$LT$usize$GT$$u20$as$u20$core..slice..index..SliceIndex$LT$$u5b$T$u5d$$GT$$GT$17get_unchecked_mut17h97f5b57f479b560dE-0x7fae0c29>
    800018be:	06ba                	slli	a3,a3,0xe
    800018c0:	28f68693          	addi	a3,a3,655
    800018c4:	06b2                	slli	a3,a3,0xc
    800018c6:	5c368693          	addi	a3,a3,1475
    800018ca:	02d63633          	mulhu	a2,a2,a3
    800018ce:	8209                	srli	a2,a2,0x2
    800018d0:	06400693          	li	a3,100
    800018d4:	02d606b3          	mul	a3,a2,a3
    800018d8:	8d15                	sub	a0,a0,a3
    800018da:	0506                	slli	a0,a0,0x1
    800018dc:	35f9                	addiw	a1,a1,-2
    800018de:	8d6d                	and	a0,a0,a1
    800018e0:	75e2                	ld	a1,56(sp)
    800018e2:	ffe58693          	addi	a3,a1,-2 # fffe <_ZN106_$LT$core..ops..range..Range$LT$usize$GT$$u20$as$u20$core..slice..index..SliceIndex$LT$$u5b$T$u5d$$GT$$GT$17get_unchecked_mut17h97f5b57f479b560dE-0x7fff0002>
    800018e6:	00002717          	auipc	a4,0x2
    800018ea:	bc470713          	addi	a4,a4,-1084 # 800034aa <str.1+0xfa>
    800018ee:	953a                	add	a0,a0,a4
    800018f0:	06110713          	addi	a4,sp,97
    800018f4:	9736                	add	a4,a4,a3
    800018f6:	00054783          	lbu	a5,0(a0) # 5f5e000 <_ZN106_$LT$core..ops..range..Range$LT$usize$GT$$u20$as$u20$core..slice..index..SliceIndex$LT$$u5b$T$u5d$$GT$$GT$17get_unchecked_mut17h97f5b57f479b560dE-0x7a0a2000>
    800018fa:	00150503          	lb	a0,1(a0)
    800018fe:	00a700a3          	sb	a0,1(a4)
    80001902:	00f70023          	sb	a5,0(a4)
    80001906:	f832                	sd	a2,48(sp)
    80001908:	f436                	sd	a3,40(sp)
    8000190a:	a009                	j	8000190c <_ZN4core3fmt3num3imp52_$LT$impl$u20$core..fmt..Display$u20$for$u20$u64$GT$3fmt17h22caa4a622631133E+0x160>
    8000190c:	7522                	ld	a0,40(sp)
    8000190e:	75c2                	ld	a1,48(sp)
    80001910:	4629                	li	a2,10
    80001912:	f02a                	sd	a0,32(sp)
    80001914:	ec2e                	sd	a1,24(sp)
    80001916:	02c5cb63          	blt	a1,a2,8000194c <_ZN4core3fmt3num3imp52_$LT$impl$u20$core..fmt..Display$u20$for$u20$u64$GT$3fmt17h22caa4a622631133E+0x1a0>
    8000191a:	a009                	j	8000191c <_ZN4core3fmt3num3imp52_$LT$impl$u20$core..fmt..Display$u20$for$u20$u64$GT$3fmt17h22caa4a622631133E+0x170>
    8000191c:	6562                	ld	a0,24(sp)
    8000191e:	00151593          	slli	a1,a0,0x1
    80001922:	7602                	ld	a2,32(sp)
    80001924:	ffe60693          	addi	a3,a2,-2
    80001928:	00002717          	auipc	a4,0x2
    8000192c:	b8270713          	addi	a4,a4,-1150 # 800034aa <str.1+0xfa>
    80001930:	95ba                	add	a1,a1,a4
    80001932:	06110713          	addi	a4,sp,97
    80001936:	9736                	add	a4,a4,a3
    80001938:	0005c783          	lbu	a5,0(a1)
    8000193c:	00158583          	lb	a1,1(a1)
    80001940:	00b700a3          	sb	a1,1(a4)
    80001944:	00f70023          	sb	a5,0(a4)
    80001948:	e836                	sd	a3,16(sp)
    8000194a:	a831                	j	80001966 <_ZN4core3fmt3num3imp52_$LT$impl$u20$core..fmt..Display$u20$for$u20$u64$GT$3fmt17h22caa4a622631133E+0x1ba>
    8000194c:	7502                	ld	a0,32(sp)
    8000194e:	fff50593          	addi	a1,a0,-1
    80001952:	06110613          	addi	a2,sp,97
    80001956:	962e                	add	a2,a2,a1
    80001958:	66e2                	ld	a3,24(sp)
    8000195a:	03068713          	addi	a4,a3,48
    8000195e:	00e60023          	sb	a4,0(a2)
    80001962:	e82e                	sd	a1,16(sp)
    80001964:	a009                	j	80001966 <_ZN4core3fmt3num3imp52_$LT$impl$u20$core..fmt..Display$u20$for$u20$u64$GT$3fmt17h22caa4a622631133E+0x1ba>
    80001966:	6542                	ld	a0,16(sp)
    80001968:	06110593          	addi	a1,sp,97
    8000196c:	00a58733          	add	a4,a1,a0
    80001970:	02700593          	li	a1,39
    80001974:	40a587b3          	sub	a5,a1,a0
    80001978:	00002617          	auipc	a2,0x2
    8000197c:	ae060613          	addi	a2,a2,-1312 # 80003458 <str.1+0xa8>
    80001980:	4585                	li	a1,1
    80001982:	4501                	li	a0,0
    80001984:	66e6                	ld	a3,88(sp)
    80001986:	e42a                	sd	a0,8(sp)
    80001988:	8536                	mv	a0,a3
    8000198a:	66a2                	ld	a3,8(sp)
    8000198c:	00000097          	auipc	ra,0x0
    80001990:	054080e7          	jalr	84(ra) # 800019e0 <_ZN4core3fmt9Formatter12pad_integral17h7fb7350c4a3a4a93E>
    80001994:	60aa                	ld	ra,136(sp)
    80001996:	6149                	addi	sp,sp,144
    80001998:	8082                	ret

000000008000199a <_ZN4core9panicking9panic_fmt17h58fb395352900abeE>:
    8000199a:	7179                	addi	sp,sp,-48
    8000199c:	f406                	sd	ra,40(sp)
    8000199e:	00002617          	auipc	a2,0x2
    800019a2:	aba60613          	addi	a2,a2,-1350 # 80003458 <str.1+0xa8>
    800019a6:	e432                	sd	a2,8(sp)
    800019a8:	00002617          	auipc	a2,0x2
    800019ac:	ab060613          	addi	a2,a2,-1360 # 80003458 <str.1+0xa8>
    800019b0:	e832                	sd	a2,16(sp)
    800019b2:	ec2a                	sd	a0,24(sp)
    800019b4:	f02e                	sd	a1,32(sp)
    800019b6:	0028                	addi	a0,sp,8
    800019b8:	fffff097          	auipc	ra,0xfffff
    800019bc:	7a2080e7          	jalr	1954(ra) # 8000115a <rust_begin_unwind>
	...

00000000800019c2 <_ZN4core3ptr13drop_in_place17h01d0f06accd39497E>:
    800019c2:	8082                	ret

00000000800019c4 <_ZN36_$LT$T$u20$as$u20$core..any..Any$GT$7type_id17h1c4d74729bef22edE>:
    800019c4:	ffc5e537          	lui	a0,0xffc5e
    800019c8:	15d5051b          	addiw	a0,a0,349
    800019cc:	053e                	slli	a0,a0,0xf
    800019ce:	bbd50513          	addi	a0,a0,-1091 # ffffffffffc5dbbd <stack_end+0xffffffff7fc4a4ea>
    800019d2:	0532                	slli	a0,a0,0xc
    800019d4:	58750513          	addi	a0,a0,1415
    800019d8:	053a                	slli	a0,a0,0xe
    800019da:	e3950513          	addi	a0,a0,-455
    800019de:	8082                	ret

00000000800019e0 <_ZN4core3fmt9Formatter12pad_integral17h7fb7350c4a3a4a93E>:
    800019e0:	d9010113          	addi	sp,sp,-624
    800019e4:	26113423          	sd	ra,616(sp)
    800019e8:	882e                	mv	a6,a1
    800019ea:	4881                	li	a7,0
    800019ec:	26f13023          	sd	a5,608(sp)
    800019f0:	24e13c23          	sd	a4,600(sp)
    800019f4:	24d13823          	sd	a3,592(sp)
    800019f8:	24c13423          	sd	a2,584(sp)
    800019fc:	24a13023          	sd	a0,576(sp)
    80001a00:	05158d63          	beq	a1,a7,80001a5a <_ZN4core3fmt9Formatter12pad_integral17h7fb7350c4a3a4a93E+0x7a>
    80001a04:	a009                	j	80001a06 <_ZN4core3fmt9Formatter12pad_integral17h7fb7350c4a3a4a93E+0x26>
    80001a06:	24013503          	ld	a0,576(sp)
    80001a0a:	03056583          	lwu	a1,48(a0)
    80001a0e:	0015f613          	andi	a2,a1,1
    80001a12:	02b00693          	li	a3,43
    80001a16:	00110737          	lui	a4,0x110
    80001a1a:	4781                	li	a5,0
    80001a1c:	22b13c23          	sd	a1,568(sp)
    80001a20:	22c13823          	sd	a2,560(sp)
    80001a24:	22d13423          	sd	a3,552(sp)
    80001a28:	22e13023          	sd	a4,544(sp)
    80001a2c:	00f60663          	beq	a2,a5,80001a38 <_ZN4core3fmt9Formatter12pad_integral17h7fb7350c4a3a4a93E+0x58>
    80001a30:	22813503          	ld	a0,552(sp)
    80001a34:	22a13023          	sd	a0,544(sp)
    80001a38:	22013503          	ld	a0,544(sp)
    80001a3c:	23013583          	ld	a1,560(sp)
    80001a40:	26013603          	ld	a2,608(sp)
    80001a44:	00c586b3          	add	a3,a1,a2
    80001a48:	23813703          	ld	a4,568(sp)
    80001a4c:	20e13c23          	sd	a4,536(sp)
    80001a50:	20a13823          	sd	a0,528(sp)
    80001a54:	20d13423          	sd	a3,520(sp)
    80001a58:	a015                	j	80001a7c <_ZN4core3fmt9Formatter12pad_integral17h7fb7350c4a3a4a93E+0x9c>
    80001a5a:	26013503          	ld	a0,608(sp)
    80001a5e:	00150593          	addi	a1,a0,1
    80001a62:	24013603          	ld	a2,576(sp)
    80001a66:	03066683          	lwu	a3,48(a2)
    80001a6a:	02d00713          	li	a4,45
    80001a6e:	20d13c23          	sd	a3,536(sp)
    80001a72:	20e13823          	sd	a4,528(sp)
    80001a76:	20b13423          	sd	a1,520(sp)
    80001a7a:	a009                	j	80001a7c <_ZN4core3fmt9Formatter12pad_integral17h7fb7350c4a3a4a93E+0x9c>
    80001a7c:	20813503          	ld	a0,520(sp)
    80001a80:	21013583          	ld	a1,528(sp)
    80001a84:	21813603          	ld	a2,536(sp)
    80001a88:	00467693          	andi	a3,a2,4
    80001a8c:	4701                	li	a4,0
    80001a8e:	87ba                	mv	a5,a4
    80001a90:	882a                	mv	a6,a0
    80001a92:	20a13023          	sd	a0,512(sp)
    80001a96:	ffae                	sd	a1,504(sp)
    80001a98:	fbb2                	sd	a2,496(sp)
    80001a9a:	f7be                	sd	a5,488(sp)
    80001a9c:	f3c2                	sd	a6,480(sp)
    80001a9e:	06e68663          	beq	a3,a4,80001b0a <_ZN4core3fmt9Formatter12pad_integral17h7fb7350c4a3a4a93E+0x12a>
    80001aa2:	a009                	j	80001aa4 <_ZN4core3fmt9Formatter12pad_integral17h7fb7350c4a3a4a93E+0xc4>
    80001aa4:	24813503          	ld	a0,584(sp)
    80001aa8:	24813583          	ld	a1,584(sp)
    80001aac:	25013603          	ld	a2,592(sp)
    80001ab0:	00c586b3          	add	a3,a1,a2
    80001ab4:	4701                	li	a4,0
    80001ab6:	87ba                	mv	a5,a4
    80001ab8:	882a                	mv	a6,a0
    80001aba:	efaa                	sd	a0,472(sp)
    80001abc:	ebb6                	sd	a3,464(sp)
    80001abe:	e7be                	sd	a5,456(sp)
    80001ac0:	e3c2                	sd	a6,448(sp)
    80001ac2:	02e60763          	beq	a2,a4,80001af0 <_ZN4core3fmt9Formatter12pad_integral17h7fb7350c4a3a4a93E+0x110>
    80001ac6:	a009                	j	80001ac8 <_ZN4core3fmt9Formatter12pad_integral17h7fb7350c4a3a4a93E+0xe8>
    80001ac8:	651e                	ld	a0,448(sp)
    80001aca:	65be                	ld	a1,456(sp)
    80001acc:	00150613          	addi	a2,a0,1
    80001ad0:	00054503          	lbu	a0,0(a0)
    80001ad4:	0c057513          	andi	a0,a0,192
    80001ad8:	f8050513          	addi	a0,a0,-128
    80001adc:	00153513          	seqz	a0,a0
    80001ae0:	952e                	add	a0,a0,a1
    80001ae2:	85b2                	mv	a1,a2
    80001ae4:	66de                	ld	a3,464(sp)
    80001ae6:	e3ae                	sd	a1,448(sp)
    80001ae8:	e7aa                	sd	a0,456(sp)
    80001aea:	fcd61fe3          	bne	a2,a3,80001ac8 <_ZN4core3fmt9Formatter12pad_integral17h7fb7350c4a3a4a93E+0xe8>
    80001aee:	a009                	j	80001af0 <_ZN4core3fmt9Formatter12pad_integral17h7fb7350c4a3a4a93E+0x110>
    80001af0:	653e                	ld	a0,456(sp)
    80001af2:	20013583          	ld	a1,512(sp)
    80001af6:	25013603          	ld	a2,592(sp)
    80001afa:	00c586b3          	add	a3,a1,a2
    80001afe:	40a68533          	sub	a0,a3,a0
    80001b02:	66fe                	ld	a3,472(sp)
    80001b04:	f7b6                	sd	a3,488(sp)
    80001b06:	f3aa                	sd	a0,480(sp)
    80001b08:	a009                	j	80001b0a <_ZN4core3fmt9Formatter12pad_integral17h7fb7350c4a3a4a93E+0x12a>
    80001b0a:	751e                	ld	a0,480(sp)
    80001b0c:	75be                	ld	a1,488(sp)
    80001b0e:	24013603          	ld	a2,576(sp)
    80001b12:	6214                	ld	a3,0(a2)
    80001b14:	4705                	li	a4,1
    80001b16:	ff2a                	sd	a0,440(sp)
    80001b18:	fb2e                	sd	a1,432(sp)
    80001b1a:	04e68363          	beq	a3,a4,80001b60 <_ZN4core3fmt9Formatter12pad_integral17h7fb7350c4a3a4a93E+0x180>
    80001b1e:	a009                	j	80001b20 <_ZN4core3fmt9Formatter12pad_integral17h7fb7350c4a3a4a93E+0x140>
    80001b20:	24013503          	ld	a0,576(sp)
    80001b24:	75fe                	ld	a1,504(sp)
    80001b26:	765a                	ld	a2,432(sp)
    80001b28:	25013683          	ld	a3,592(sp)
    80001b2c:	00000097          	auipc	ra,0x0
    80001b30:	39e080e7          	jalr	926(ra) # 80001eca <_ZN4core3fmt9Formatter12pad_integral12write_prefix17h505157fe8a7106eeE>
    80001b34:	4585                	li	a1,1
    80001b36:	f72e                	sd	a1,424(sp)
    80001b38:	38051363          	bnez	a0,80001ebe <_ZN4core3fmt9Formatter12pad_integral17h7fb7350c4a3a4a93E+0x4de>
    80001b3c:	a009                	j	80001b3e <_ZN4core3fmt9Formatter12pad_integral17h7fb7350c4a3a4a93E+0x15e>
    80001b3e:	24013503          	ld	a0,576(sp)
    80001b42:	7108                	ld	a0,32(a0)
    80001b44:	24013583          	ld	a1,576(sp)
    80001b48:	7590                	ld	a2,40(a1)
    80001b4a:	6e10                	ld	a2,24(a2)
    80001b4c:	25813583          	ld	a1,600(sp)
    80001b50:	26013683          	ld	a3,608(sp)
    80001b54:	f332                	sd	a2,416(sp)
    80001b56:	8636                	mv	a2,a3
    80001b58:	771a                	ld	a4,416(sp)
    80001b5a:	9702                	jalr	a4
    80001b5c:	f72a                	sd	a0,424(sp)
    80001b5e:	a685                	j	80001ebe <_ZN4core3fmt9Formatter12pad_integral17h7fb7350c4a3a4a93E+0x4de>
    80001b60:	24013503          	ld	a0,576(sp)
    80001b64:	650c                	ld	a1,8(a0)
    80001b66:	767a                	ld	a2,440(sp)
    80001b68:	ef2e                	sd	a1,408(sp)
    80001b6a:	02b66263          	bltu	a2,a1,80001b8e <_ZN4core3fmt9Formatter12pad_integral17h7fb7350c4a3a4a93E+0x1ae>
    80001b6e:	a009                	j	80001b70 <_ZN4core3fmt9Formatter12pad_integral17h7fb7350c4a3a4a93E+0x190>
    80001b70:	24013503          	ld	a0,576(sp)
    80001b74:	75fe                	ld	a1,504(sp)
    80001b76:	765a                	ld	a2,432(sp)
    80001b78:	25013683          	ld	a3,592(sp)
    80001b7c:	00000097          	auipc	ra,0x0
    80001b80:	34e080e7          	jalr	846(ra) # 80001eca <_ZN4core3fmt9Formatter12pad_integral12write_prefix17h505157fe8a7106eeE>
    80001b84:	4585                	li	a1,1
    80001b86:	f72e                	sd	a1,424(sp)
    80001b88:	32051b63          	bnez	a0,80001ebe <_ZN4core3fmt9Formatter12pad_integral17h7fb7350c4a3a4a93E+0x4de>
    80001b8c:	a801                	j	80001b9c <_ZN4core3fmt9Formatter12pad_integral17h7fb7350c4a3a4a93E+0x1bc>
    80001b8e:	755e                	ld	a0,496(sp)
    80001b90:	00857593          	andi	a1,a0,8
    80001b94:	4601                	li	a2,0
    80001b96:	06c58963          	beq	a1,a2,80001c08 <_ZN4core3fmt9Formatter12pad_integral17h7fb7350c4a3a4a93E+0x228>
    80001b9a:	a015                	j	80001bbe <_ZN4core3fmt9Formatter12pad_integral17h7fb7350c4a3a4a93E+0x1de>
    80001b9c:	24013503          	ld	a0,576(sp)
    80001ba0:	7108                	ld	a0,32(a0)
    80001ba2:	24013583          	ld	a1,576(sp)
    80001ba6:	7590                	ld	a2,40(a1)
    80001ba8:	6e10                	ld	a2,24(a2)
    80001baa:	25813583          	ld	a1,600(sp)
    80001bae:	26013683          	ld	a3,608(sp)
    80001bb2:	eb32                	sd	a2,400(sp)
    80001bb4:	8636                	mv	a2,a3
    80001bb6:	675a                	ld	a4,400(sp)
    80001bb8:	9702                	jalr	a4
    80001bba:	f72a                	sd	a0,424(sp)
    80001bbc:	a609                	j	80001ebe <_ZN4core3fmt9Formatter12pad_integral17h7fb7350c4a3a4a93E+0x4de>
    80001bbe:	24013503          	ld	a0,576(sp)
    80001bc2:	03450593          	addi	a1,a0,52
    80001bc6:	03456603          	lwu	a2,52(a0)
    80001bca:	03000693          	li	a3,48
    80001bce:	d954                	sw	a3,52(a0)
    80001bd0:	03850693          	addi	a3,a0,56
    80001bd4:	03854703          	lbu	a4,56(a0)
    80001bd8:	4785                	li	a5,1
    80001bda:	02f50c23          	sb	a5,56(a0)
    80001bde:	787e                	ld	a6,504(sp)
    80001be0:	e72e                	sd	a1,392(sp)
    80001be2:	85c2                	mv	a1,a6
    80001be4:	78da                	ld	a7,432(sp)
    80001be6:	e332                	sd	a2,384(sp)
    80001be8:	8646                	mv	a2,a7
    80001bea:	25013283          	ld	t0,592(sp)
    80001bee:	feb6                	sd	a3,376(sp)
    80001bf0:	8696                	mv	a3,t0
    80001bf2:	faba                	sd	a4,368(sp)
    80001bf4:	f6be                	sd	a5,360(sp)
    80001bf6:	00000097          	auipc	ra,0x0
    80001bfa:	2d4080e7          	jalr	724(ra) # 80001eca <_ZN4core3fmt9Formatter12pad_integral12write_prefix17h505157fe8a7106eeE>
    80001bfe:	75b6                	ld	a1,360(sp)
    80001c00:	f72e                	sd	a1,424(sp)
    80001c02:	2a051e63          	bnez	a0,80001ebe <_ZN4core3fmt9Formatter12pad_integral17h7fb7350c4a3a4a93E+0x4de>
    80001c06:	a8e9                	j	80001ce0 <_ZN4core3fmt9Formatter12pad_integral17h7fb7350c4a3a4a93E+0x300>
    80001c08:	657a                	ld	a0,408(sp)
    80001c0a:	75fa                	ld	a1,440(sp)
    80001c0c:	40b50633          	sub	a2,a0,a1
    80001c10:	24013683          	ld	a3,576(sp)
    80001c14:	0386c703          	lbu	a4,56(a3)
    80001c18:	4785                	li	a5,1
    80001c1a:	480d                	li	a6,3
    80001c1c:	f2b2                	sd	a2,352(sp)
    80001c1e:	eeba                	sd	a4,344(sp)
    80001c20:	eabe                	sd	a5,336(sp)
    80001c22:	01070463          	beq	a4,a6,80001c2a <_ZN4core3fmt9Formatter12pad_integral17h7fb7350c4a3a4a93E+0x24a>
    80001c26:	6576                	ld	a0,344(sp)
    80001c28:	eaaa                	sd	a0,336(sp)
    80001c2a:	6556                	ld	a0,336(sp)
    80001c2c:	00357593          	andi	a1,a0,3
    80001c30:	4601                	li	a2,0
    80001c32:	4689                	li	a3,2
    80001c34:	e6aa                	sd	a0,328(sp)
    80001c36:	e2b2                	sd	a2,320(sp)
    80001c38:	02d58663          	beq	a1,a3,80001c64 <_ZN4core3fmt9Formatter12pad_integral17h7fb7350c4a3a4a93E+0x284>
    80001c3c:	a009                	j	80001c3e <_ZN4core3fmt9Formatter12pad_integral17h7fb7350c4a3a4a93E+0x25e>
    80001c3e:	6536                	ld	a0,328(sp)
    80001c40:	00357593          	andi	a1,a0,3
    80001c44:	460d                	li	a2,3
    80001c46:	02c58963          	beq	a1,a2,80001c78 <_ZN4core3fmt9Formatter12pad_integral17h7fb7350c4a3a4a93E+0x298>
    80001c4a:	a009                	j	80001c4c <_ZN4core3fmt9Formatter12pad_integral17h7fb7350c4a3a4a93E+0x26c>
    80001c4c:	6536                	ld	a0,328(sp)
    80001c4e:	00357593          	andi	a1,a0,3
    80001c52:	4601                	li	a2,0
    80001c54:	7696                	ld	a3,352(sp)
    80001c56:	6716                	ld	a4,320(sp)
    80001c58:	fe36                	sd	a3,312(sp)
    80001c5a:	fa3a                	sd	a4,304(sp)
    80001c5c:	02c58363          	beq	a1,a2,80001c82 <_ZN4core3fmt9Formatter12pad_integral17h7fb7350c4a3a4a93E+0x2a2>
    80001c60:	a009                	j	80001c62 <_ZN4core3fmt9Formatter12pad_integral17h7fb7350c4a3a4a93E+0x282>
    80001c62:	a819                	j	80001c78 <_ZN4core3fmt9Formatter12pad_integral17h7fb7350c4a3a4a93E+0x298>
    80001c64:	7516                	ld	a0,352(sp)
    80001c66:	00155593          	srli	a1,a0,0x1
    80001c6a:	00150613          	addi	a2,a0,1
    80001c6e:	8205                	srli	a2,a2,0x1
    80001c70:	fe32                	sd	a2,312(sp)
    80001c72:	fa2e                	sd	a1,304(sp)
    80001c74:	a039                	j	80001c82 <_ZN4core3fmt9Formatter12pad_integral17h7fb7350c4a3a4a93E+0x2a2>
    80001c76:	0000                	unimp
    80001c78:	4501                	li	a0,0
    80001c7a:	7596                	ld	a1,352(sp)
    80001c7c:	fe2a                	sd	a0,312(sp)
    80001c7e:	fa2e                	sd	a1,304(sp)
    80001c80:	a009                	j	80001c82 <_ZN4core3fmt9Formatter12pad_integral17h7fb7350c4a3a4a93E+0x2a2>
    80001c82:	7552                	ld	a0,304(sp)
    80001c84:	75f2                	ld	a1,312(sp)
    80001c86:	24013603          	ld	a2,576(sp)
    80001c8a:	02060693          	addi	a3,a2,32
    80001c8e:	02860713          	addi	a4,a2,40
    80001c92:	87ba                	mv	a5,a4
    80001c94:	03460813          	addi	a6,a2,52
    80001c98:	4881                	li	a7,0
    80001c9a:	f62a                	sd	a0,296(sp)
    80001c9c:	f22e                	sd	a1,288(sp)
    80001c9e:	ee36                	sd	a3,280(sp)
    80001ca0:	ea3a                	sd	a4,272(sp)
    80001ca2:	e63e                	sd	a5,264(sp)
    80001ca4:	e242                	sd	a6,256(sp)
    80001ca6:	fdc6                	sd	a7,248(sp)
    80001ca8:	a009                	j	80001caa <_ZN4core3fmt9Formatter12pad_integral17h7fb7350c4a3a4a93E+0x2ca>
    80001caa:	756e                	ld	a0,248(sp)
    80001cac:	75b2                	ld	a1,296(sp)
    80001cae:	f9aa                	sd	a0,240(sp)
    80001cb0:	16b50e63          	beq	a0,a1,80001e2c <_ZN4core3fmt9Formatter12pad_integral17h7fb7350c4a3a4a93E+0x44c>
    80001cb4:	a009                	j	80001cb6 <_ZN4core3fmt9Formatter12pad_integral17h7fb7350c4a3a4a93E+0x2d6>
    80001cb6:	754e                	ld	a0,240(sp)
    80001cb8:	00150593          	addi	a1,a0,1
    80001cbc:	6672                	ld	a2,280(sp)
    80001cbe:	6208                	ld	a0,0(a2)
    80001cc0:	66b2                	ld	a3,264(sp)
    80001cc2:	6298                	ld	a4,0(a3)
    80001cc4:	7318                	ld	a4,32(a4)
    80001cc6:	6792                	ld	a5,256(sp)
    80001cc8:	0007a803          	lw	a6,0(a5)
    80001ccc:	f5ae                	sd	a1,232(sp)
    80001cce:	85c2                	mv	a1,a6
    80001cd0:	9702                	jalr	a4
    80001cd2:	4585                	li	a1,1
    80001cd4:	762e                	ld	a2,232(sp)
    80001cd6:	fdb2                	sd	a2,248(sp)
    80001cd8:	f72e                	sd	a1,424(sp)
    80001cda:	1e051263          	bnez	a0,80001ebe <_ZN4core3fmt9Formatter12pad_integral17h7fb7350c4a3a4a93E+0x4de>
    80001cde:	b7f1                	j	80001caa <_ZN4core3fmt9Formatter12pad_integral17h7fb7350c4a3a4a93E+0x2ca>
    80001ce0:	657a                	ld	a0,408(sp)
    80001ce2:	75fa                	ld	a1,440(sp)
    80001ce4:	40b50633          	sub	a2,a0,a1
    80001ce8:	76f6                	ld	a3,376(sp)
    80001cea:	0006c703          	lbu	a4,0(a3)
    80001cee:	4785                	li	a5,1
    80001cf0:	480d                	li	a6,3
    80001cf2:	f1b2                	sd	a2,224(sp)
    80001cf4:	edba                	sd	a4,216(sp)
    80001cf6:	e9be                	sd	a5,208(sp)
    80001cf8:	01070463          	beq	a4,a6,80001d00 <_ZN4core3fmt9Formatter12pad_integral17h7fb7350c4a3a4a93E+0x320>
    80001cfc:	656e                	ld	a0,216(sp)
    80001cfe:	e9aa                	sd	a0,208(sp)
    80001d00:	654e                	ld	a0,208(sp)
    80001d02:	00357593          	andi	a1,a0,3
    80001d06:	4601                	li	a2,0
    80001d08:	4689                	li	a3,2
    80001d0a:	e5aa                	sd	a0,200(sp)
    80001d0c:	e1b2                	sd	a2,192(sp)
    80001d0e:	02d58663          	beq	a1,a3,80001d3a <_ZN4core3fmt9Formatter12pad_integral17h7fb7350c4a3a4a93E+0x35a>
    80001d12:	a009                	j	80001d14 <_ZN4core3fmt9Formatter12pad_integral17h7fb7350c4a3a4a93E+0x334>
    80001d14:	652e                	ld	a0,200(sp)
    80001d16:	00357593          	andi	a1,a0,3
    80001d1a:	460d                	li	a2,3
    80001d1c:	02c58963          	beq	a1,a2,80001d4e <_ZN4core3fmt9Formatter12pad_integral17h7fb7350c4a3a4a93E+0x36e>
    80001d20:	a009                	j	80001d22 <_ZN4core3fmt9Formatter12pad_integral17h7fb7350c4a3a4a93E+0x342>
    80001d22:	652e                	ld	a0,200(sp)
    80001d24:	00357593          	andi	a1,a0,3
    80001d28:	4601                	li	a2,0
    80001d2a:	768e                	ld	a3,224(sp)
    80001d2c:	670e                	ld	a4,192(sp)
    80001d2e:	fd36                	sd	a3,184(sp)
    80001d30:	f93a                	sd	a4,176(sp)
    80001d32:	02c58363          	beq	a1,a2,80001d58 <_ZN4core3fmt9Formatter12pad_integral17h7fb7350c4a3a4a93E+0x378>
    80001d36:	a009                	j	80001d38 <_ZN4core3fmt9Formatter12pad_integral17h7fb7350c4a3a4a93E+0x358>
    80001d38:	a819                	j	80001d4e <_ZN4core3fmt9Formatter12pad_integral17h7fb7350c4a3a4a93E+0x36e>
    80001d3a:	750e                	ld	a0,224(sp)
    80001d3c:	00155593          	srli	a1,a0,0x1
    80001d40:	00150613          	addi	a2,a0,1
    80001d44:	8205                	srli	a2,a2,0x1
    80001d46:	fd32                	sd	a2,184(sp)
    80001d48:	f92e                	sd	a1,176(sp)
    80001d4a:	a039                	j	80001d58 <_ZN4core3fmt9Formatter12pad_integral17h7fb7350c4a3a4a93E+0x378>
    80001d4c:	0000                	unimp
    80001d4e:	4501                	li	a0,0
    80001d50:	758e                	ld	a1,224(sp)
    80001d52:	fd2a                	sd	a0,184(sp)
    80001d54:	f92e                	sd	a1,176(sp)
    80001d56:	a009                	j	80001d58 <_ZN4core3fmt9Formatter12pad_integral17h7fb7350c4a3a4a93E+0x378>
    80001d58:	754a                	ld	a0,176(sp)
    80001d5a:	75ea                	ld	a1,184(sp)
    80001d5c:	24013603          	ld	a2,576(sp)
    80001d60:	02060693          	addi	a3,a2,32
    80001d64:	02860713          	addi	a4,a2,40
    80001d68:	4781                	li	a5,0
    80001d6a:	883a                	mv	a6,a4
    80001d6c:	f52a                	sd	a0,168(sp)
    80001d6e:	f12e                	sd	a1,160(sp)
    80001d70:	ed36                	sd	a3,152(sp)
    80001d72:	e93a                	sd	a4,144(sp)
    80001d74:	e542                	sd	a6,136(sp)
    80001d76:	e13e                	sd	a5,128(sp)
    80001d78:	a009                	j	80001d7a <_ZN4core3fmt9Formatter12pad_integral17h7fb7350c4a3a4a93E+0x39a>
    80001d7a:	650a                	ld	a0,128(sp)
    80001d7c:	75aa                	ld	a1,168(sp)
    80001d7e:	fcaa                	sd	a0,120(sp)
    80001d80:	02b50863          	beq	a0,a1,80001db0 <_ZN4core3fmt9Formatter12pad_integral17h7fb7350c4a3a4a93E+0x3d0>
    80001d84:	a009                	j	80001d86 <_ZN4core3fmt9Formatter12pad_integral17h7fb7350c4a3a4a93E+0x3a6>
    80001d86:	7566                	ld	a0,120(sp)
    80001d88:	00150593          	addi	a1,a0,1
    80001d8c:	666a                	ld	a2,152(sp)
    80001d8e:	6208                	ld	a0,0(a2)
    80001d90:	66aa                	ld	a3,136(sp)
    80001d92:	6298                	ld	a4,0(a3)
    80001d94:	7318                	ld	a4,32(a4)
    80001d96:	67ba                	ld	a5,392(sp)
    80001d98:	0007a803          	lw	a6,0(a5)
    80001d9c:	f8ae                	sd	a1,112(sp)
    80001d9e:	85c2                	mv	a1,a6
    80001da0:	9702                	jalr	a4
    80001da2:	4585                	li	a1,1
    80001da4:	7646                	ld	a2,112(sp)
    80001da6:	e132                	sd	a2,128(sp)
    80001da8:	f72e                	sd	a1,424(sp)
    80001daa:	10051a63          	bnez	a0,80001ebe <_ZN4core3fmt9Formatter12pad_integral17h7fb7350c4a3a4a93E+0x4de>
    80001dae:	b7f1                	j	80001d7a <_ZN4core3fmt9Formatter12pad_integral17h7fb7350c4a3a4a93E+0x39a>
    80001db0:	653a                	ld	a0,392(sp)
    80001db2:	00056583          	lwu	a1,0(a0)
    80001db6:	666a                	ld	a2,152(sp)
    80001db8:	6208                	ld	a0,0(a2)
    80001dba:	66ca                	ld	a3,144(sp)
    80001dbc:	6298                	ld	a4,0(a3)
    80001dbe:	6f18                	ld	a4,24(a4)
    80001dc0:	25813783          	ld	a5,600(sp)
    80001dc4:	f4ae                	sd	a1,104(sp)
    80001dc6:	85be                	mv	a1,a5
    80001dc8:	26013603          	ld	a2,608(sp)
    80001dcc:	9702                	jalr	a4
    80001dce:	4585                	li	a1,1
    80001dd0:	f72e                	sd	a1,424(sp)
    80001dd2:	e575                	bnez	a0,80001ebe <_ZN4core3fmt9Formatter12pad_integral17h7fb7350c4a3a4a93E+0x4de>
    80001dd4:	a009                	j	80001dd6 <_ZN4core3fmt9Formatter12pad_integral17h7fb7350c4a3a4a93E+0x3f6>
    80001dd6:	656a                	ld	a0,152(sp)
    80001dd8:	6108                	ld	a0,0(a0)
    80001dda:	65ca                	ld	a1,144(sp)
    80001ddc:	6190                	ld	a2,0(a1)
    80001dde:	02060613          	addi	a2,a2,32
    80001de2:	4681                	li	a3,0
    80001de4:	f0aa                	sd	a0,96(sp)
    80001de6:	ecb2                	sd	a2,88(sp)
    80001de8:	e8b6                	sd	a3,80(sp)
    80001dea:	a009                	j	80001dec <_ZN4core3fmt9Formatter12pad_integral17h7fb7350c4a3a4a93E+0x40c>
    80001dec:	6546                	ld	a0,80(sp)
    80001dee:	758a                	ld	a1,160(sp)
    80001df0:	e4aa                	sd	a0,72(sp)
    80001df2:	02b50363          	beq	a0,a1,80001e18 <_ZN4core3fmt9Formatter12pad_integral17h7fb7350c4a3a4a93E+0x438>
    80001df6:	a009                	j	80001df8 <_ZN4core3fmt9Formatter12pad_integral17h7fb7350c4a3a4a93E+0x418>
    80001df8:	6526                	ld	a0,72(sp)
    80001dfa:	00150593          	addi	a1,a0,1
    80001dfe:	6666                	ld	a2,88(sp)
    80001e00:	6214                	ld	a3,0(a2)
    80001e02:	7506                	ld	a0,96(sp)
    80001e04:	7726                	ld	a4,104(sp)
    80001e06:	e0ae                	sd	a1,64(sp)
    80001e08:	85ba                	mv	a1,a4
    80001e0a:	9682                	jalr	a3
    80001e0c:	4585                	li	a1,1
    80001e0e:	6606                	ld	a2,64(sp)
    80001e10:	e8b2                	sd	a2,80(sp)
    80001e12:	f72e                	sd	a1,424(sp)
    80001e14:	e54d                	bnez	a0,80001ebe <_ZN4core3fmt9Formatter12pad_integral17h7fb7350c4a3a4a93E+0x4de>
    80001e16:	bfd9                	j	80001dec <_ZN4core3fmt9Formatter12pad_integral17h7fb7350c4a3a4a93E+0x40c>
    80001e18:	651a                	ld	a0,384(sp)
    80001e1a:	65ba                	ld	a1,392(sp)
    80001e1c:	c188                	sw	a0,0(a1)
    80001e1e:	7656                	ld	a2,368(sp)
    80001e20:	76f6                	ld	a3,376(sp)
    80001e22:	00c68023          	sb	a2,0(a3)
    80001e26:	4701                	li	a4,0
    80001e28:	f73a                	sd	a4,424(sp)
    80001e2a:	a851                	j	80001ebe <_ZN4core3fmt9Formatter12pad_integral17h7fb7350c4a3a4a93E+0x4de>
    80001e2c:	6512                	ld	a0,256(sp)
    80001e2e:	00056583          	lwu	a1,0(a0)
    80001e32:	24013503          	ld	a0,576(sp)
    80001e36:	767e                	ld	a2,504(sp)
    80001e38:	fc2e                	sd	a1,56(sp)
    80001e3a:	85b2                	mv	a1,a2
    80001e3c:	765a                	ld	a2,432(sp)
    80001e3e:	25013683          	ld	a3,592(sp)
    80001e42:	00000097          	auipc	ra,0x0
    80001e46:	088080e7          	jalr	136(ra) # 80001eca <_ZN4core3fmt9Formatter12pad_integral12write_prefix17h505157fe8a7106eeE>
    80001e4a:	4585                	li	a1,1
    80001e4c:	f72e                	sd	a1,424(sp)
    80001e4e:	e925                	bnez	a0,80001ebe <_ZN4core3fmt9Formatter12pad_integral17h7fb7350c4a3a4a93E+0x4de>
    80001e50:	a009                	j	80001e52 <_ZN4core3fmt9Formatter12pad_integral17h7fb7350c4a3a4a93E+0x472>
    80001e52:	6572                	ld	a0,280(sp)
    80001e54:	6108                	ld	a0,0(a0)
    80001e56:	65d2                	ld	a1,272(sp)
    80001e58:	6190                	ld	a2,0(a1)
    80001e5a:	6e10                	ld	a2,24(a2)
    80001e5c:	25813583          	ld	a1,600(sp)
    80001e60:	26013683          	ld	a3,608(sp)
    80001e64:	f832                	sd	a2,48(sp)
    80001e66:	8636                	mv	a2,a3
    80001e68:	7742                	ld	a4,48(sp)
    80001e6a:	9702                	jalr	a4
    80001e6c:	4585                	li	a1,1
    80001e6e:	f72e                	sd	a1,424(sp)
    80001e70:	e539                	bnez	a0,80001ebe <_ZN4core3fmt9Formatter12pad_integral17h7fb7350c4a3a4a93E+0x4de>
    80001e72:	a009                	j	80001e74 <_ZN4core3fmt9Formatter12pad_integral17h7fb7350c4a3a4a93E+0x494>
    80001e74:	6572                	ld	a0,280(sp)
    80001e76:	6108                	ld	a0,0(a0)
    80001e78:	65d2                	ld	a1,272(sp)
    80001e7a:	6190                	ld	a2,0(a1)
    80001e7c:	02060613          	addi	a2,a2,32
    80001e80:	4681                	li	a3,0
    80001e82:	f42a                	sd	a0,40(sp)
    80001e84:	f032                	sd	a2,32(sp)
    80001e86:	ec36                	sd	a3,24(sp)
    80001e88:	a009                	j	80001e8a <_ZN4core3fmt9Formatter12pad_integral17h7fb7350c4a3a4a93E+0x4aa>
    80001e8a:	6562                	ld	a0,24(sp)
    80001e8c:	4581                	li	a1,0
    80001e8e:	7612                	ld	a2,288(sp)
    80001e90:	e82a                	sd	a0,16(sp)
    80001e92:	f72e                	sd	a1,424(sp)
    80001e94:	02c50563          	beq	a0,a2,80001ebe <_ZN4core3fmt9Formatter12pad_integral17h7fb7350c4a3a4a93E+0x4de>
    80001e98:	a009                	j	80001e9a <_ZN4core3fmt9Formatter12pad_integral17h7fb7350c4a3a4a93E+0x4ba>
    80001e9a:	6542                	ld	a0,16(sp)
    80001e9c:	00150593          	addi	a1,a0,1
    80001ea0:	7602                	ld	a2,32(sp)
    80001ea2:	6214                	ld	a3,0(a2)
    80001ea4:	7522                	ld	a0,40(sp)
    80001ea6:	7762                	ld	a4,56(sp)
    80001ea8:	e42e                	sd	a1,8(sp)
    80001eaa:	85ba                	mv	a1,a4
    80001eac:	9682                	jalr	a3
    80001eae:	4585                	li	a1,1
    80001eb0:	4601                	li	a2,0
    80001eb2:	66a2                	ld	a3,8(sp)
    80001eb4:	ec36                	sd	a3,24(sp)
    80001eb6:	f72e                	sd	a1,424(sp)
    80001eb8:	fcc509e3          	beq	a0,a2,80001e8a <_ZN4core3fmt9Formatter12pad_integral17h7fb7350c4a3a4a93E+0x4aa>
    80001ebc:	a009                	j	80001ebe <_ZN4core3fmt9Formatter12pad_integral17h7fb7350c4a3a4a93E+0x4de>
    80001ebe:	753a                	ld	a0,424(sp)
    80001ec0:	26813083          	ld	ra,616(sp)
    80001ec4:	27010113          	addi	sp,sp,624
    80001ec8:	8082                	ret

0000000080001eca <_ZN4core3fmt9Formatter12pad_integral12write_prefix17h505157fe8a7106eeE>:
    80001eca:	7139                	addi	sp,sp,-64
    80001ecc:	fc06                	sd	ra,56(sp)
    80001ece:	872e                	mv	a4,a1
    80001ed0:	1582                	slli	a1,a1,0x20
    80001ed2:	9181                	srli	a1,a1,0x20
    80001ed4:	001107b7          	lui	a5,0x110
    80001ed8:	f836                	sd	a3,48(sp)
    80001eda:	f432                	sd	a2,40(sp)
    80001edc:	f02a                	sd	a0,32(sp)
    80001ede:	ec3a                	sd	a4,24(sp)
    80001ee0:	00f58e63          	beq	a1,a5,80001efc <_ZN4core3fmt9Formatter12pad_integral12write_prefix17h505157fe8a7106eeE+0x32>
    80001ee4:	a009                	j	80001ee6 <_ZN4core3fmt9Formatter12pad_integral12write_prefix17h505157fe8a7106eeE+0x1c>
    80001ee6:	7502                	ld	a0,32(sp)
    80001ee8:	7108                	ld	a0,32(a0)
    80001eea:	7582                	ld	a1,32(sp)
    80001eec:	7590                	ld	a2,40(a1)
    80001eee:	7210                	ld	a2,32(a2)
    80001ef0:	65e2                	ld	a1,24(sp)
    80001ef2:	9602                	jalr	a2
    80001ef4:	4585                	li	a1,1
    80001ef6:	e82e                	sd	a1,16(sp)
    80001ef8:	e515                	bnez	a0,80001f24 <_ZN4core3fmt9Formatter12pad_integral12write_prefix17h505157fe8a7106eeE+0x5a>
    80001efa:	a009                	j	80001efc <_ZN4core3fmt9Formatter12pad_integral12write_prefix17h505157fe8a7106eeE+0x32>
    80001efc:	4501                	li	a0,0
    80001efe:	85aa                	mv	a1,a0
    80001f00:	7622                	ld	a2,40(sp)
    80001f02:	e82e                	sd	a1,16(sp)
    80001f04:	02a60063          	beq	a2,a0,80001f24 <_ZN4core3fmt9Formatter12pad_integral12write_prefix17h505157fe8a7106eeE+0x5a>
    80001f08:	a009                	j	80001f0a <_ZN4core3fmt9Formatter12pad_integral12write_prefix17h505157fe8a7106eeE+0x40>
    80001f0a:	7502                	ld	a0,32(sp)
    80001f0c:	7108                	ld	a0,32(a0)
    80001f0e:	7582                	ld	a1,32(sp)
    80001f10:	7590                	ld	a2,40(a1)
    80001f12:	6e10                	ld	a2,24(a2)
    80001f14:	75a2                	ld	a1,40(sp)
    80001f16:	76c2                	ld	a3,48(sp)
    80001f18:	e432                	sd	a2,8(sp)
    80001f1a:	8636                	mv	a2,a3
    80001f1c:	6722                	ld	a4,8(sp)
    80001f1e:	9702                	jalr	a4
    80001f20:	e82a                	sd	a0,16(sp)
    80001f22:	a009                	j	80001f24 <_ZN4core3fmt9Formatter12pad_integral12write_prefix17h505157fe8a7106eeE+0x5a>
    80001f24:	6542                	ld	a0,16(sp)
    80001f26:	70e2                	ld	ra,56(sp)
    80001f28:	6121                	addi	sp,sp,64
    80001f2a:	8082                	ret

0000000080001f2c <_ZN4core5slice5index24slice_end_index_len_fail17h22e7ee92998b4241E>:
    80001f2c:	7159                	addi	sp,sp,-112
    80001f2e:	f486                	sd	ra,104(sp)
    80001f30:	e42a                	sd	a0,8(sp)
    80001f32:	e82e                	sd	a1,16(sp)
    80001f34:	0028                	addi	a0,sp,8
    80001f36:	e4aa                	sd	a0,72(sp)
    80001f38:	00000517          	auipc	a0,0x0
    80001f3c:	87450513          	addi	a0,a0,-1932 # 800017ac <_ZN4core3fmt3num3imp52_$LT$impl$u20$core..fmt..Display$u20$for$u20$u64$GT$3fmt17h22caa4a622631133E>
    80001f40:	e8aa                	sd	a0,80(sp)
    80001f42:	080c                	addi	a1,sp,16
    80001f44:	ecae                	sd	a1,88(sp)
    80001f46:	f0aa                	sd	a0,96(sp)
    80001f48:	00001517          	auipc	a0,0x1
    80001f4c:	63050513          	addi	a0,a0,1584 # 80003578 <str.1+0x1c8>
    80001f50:	ec2a                	sd	a0,24(sp)
    80001f52:	4509                	li	a0,2
    80001f54:	f02a                	sd	a0,32(sp)
    80001f56:	4581                	li	a1,0
    80001f58:	f42e                	sd	a1,40(sp)
    80001f5a:	00ac                	addi	a1,sp,72
    80001f5c:	fc2e                	sd	a1,56(sp)
    80001f5e:	e0aa                	sd	a0,64(sp)
    80001f60:	0828                	addi	a0,sp,24
    80001f62:	85b2                	mv	a1,a2
    80001f64:	00000097          	auipc	ra,0x0
    80001f68:	a36080e7          	jalr	-1482(ra) # 8000199a <_ZN4core9panicking9panic_fmt17h58fb395352900abeE>
	...

0000000080001f6e <_ZN4core3fmt9Formatter3pad17h946adb8f77146580E>:
    80001f6e:	ce010113          	addi	sp,sp,-800
    80001f72:	30113c23          	sd	ra,792(sp)
    80001f76:	6114                	ld	a3,0(a0)
    80001f78:	fff68713          	addi	a4,a3,-1
    80001f7c:	00173713          	seqz	a4,a4
    80001f80:	691c                	ld	a5,16(a0)
    80001f82:	17fd                	addi	a5,a5,-1
    80001f84:	0017b793          	seqz	a5,a5
    80001f88:	4805                	li	a6,1
    80001f8a:	30c13823          	sd	a2,784(sp)
    80001f8e:	30b13423          	sd	a1,776(sp)
    80001f92:	30a13023          	sd	a0,768(sp)
    80001f96:	2ee13c23          	sd	a4,760(sp)
    80001f9a:	2ef13823          	sd	a5,752(sp)
    80001f9e:	01068763          	beq	a3,a6,80001fac <_ZN4core3fmt9Formatter3pad17h946adb8f77146580E+0x3e>
    80001fa2:	a009                	j	80001fa4 <_ZN4core3fmt9Formatter3pad17h946adb8f77146580E+0x36>
    80001fa4:	2f013503          	ld	a0,752(sp)
    80001fa8:	e131                	bnez	a0,80001fec <_ZN4core3fmt9Formatter3pad17h946adb8f77146580E+0x7e>
    80001faa:	a829                	j	80001fc4 <_ZN4core3fmt9Formatter3pad17h946adb8f77146580E+0x56>
    80001fac:	31013503          	ld	a0,784(sp)
    80001fb0:	30813583          	ld	a1,776(sp)
    80001fb4:	2f013603          	ld	a2,752(sp)
    80001fb8:	2ea13423          	sd	a0,744(sp)
    80001fbc:	2eb13023          	sd	a1,736(sp)
    80001fc0:	e615                	bnez	a2,80001fec <_ZN4core3fmt9Formatter3pad17h946adb8f77146580E+0x7e>
    80001fc2:	a115                	j	800023e6 <_ZN4core3fmt9Formatter3pad17h946adb8f77146580E+0x478>
    80001fc4:	30013503          	ld	a0,768(sp)
    80001fc8:	7108                	ld	a0,32(a0)
    80001fca:	30013583          	ld	a1,768(sp)
    80001fce:	7590                	ld	a2,40(a1)
    80001fd0:	6e10                	ld	a2,24(a2)
    80001fd2:	30813583          	ld	a1,776(sp)
    80001fd6:	31013683          	ld	a3,784(sp)
    80001fda:	2cc13c23          	sd	a2,728(sp)
    80001fde:	8636                	mv	a2,a3
    80001fe0:	2d813703          	ld	a4,728(sp)
    80001fe4:	9702                	jalr	a4
    80001fe6:	2ca13823          	sd	a0,720(sp)
    80001fea:	a525                	j	80002612 <_ZN4core3fmt9Formatter3pad17h946adb8f77146580E+0x6a4>
    80001fec:	30013503          	ld	a0,768(sp)
    80001ff0:	6d0c                	ld	a1,24(a0)
    80001ff2:	30813603          	ld	a2,776(sp)
    80001ff6:	30813683          	ld	a3,776(sp)
    80001ffa:	31013703          	ld	a4,784(sp)
    80001ffe:	00e687b3          	add	a5,a3,a4
    80002002:	4801                	li	a6,0
    80002004:	88c2                	mv	a7,a6
    80002006:	82c6                	mv	t0,a7
    80002008:	2cb13423          	sd	a1,712(sp)
    8000200c:	2cc13023          	sd	a2,704(sp)
    80002010:	2af13c23          	sd	a5,696(sp)
    80002014:	2a513823          	sd	t0,688(sp)
    80002018:	2ad13423          	sd	a3,680(sp)
    8000201c:	2b113023          	sd	a7,672(sp)
    80002020:	1f058863          	beq	a1,a6,80002210 <_ZN4core3fmt9Formatter3pad17h946adb8f77146580E+0x2a2>
    80002024:	a009                	j	80002026 <_ZN4core3fmt9Formatter3pad17h946adb8f77146580E+0xb8>
    80002026:	2a013503          	ld	a0,672(sp)
    8000202a:	2a813583          	ld	a1,680(sp)
    8000202e:	2b013603          	ld	a2,688(sp)
    80002032:	0505                	addi	a0,a0,1
    80002034:	86ae                	mv	a3,a1
    80002036:	30813703          	ld	a4,776(sp)
    8000203a:	31013783          	ld	a5,784(sp)
    8000203e:	2b813803          	ld	a6,696(sp)
    80002042:	28b13c23          	sd	a1,664(sp)
    80002046:	28c13823          	sd	a2,656(sp)
    8000204a:	28a13423          	sd	a0,648(sp)
    8000204e:	28d13023          	sd	a3,640(sp)
    80002052:	26e13c23          	sd	a4,632(sp)
    80002056:	26f13823          	sd	a5,624(sp)
    8000205a:	34b80663          	beq	a6,a1,800023a6 <_ZN4core3fmt9Formatter3pad17h946adb8f77146580E+0x438>
    8000205e:	a009                	j	80002060 <_ZN4core3fmt9Formatter3pad17h946adb8f77146580E+0xf2>
    80002060:	28013503          	ld	a0,640(sp)
    80002064:	00150593          	addi	a1,a0,1
    80002068:	862e                	mv	a2,a1
    8000206a:	00050683          	lb	a3,0(a0)
    8000206e:	0ff6f713          	andi	a4,a3,255
    80002072:	57fd                	li	a5,-1
    80002074:	882e                	mv	a6,a1
    80002076:	26b13423          	sd	a1,616(sp)
    8000207a:	26c13023          	sd	a2,608(sp)
    8000207e:	24e13c23          	sd	a4,600(sp)
    80002082:	25013823          	sd	a6,592(sp)
    80002086:	14d7cd63          	blt	a5,a3,800021e0 <_ZN4core3fmt9Formatter3pad17h946adb8f77146580E+0x272>
    8000208a:	a009                	j	8000208c <_ZN4core3fmt9Formatter3pad17h946adb8f77146580E+0x11e>
    8000208c:	25813503          	ld	a0,600(sp)
    80002090:	4581                	li	a1,0
    80002092:	26813603          	ld	a2,616(sp)
    80002096:	2b813683          	ld	a3,696(sp)
    8000209a:	26013703          	ld	a4,608(sp)
    8000209e:	2b813783          	ld	a5,696(sp)
    800020a2:	24a13423          	sd	a0,584(sp)
    800020a6:	24c13023          	sd	a2,576(sp)
    800020aa:	22d13c23          	sd	a3,568(sp)
    800020ae:	22b13823          	sd	a1,560(sp)
    800020b2:	02f70563          	beq	a4,a5,800020dc <_ZN4core3fmt9Formatter3pad17h946adb8f77146580E+0x16e>
    800020b6:	a009                	j	800020b8 <_ZN4core3fmt9Formatter3pad17h946adb8f77146580E+0x14a>
    800020b8:	28013503          	ld	a0,640(sp)
    800020bc:	00250593          	addi	a1,a0,2
    800020c0:	862e                	mv	a2,a1
    800020c2:	26013683          	ld	a3,608(sp)
    800020c6:	0006c703          	lbu	a4,0(a3)
    800020ca:	03f77713          	andi	a4,a4,63
    800020ce:	24b13023          	sd	a1,576(sp)
    800020d2:	22c13c23          	sd	a2,568(sp)
    800020d6:	22e13823          	sd	a4,560(sp)
    800020da:	a009                	j	800020dc <_ZN4core3fmt9Formatter3pad17h946adb8f77146580E+0x16e>
    800020dc:	23013503          	ld	a0,560(sp)
    800020e0:	23813583          	ld	a1,568(sp)
    800020e4:	24013603          	ld	a2,576(sp)
    800020e8:	0e000693          	li	a3,224
    800020ec:	8732                	mv	a4,a2
    800020ee:	25813783          	ld	a5,600(sp)
    800020f2:	22b13423          	sd	a1,552(sp)
    800020f6:	22c13023          	sd	a2,544(sp)
    800020fa:	20a13c23          	sd	a0,536(sp)
    800020fe:	24e13823          	sd	a4,592(sp)
    80002102:	0cd7ef63          	bltu	a5,a3,800021e0 <_ZN4core3fmt9Formatter3pad17h946adb8f77146580E+0x272>
    80002106:	a009                	j	80002108 <_ZN4core3fmt9Formatter3pad17h946adb8f77146580E+0x19a>
    80002108:	4501                	li	a0,0
    8000210a:	22013583          	ld	a1,544(sp)
    8000210e:	2b813603          	ld	a2,696(sp)
    80002112:	22813683          	ld	a3,552(sp)
    80002116:	2b813703          	ld	a4,696(sp)
    8000211a:	20b13823          	sd	a1,528(sp)
    8000211e:	20c13423          	sd	a2,520(sp)
    80002122:	20a13023          	sd	a0,512(sp)
    80002126:	02e68363          	beq	a3,a4,8000214c <_ZN4core3fmt9Formatter3pad17h946adb8f77146580E+0x1de>
    8000212a:	a009                	j	8000212c <_ZN4core3fmt9Formatter3pad17h946adb8f77146580E+0x1be>
    8000212c:	22813503          	ld	a0,552(sp)
    80002130:	00150593          	addi	a1,a0,1
    80002134:	862e                	mv	a2,a1
    80002136:	00054683          	lbu	a3,0(a0)
    8000213a:	03f6f693          	andi	a3,a3,63
    8000213e:	20b13823          	sd	a1,528(sp)
    80002142:	20c13423          	sd	a2,520(sp)
    80002146:	20d13023          	sd	a3,512(sp)
    8000214a:	a009                	j	8000214c <_ZN4core3fmt9Formatter3pad17h946adb8f77146580E+0x1de>
    8000214c:	20013503          	ld	a0,512(sp)
    80002150:	20813583          	ld	a1,520(sp)
    80002154:	21013603          	ld	a2,528(sp)
    80002158:	0f000693          	li	a3,240
    8000215c:	8732                	mv	a4,a2
    8000215e:	25813783          	ld	a5,600(sp)
    80002162:	ffae                	sd	a1,504(sp)
    80002164:	fbb2                	sd	a2,496(sp)
    80002166:	f7aa                	sd	a0,488(sp)
    80002168:	24e13823          	sd	a4,592(sp)
    8000216c:	06d7ea63          	bltu	a5,a3,800021e0 <_ZN4core3fmt9Formatter3pad17h946adb8f77146580E+0x272>
    80002170:	a009                	j	80002172 <_ZN4core3fmt9Formatter3pad17h946adb8f77146580E+0x204>
    80002172:	4501                	li	a0,0
    80002174:	75de                	ld	a1,496(sp)
    80002176:	767e                	ld	a2,504(sp)
    80002178:	2b813683          	ld	a3,696(sp)
    8000217c:	f3ae                	sd	a1,480(sp)
    8000217e:	efaa                	sd	a0,472(sp)
    80002180:	00d60d63          	beq	a2,a3,8000219a <_ZN4core3fmt9Formatter3pad17h946adb8f77146580E+0x22c>
    80002184:	a009                	j	80002186 <_ZN4core3fmt9Formatter3pad17h946adb8f77146580E+0x218>
    80002186:	757e                	ld	a0,504(sp)
    80002188:	00150593          	addi	a1,a0,1
    8000218c:	00054603          	lbu	a2,0(a0)
    80002190:	03f67613          	andi	a2,a2,63
    80002194:	f3ae                	sd	a1,480(sp)
    80002196:	efb2                	sd	a2,472(sp)
    80002198:	a009                	j	8000219a <_ZN4core3fmt9Formatter3pad17h946adb8f77146580E+0x22c>
    8000219a:	657e                	ld	a0,472(sp)
    8000219c:	759e                	ld	a1,480(sp)
    8000219e:	24813603          	ld	a2,584(sp)
    800021a2:	01261693          	slli	a3,a2,0x12
    800021a6:	001c0737          	lui	a4,0x1c0
    800021aa:	8ef9                	and	a3,a3,a4
    800021ac:	21813703          	ld	a4,536(sp)
    800021b0:	00c71793          	slli	a5,a4,0xc
    800021b4:	783e                	ld	a6,488(sp)
    800021b6:	00681893          	slli	a7,a6,0x6
    800021ba:	8edd                	or	a3,a3,a5
    800021bc:	0116e6b3          	or	a3,a3,a7
    800021c0:	8d55                	or	a0,a0,a3
    800021c2:	001106b7          	lui	a3,0x110
    800021c6:	30813783          	ld	a5,776(sp)
    800021ca:	31013883          	ld	a7,784(sp)
    800021ce:	24b13823          	sd	a1,592(sp)
    800021d2:	26f13c23          	sd	a5,632(sp)
    800021d6:	27113823          	sd	a7,624(sp)
    800021da:	1cd50663          	beq	a0,a3,800023a6 <_ZN4core3fmt9Formatter3pad17h946adb8f77146580E+0x438>
    800021de:	a009                	j	800021e0 <_ZN4core3fmt9Formatter3pad17h946adb8f77146580E+0x272>
    800021e0:	25013503          	ld	a0,592(sp)
    800021e4:	29813583          	ld	a1,664(sp)
    800021e8:	40b50633          	sub	a2,a0,a1
    800021ec:	29013683          	ld	a3,656(sp)
    800021f0:	9636                	add	a2,a2,a3
    800021f2:	28813703          	ld	a4,648(sp)
    800021f6:	28813783          	ld	a5,648(sp)
    800021fa:	2c813803          	ld	a6,712(sp)
    800021fe:	2ac13823          	sd	a2,688(sp)
    80002202:	2aa13423          	sd	a0,680(sp)
    80002206:	2ae13023          	sd	a4,672(sp)
    8000220a:	e1079ee3          	bne	a5,a6,80002026 <_ZN4core3fmt9Formatter3pad17h946adb8f77146580E+0xb8>
    8000220e:	a009                	j	80002210 <_ZN4core3fmt9Formatter3pad17h946adb8f77146580E+0x2a2>
    80002210:	2a813503          	ld	a0,680(sp)
    80002214:	2b013583          	ld	a1,688(sp)
    80002218:	862a                	mv	a2,a0
    8000221a:	30813683          	ld	a3,776(sp)
    8000221e:	31013703          	ld	a4,784(sp)
    80002222:	2b813783          	ld	a5,696(sp)
    80002226:	ebae                	sd	a1,464(sp)
    80002228:	e7b2                	sd	a2,456(sp)
    8000222a:	26d13c23          	sd	a3,632(sp)
    8000222e:	26e13823          	sd	a4,624(sp)
    80002232:	16a78a63          	beq	a5,a0,800023a6 <_ZN4core3fmt9Formatter3pad17h946adb8f77146580E+0x438>
    80002236:	a009                	j	80002238 <_ZN4core3fmt9Formatter3pad17h946adb8f77146580E+0x2ca>
    80002238:	653e                	ld	a0,456(sp)
    8000223a:	00150593          	addi	a1,a0,1
    8000223e:	00050603          	lb	a2,0(a0)
    80002242:	0ff67693          	andi	a3,a2,255
    80002246:	577d                	li	a4,-1
    80002248:	e3ae                	sd	a1,448(sp)
    8000224a:	ff36                	sd	a3,440(sp)
    8000224c:	0ec74163          	blt	a4,a2,8000232e <_ZN4core3fmt9Formatter3pad17h946adb8f77146580E+0x3c0>
    80002250:	a009                	j	80002252 <_ZN4core3fmt9Formatter3pad17h946adb8f77146580E+0x2e4>
    80002252:	757a                	ld	a0,440(sp)
    80002254:	4581                	li	a1,0
    80002256:	2b813603          	ld	a2,696(sp)
    8000225a:	669e                	ld	a3,448(sp)
    8000225c:	2b813703          	ld	a4,696(sp)
    80002260:	fb2a                	sd	a0,432(sp)
    80002262:	f732                	sd	a2,424(sp)
    80002264:	f32e                	sd	a1,416(sp)
    80002266:	00e68e63          	beq	a3,a4,80002282 <_ZN4core3fmt9Formatter3pad17h946adb8f77146580E+0x314>
    8000226a:	a009                	j	8000226c <_ZN4core3fmt9Formatter3pad17h946adb8f77146580E+0x2fe>
    8000226c:	653e                	ld	a0,456(sp)
    8000226e:	00250593          	addi	a1,a0,2
    80002272:	661e                	ld	a2,448(sp)
    80002274:	00064683          	lbu	a3,0(a2)
    80002278:	03f6f693          	andi	a3,a3,63
    8000227c:	f72e                	sd	a1,424(sp)
    8000227e:	f336                	sd	a3,416(sp)
    80002280:	a009                	j	80002282 <_ZN4core3fmt9Formatter3pad17h946adb8f77146580E+0x314>
    80002282:	751a                	ld	a0,416(sp)
    80002284:	75ba                	ld	a1,424(sp)
    80002286:	0e000613          	li	a2,224
    8000228a:	76fa                	ld	a3,440(sp)
    8000228c:	ef2e                	sd	a1,408(sp)
    8000228e:	eb2a                	sd	a0,400(sp)
    80002290:	08c6ef63          	bltu	a3,a2,8000232e <_ZN4core3fmt9Formatter3pad17h946adb8f77146580E+0x3c0>
    80002294:	a009                	j	80002296 <_ZN4core3fmt9Formatter3pad17h946adb8f77146580E+0x328>
    80002296:	4501                	li	a0,0
    80002298:	2b813583          	ld	a1,696(sp)
    8000229c:	667a                	ld	a2,408(sp)
    8000229e:	2b813683          	ld	a3,696(sp)
    800022a2:	e72e                	sd	a1,392(sp)
    800022a4:	e32a                	sd	a0,384(sp)
    800022a6:	00d60d63          	beq	a2,a3,800022c0 <_ZN4core3fmt9Formatter3pad17h946adb8f77146580E+0x352>
    800022aa:	a009                	j	800022ac <_ZN4core3fmt9Formatter3pad17h946adb8f77146580E+0x33e>
    800022ac:	657a                	ld	a0,408(sp)
    800022ae:	00150593          	addi	a1,a0,1
    800022b2:	00054603          	lbu	a2,0(a0)
    800022b6:	03f67613          	andi	a2,a2,63
    800022ba:	e72e                	sd	a1,392(sp)
    800022bc:	e332                	sd	a2,384(sp)
    800022be:	a009                	j	800022c0 <_ZN4core3fmt9Formatter3pad17h946adb8f77146580E+0x352>
    800022c0:	651a                	ld	a0,384(sp)
    800022c2:	65ba                	ld	a1,392(sp)
    800022c4:	0f000613          	li	a2,240
    800022c8:	76fa                	ld	a3,440(sp)
    800022ca:	feae                	sd	a1,376(sp)
    800022cc:	faaa                	sd	a0,368(sp)
    800022ce:	06c6e063          	bltu	a3,a2,8000232e <_ZN4core3fmt9Formatter3pad17h946adb8f77146580E+0x3c0>
    800022d2:	a009                	j	800022d4 <_ZN4core3fmt9Formatter3pad17h946adb8f77146580E+0x366>
    800022d4:	4501                	li	a0,0
    800022d6:	75f6                	ld	a1,376(sp)
    800022d8:	2b813603          	ld	a2,696(sp)
    800022dc:	f6aa                	sd	a0,360(sp)
    800022de:	00c58a63          	beq	a1,a2,800022f2 <_ZN4core3fmt9Formatter3pad17h946adb8f77146580E+0x384>
    800022e2:	a009                	j	800022e4 <_ZN4core3fmt9Formatter3pad17h946adb8f77146580E+0x376>
    800022e4:	7576                	ld	a0,376(sp)
    800022e6:	00054583          	lbu	a1,0(a0)
    800022ea:	03f5f593          	andi	a1,a1,63
    800022ee:	f6ae                	sd	a1,360(sp)
    800022f0:	a009                	j	800022f2 <_ZN4core3fmt9Formatter3pad17h946adb8f77146580E+0x384>
    800022f2:	7536                	ld	a0,360(sp)
    800022f4:	75da                	ld	a1,432(sp)
    800022f6:	01259613          	slli	a2,a1,0x12
    800022fa:	001c06b7          	lui	a3,0x1c0
    800022fe:	8e75                	and	a2,a2,a3
    80002300:	66da                	ld	a3,400(sp)
    80002302:	00c69713          	slli	a4,a3,0xc
    80002306:	77d6                	ld	a5,368(sp)
    80002308:	00679813          	slli	a6,a5,0x6
    8000230c:	8e59                	or	a2,a2,a4
    8000230e:	01066633          	or	a2,a2,a6
    80002312:	8d51                	or	a0,a0,a2
    80002314:	00110637          	lui	a2,0x110
    80002318:	30813703          	ld	a4,776(sp)
    8000231c:	31013803          	ld	a6,784(sp)
    80002320:	26e13c23          	sd	a4,632(sp)
    80002324:	27013823          	sd	a6,624(sp)
    80002328:	06c50f63          	beq	a0,a2,800023a6 <_ZN4core3fmt9Formatter3pad17h946adb8f77146580E+0x438>
    8000232c:	a009                	j	8000232e <_ZN4core3fmt9Formatter3pad17h946adb8f77146580E+0x3c0>
    8000232e:	655e                	ld	a0,464(sp)
    80002330:	00153593          	seqz	a1,a0
    80002334:	31013603          	ld	a2,784(sp)
    80002338:	00c546b3          	xor	a3,a0,a2
    8000233c:	0016b693          	seqz	a3,a3
    80002340:	8dd5                	or	a1,a1,a3
    80002342:	e985                	bnez	a1,80002372 <_ZN4core3fmt9Formatter3pad17h946adb8f77146580E+0x404>
    80002344:	a009                	j	80002346 <_ZN4core3fmt9Formatter3pad17h946adb8f77146580E+0x3d8>
    80002346:	4501                	li	a0,0
    80002348:	65de                	ld	a1,464(sp)
    8000234a:	31013603          	ld	a2,784(sp)
    8000234e:	f2aa                	sd	a0,352(sp)
    80002350:	02c5f563          	bgeu	a1,a2,8000237a <_ZN4core3fmt9Formatter3pad17h946adb8f77146580E+0x40c>
    80002354:	a009                	j	80002356 <_ZN4core3fmt9Formatter3pad17h946adb8f77146580E+0x3e8>
    80002356:	30813503          	ld	a0,776(sp)
    8000235a:	65de                	ld	a1,464(sp)
    8000235c:	00b50633          	add	a2,a0,a1
    80002360:	00060603          	lb	a2,0(a2) # 110000 <_ZN106_$LT$core..ops..range..Range$LT$usize$GT$$u20$as$u20$core..slice..index..SliceIndex$LT$$u5b$T$u5d$$GT$$GT$17get_unchecked_mut17h97f5b57f479b560dE-0x7fef0000>
    80002364:	4681                	li	a3,0
    80002366:	fc000713          	li	a4,-64
    8000236a:	f2b6                	sd	a3,352(sp)
    8000236c:	00e64763          	blt	a2,a4,8000237a <_ZN4core3fmt9Formatter3pad17h946adb8f77146580E+0x40c>
    80002370:	a009                	j	80002372 <_ZN4core3fmt9Formatter3pad17h946adb8f77146580E+0x404>
    80002372:	2c013503          	ld	a0,704(sp)
    80002376:	f2aa                	sd	a0,352(sp)
    80002378:	a009                	j	8000237a <_ZN4core3fmt9Formatter3pad17h946adb8f77146580E+0x40c>
    8000237a:	7516                	ld	a0,352(sp)
    8000237c:	4581                	li	a1,0
    8000237e:	30813603          	ld	a2,776(sp)
    80002382:	31013683          	ld	a3,784(sp)
    80002386:	eeaa                	sd	a0,344(sp)
    80002388:	eab2                	sd	a2,336(sp)
    8000238a:	e6b6                	sd	a3,328(sp)
    8000238c:	00b50663          	beq	a0,a1,80002398 <_ZN4core3fmt9Formatter3pad17h946adb8f77146580E+0x42a>
    80002390:	6576                	ld	a0,344(sp)
    80002392:	65de                	ld	a1,464(sp)
    80002394:	eaaa                	sd	a0,336(sp)
    80002396:	e6ae                	sd	a1,328(sp)
    80002398:	6536                	ld	a0,328(sp)
    8000239a:	65d6                	ld	a1,336(sp)
    8000239c:	26b13c23          	sd	a1,632(sp)
    800023a0:	26a13823          	sd	a0,624(sp)
    800023a4:	a009                	j	800023a6 <_ZN4core3fmt9Formatter3pad17h946adb8f77146580E+0x438>
    800023a6:	27013503          	ld	a0,624(sp)
    800023aa:	27813583          	ld	a1,632(sp)
    800023ae:	862a                	mv	a2,a0
    800023b0:	86ae                	mv	a3,a1
    800023b2:	2f813703          	ld	a4,760(sp)
    800023b6:	e2aa                	sd	a0,320(sp)
    800023b8:	fe2e                	sd	a1,312(sp)
    800023ba:	2ec13423          	sd	a2,744(sp)
    800023be:	2ed13023          	sd	a3,736(sp)
    800023c2:	e315                	bnez	a4,800023e6 <_ZN4core3fmt9Formatter3pad17h946adb8f77146580E+0x478>
    800023c4:	a009                	j	800023c6 <_ZN4core3fmt9Formatter3pad17h946adb8f77146580E+0x458>
    800023c6:	30013503          	ld	a0,768(sp)
    800023ca:	7108                	ld	a0,32(a0)
    800023cc:	30013583          	ld	a1,768(sp)
    800023d0:	7590                	ld	a2,40(a1)
    800023d2:	6e10                	ld	a2,24(a2)
    800023d4:	75f2                	ld	a1,312(sp)
    800023d6:	6696                	ld	a3,320(sp)
    800023d8:	fa32                	sd	a2,304(sp)
    800023da:	8636                	mv	a2,a3
    800023dc:	7752                	ld	a4,304(sp)
    800023de:	9702                	jalr	a4
    800023e0:	2ca13823          	sd	a0,720(sp)
    800023e4:	a43d                	j	80002612 <_ZN4core3fmt9Formatter3pad17h946adb8f77146580E+0x6a4>
    800023e6:	2e013503          	ld	a0,736(sp)
    800023ea:	2e813583          	ld	a1,744(sp)
    800023ee:	30013603          	ld	a2,768(sp)
    800023f2:	00860693          	addi	a3,a2,8
    800023f6:	872a                	mv	a4,a0
    800023f8:	00b507b3          	add	a5,a0,a1
    800023fc:	4801                	li	a6,0
    800023fe:	88c2                	mv	a7,a6
    80002400:	82ba                	mv	t0,a4
    80002402:	f62a                	sd	a0,296(sp)
    80002404:	f22e                	sd	a1,288(sp)
    80002406:	ee36                	sd	a3,280(sp)
    80002408:	ea3a                	sd	a4,272(sp)
    8000240a:	e63e                	sd	a5,264(sp)
    8000240c:	e246                	sd	a7,256(sp)
    8000240e:	fd96                	sd	t0,248(sp)
    80002410:	05058763          	beq	a1,a6,8000245e <_ZN4core3fmt9Formatter3pad17h946adb8f77146580E+0x4f0>
    80002414:	a009                	j	80002416 <_ZN4core3fmt9Formatter3pad17h946adb8f77146580E+0x4a8>
    80002416:	756e                	ld	a0,248(sp)
    80002418:	6592                	ld	a1,256(sp)
    8000241a:	00150613          	addi	a2,a0,1
    8000241e:	00054503          	lbu	a0,0(a0)
    80002422:	0c057513          	andi	a0,a0,192
    80002426:	f8050513          	addi	a0,a0,-128
    8000242a:	00153513          	seqz	a0,a0
    8000242e:	952e                	add	a0,a0,a1
    80002430:	85aa                	mv	a1,a0
    80002432:	86b2                	mv	a3,a2
    80002434:	6732                	ld	a4,264(sp)
    80002436:	fdb6                	sd	a3,248(sp)
    80002438:	e22e                	sd	a1,256(sp)
    8000243a:	f9aa                	sd	a0,240(sp)
    8000243c:	fce61de3          	bne	a2,a4,80002416 <_ZN4core3fmt9Formatter3pad17h946adb8f77146580E+0x4a8>
    80002440:	a009                	j	80002442 <_ZN4core3fmt9Formatter3pad17h946adb8f77146580E+0x4d4>
    80002442:	7512                	ld	a0,288(sp)
    80002444:	75ce                	ld	a1,240(sp)
    80002446:	40b50633          	sub	a2,a0,a1
    8000244a:	66f2                	ld	a3,280(sp)
    8000244c:	6298                	ld	a4,0(a3)
    8000244e:	4781                	li	a5,0
    80002450:	6852                	ld	a6,272(sp)
    80002452:	f5ba                	sd	a4,232(sp)
    80002454:	f1be                	sd	a5,224(sp)
    80002456:	edc2                	sd	a6,216(sp)
    80002458:	02e66d63          	bltu	a2,a4,80002492 <_ZN4core3fmt9Formatter3pad17h946adb8f77146580E+0x524>
    8000245c:	a819                	j	80002472 <_ZN4core3fmt9Formatter3pad17h946adb8f77146580E+0x504>
    8000245e:	6572                	ld	a0,280(sp)
    80002460:	610c                	ld	a1,0(a0)
    80002462:	4601                	li	a2,0
    80002464:	86b2                	mv	a3,a2
    80002466:	872e                	mv	a4,a1
    80002468:	e9ba                	sd	a4,208(sp)
    8000246a:	e5b6                	sd	a3,200(sp)
    8000246c:	04c59b63          	bne	a1,a2,800024c2 <_ZN4core3fmt9Formatter3pad17h946adb8f77146580E+0x554>
    80002470:	a009                	j	80002472 <_ZN4core3fmt9Formatter3pad17h946adb8f77146580E+0x504>
    80002472:	30013503          	ld	a0,768(sp)
    80002476:	7108                	ld	a0,32(a0)
    80002478:	30013583          	ld	a1,768(sp)
    8000247c:	7590                	ld	a2,40(a1)
    8000247e:	6e10                	ld	a2,24(a2)
    80002480:	75b2                	ld	a1,296(sp)
    80002482:	7692                	ld	a3,288(sp)
    80002484:	e1b2                	sd	a2,192(sp)
    80002486:	8636                	mv	a2,a3
    80002488:	670e                	ld	a4,192(sp)
    8000248a:	9702                	jalr	a4
    8000248c:	2ca13823          	sd	a0,720(sp)
    80002490:	a249                	j	80002612 <_ZN4core3fmt9Formatter3pad17h946adb8f77146580E+0x6a4>
    80002492:	656e                	ld	a0,216(sp)
    80002494:	758e                	ld	a1,224(sp)
    80002496:	00150613          	addi	a2,a0,1
    8000249a:	00054503          	lbu	a0,0(a0)
    8000249e:	0c057513          	andi	a0,a0,192
    800024a2:	f8050513          	addi	a0,a0,-128
    800024a6:	00153513          	seqz	a0,a0
    800024aa:	952e                	add	a0,a0,a1
    800024ac:	85aa                	mv	a1,a0
    800024ae:	86b2                	mv	a3,a2
    800024b0:	772e                	ld	a4,232(sp)
    800024b2:	67b2                	ld	a5,264(sp)
    800024b4:	edb6                	sd	a3,216(sp)
    800024b6:	f1ae                	sd	a1,224(sp)
    800024b8:	e9ba                	sd	a4,208(sp)
    800024ba:	e5aa                	sd	a0,200(sp)
    800024bc:	fcf61be3          	bne	a2,a5,80002492 <_ZN4core3fmt9Formatter3pad17h946adb8f77146580E+0x524>
    800024c0:	a009                	j	800024c2 <_ZN4core3fmt9Formatter3pad17h946adb8f77146580E+0x554>
    800024c2:	652e                	ld	a0,200(sp)
    800024c4:	65ce                	ld	a1,208(sp)
    800024c6:	7612                	ld	a2,288(sp)
    800024c8:	8d11                	sub	a0,a0,a2
    800024ca:	952e                	add	a0,a0,a1
    800024cc:	30013583          	ld	a1,768(sp)
    800024d0:	0385c683          	lbu	a3,56(a1)
    800024d4:	4701                	li	a4,0
    800024d6:	478d                	li	a5,3
    800024d8:	883a                	mv	a6,a4
    800024da:	fd2a                	sd	a0,184(sp)
    800024dc:	f936                	sd	a3,176(sp)
    800024de:	f53a                	sd	a4,168(sp)
    800024e0:	f142                	sd	a6,160(sp)
    800024e2:	00f68463          	beq	a3,a5,800024ea <_ZN4core3fmt9Formatter3pad17h946adb8f77146580E+0x57c>
    800024e6:	754a                	ld	a0,176(sp)
    800024e8:	f12a                	sd	a0,160(sp)
    800024ea:	750a                	ld	a0,160(sp)
    800024ec:	00357593          	andi	a1,a0,3
    800024f0:	762a                	ld	a2,168(sp)
    800024f2:	4689                	li	a3,2
    800024f4:	ed2a                	sd	a0,152(sp)
    800024f6:	e932                	sd	a2,144(sp)
    800024f8:	02d58663          	beq	a1,a3,80002524 <_ZN4core3fmt9Formatter3pad17h946adb8f77146580E+0x5b6>
    800024fc:	a009                	j	800024fe <_ZN4core3fmt9Formatter3pad17h946adb8f77146580E+0x590>
    800024fe:	656a                	ld	a0,152(sp)
    80002500:	00357593          	andi	a1,a0,3
    80002504:	460d                	li	a2,3
    80002506:	02c58963          	beq	a1,a2,80002538 <_ZN4core3fmt9Formatter3pad17h946adb8f77146580E+0x5ca>
    8000250a:	a009                	j	8000250c <_ZN4core3fmt9Formatter3pad17h946adb8f77146580E+0x59e>
    8000250c:	656a                	ld	a0,152(sp)
    8000250e:	00357593          	andi	a1,a0,3
    80002512:	4601                	li	a2,0
    80002514:	76ea                	ld	a3,184(sp)
    80002516:	674a                	ld	a4,144(sp)
    80002518:	e536                	sd	a3,136(sp)
    8000251a:	e13a                	sd	a4,128(sp)
    8000251c:	02c58363          	beq	a1,a2,80002542 <_ZN4core3fmt9Formatter3pad17h946adb8f77146580E+0x5d4>
    80002520:	a009                	j	80002522 <_ZN4core3fmt9Formatter3pad17h946adb8f77146580E+0x5b4>
    80002522:	a819                	j	80002538 <_ZN4core3fmt9Formatter3pad17h946adb8f77146580E+0x5ca>
    80002524:	756a                	ld	a0,184(sp)
    80002526:	00155593          	srli	a1,a0,0x1
    8000252a:	00150613          	addi	a2,a0,1
    8000252e:	8205                	srli	a2,a2,0x1
    80002530:	e532                	sd	a2,136(sp)
    80002532:	e12e                	sd	a1,128(sp)
    80002534:	a039                	j	80002542 <_ZN4core3fmt9Formatter3pad17h946adb8f77146580E+0x5d4>
    80002536:	0000                	unimp
    80002538:	4501                	li	a0,0
    8000253a:	75ea                	ld	a1,184(sp)
    8000253c:	e52a                	sd	a0,136(sp)
    8000253e:	e12e                	sd	a1,128(sp)
    80002540:	a009                	j	80002542 <_ZN4core3fmt9Formatter3pad17h946adb8f77146580E+0x5d4>
    80002542:	650a                	ld	a0,128(sp)
    80002544:	65aa                	ld	a1,136(sp)
    80002546:	30013603          	ld	a2,768(sp)
    8000254a:	02060693          	addi	a3,a2,32
    8000254e:	02860713          	addi	a4,a2,40
    80002552:	87ba                	mv	a5,a4
    80002554:	03460813          	addi	a6,a2,52
    80002558:	4881                	li	a7,0
    8000255a:	fcaa                	sd	a0,120(sp)
    8000255c:	f8ae                	sd	a1,112(sp)
    8000255e:	f4b6                	sd	a3,104(sp)
    80002560:	f0ba                	sd	a4,96(sp)
    80002562:	ecbe                	sd	a5,88(sp)
    80002564:	e8c2                	sd	a6,80(sp)
    80002566:	e4c6                	sd	a7,72(sp)
    80002568:	a009                	j	8000256a <_ZN4core3fmt9Formatter3pad17h946adb8f77146580E+0x5fc>
    8000256a:	6526                	ld	a0,72(sp)
    8000256c:	75e6                	ld	a1,120(sp)
    8000256e:	e0aa                	sd	a0,64(sp)
    80002570:	02b50863          	beq	a0,a1,800025a0 <_ZN4core3fmt9Formatter3pad17h946adb8f77146580E+0x632>
    80002574:	a009                	j	80002576 <_ZN4core3fmt9Formatter3pad17h946adb8f77146580E+0x608>
    80002576:	6506                	ld	a0,64(sp)
    80002578:	00150593          	addi	a1,a0,1
    8000257c:	7626                	ld	a2,104(sp)
    8000257e:	6208                	ld	a0,0(a2)
    80002580:	66e6                	ld	a3,88(sp)
    80002582:	6298                	ld	a4,0(a3)
    80002584:	7318                	ld	a4,32(a4)
    80002586:	67c6                	ld	a5,80(sp)
    80002588:	0007a803          	lw	a6,0(a5) # 110000 <_ZN106_$LT$core..ops..range..Range$LT$usize$GT$$u20$as$u20$core..slice..index..SliceIndex$LT$$u5b$T$u5d$$GT$$GT$17get_unchecked_mut17h97f5b57f479b560dE-0x7fef0000>
    8000258c:	fc2e                	sd	a1,56(sp)
    8000258e:	85c2                	mv	a1,a6
    80002590:	9702                	jalr	a4
    80002592:	4585                	li	a1,1
    80002594:	7662                	ld	a2,56(sp)
    80002596:	e4b2                	sd	a2,72(sp)
    80002598:	2cb13823          	sd	a1,720(sp)
    8000259c:	e93d                	bnez	a0,80002612 <_ZN4core3fmt9Formatter3pad17h946adb8f77146580E+0x6a4>
    8000259e:	b7f1                	j	8000256a <_ZN4core3fmt9Formatter3pad17h946adb8f77146580E+0x5fc>
    800025a0:	6546                	ld	a0,80(sp)
    800025a2:	00056583          	lwu	a1,0(a0)
    800025a6:	7626                	ld	a2,104(sp)
    800025a8:	6208                	ld	a0,0(a2)
    800025aa:	7686                	ld	a3,96(sp)
    800025ac:	6298                	ld	a4,0(a3)
    800025ae:	6f18                	ld	a4,24(a4)
    800025b0:	77b2                	ld	a5,296(sp)
    800025b2:	f82e                	sd	a1,48(sp)
    800025b4:	85be                	mv	a1,a5
    800025b6:	7612                	ld	a2,288(sp)
    800025b8:	9702                	jalr	a4
    800025ba:	4585                	li	a1,1
    800025bc:	2cb13823          	sd	a1,720(sp)
    800025c0:	e929                	bnez	a0,80002612 <_ZN4core3fmt9Formatter3pad17h946adb8f77146580E+0x6a4>
    800025c2:	a009                	j	800025c4 <_ZN4core3fmt9Formatter3pad17h946adb8f77146580E+0x656>
    800025c4:	7526                	ld	a0,104(sp)
    800025c6:	6108                	ld	a0,0(a0)
    800025c8:	7586                	ld	a1,96(sp)
    800025ca:	6190                	ld	a2,0(a1)
    800025cc:	02060613          	addi	a2,a2,32
    800025d0:	4681                	li	a3,0
    800025d2:	f42a                	sd	a0,40(sp)
    800025d4:	f032                	sd	a2,32(sp)
    800025d6:	ec36                	sd	a3,24(sp)
    800025d8:	a009                	j	800025da <_ZN4core3fmt9Formatter3pad17h946adb8f77146580E+0x66c>
    800025da:	6562                	ld	a0,24(sp)
    800025dc:	4581                	li	a1,0
    800025de:	7646                	ld	a2,112(sp)
    800025e0:	e82a                	sd	a0,16(sp)
    800025e2:	2cb13823          	sd	a1,720(sp)
    800025e6:	02c50663          	beq	a0,a2,80002612 <_ZN4core3fmt9Formatter3pad17h946adb8f77146580E+0x6a4>
    800025ea:	a009                	j	800025ec <_ZN4core3fmt9Formatter3pad17h946adb8f77146580E+0x67e>
    800025ec:	6542                	ld	a0,16(sp)
    800025ee:	00150593          	addi	a1,a0,1
    800025f2:	7602                	ld	a2,32(sp)
    800025f4:	6214                	ld	a3,0(a2)
    800025f6:	7522                	ld	a0,40(sp)
    800025f8:	7742                	ld	a4,48(sp)
    800025fa:	e42e                	sd	a1,8(sp)
    800025fc:	85ba                	mv	a1,a4
    800025fe:	9682                	jalr	a3
    80002600:	4585                	li	a1,1
    80002602:	4601                	li	a2,0
    80002604:	66a2                	ld	a3,8(sp)
    80002606:	ec36                	sd	a3,24(sp)
    80002608:	2cb13823          	sd	a1,720(sp)
    8000260c:	fcc507e3          	beq	a0,a2,800025da <_ZN4core3fmt9Formatter3pad17h946adb8f77146580E+0x66c>
    80002610:	a009                	j	80002612 <_ZN4core3fmt9Formatter3pad17h946adb8f77146580E+0x6a4>
    80002612:	2d013503          	ld	a0,720(sp)
    80002616:	31813083          	ld	ra,792(sp)
    8000261a:	32010113          	addi	sp,sp,800
    8000261e:	8082                	ret

0000000080002620 <_ZN4core3fmt5write17hfdbb7c2670a3d940E>:
    80002620:	da010113          	addi	sp,sp,-608
    80002624:	24113c23          	sd	ra,600(sp)
    80002628:	0c34                	addi	a3,sp,536
    8000262a:	03068713          	addi	a4,a3,48 # 1c0030 <_ZN106_$LT$core..ops..range..Range$LT$usize$GT$$u20$as$u20$core..slice..index..SliceIndex$LT$$u5b$T$u5d$$GT$$GT$17get_unchecked_mut17h97f5b57f479b560dE-0x7fe3ffd0>
    8000262e:	4785                	li	a5,1
    80002630:	1796                	slli	a5,a5,0x25
    80002632:	24f13423          	sd	a5,584(sp)
    80002636:	03468793          	addi	a5,a3,52
    8000263a:	03868813          	addi	a6,a3,56
    8000263e:	488d                	li	a7,3
    80002640:	25110823          	sb	a7,592(sp)
    80002644:	88b6                	mv	a7,a3
    80002646:	4281                	li	t0,0
    80002648:	20513c23          	sd	t0,536(sp)
    8000264c:	01068313          	addi	t1,a3,16
    80002650:	22513423          	sd	t0,552(sp)
    80002654:	02068393          	addi	t2,a3,32
    80002658:	22a13c23          	sd	a0,568(sp)
    8000265c:	02868693          	addi	a3,a3,40
    80002660:	24b13023          	sd	a1,576(sp)
    80002664:	01063e03          	ld	t3,16(a2)
    80002668:	8ef2                	mv	t4,t3
    8000266a:	20c13823          	sd	a2,528(sp)
    8000266e:	20b13423          	sd	a1,520(sp)
    80002672:	20a13023          	sd	a0,512(sp)
    80002676:	ffba                	sd	a4,504(sp)
    80002678:	fbbe                	sd	a5,496(sp)
    8000267a:	f7c2                	sd	a6,488(sp)
    8000267c:	f3c6                	sd	a7,480(sp)
    8000267e:	ef9a                	sd	t1,472(sp)
    80002680:	eb9e                	sd	t2,464(sp)
    80002682:	e7b6                	sd	a3,456(sp)
    80002684:	e3f2                	sd	t3,448(sp)
    80002686:	ff76                	sd	t4,440(sp)
    80002688:	085e0d63          	beq	t3,t0,80002722 <_ZN4core3fmt5write17hfdbb7c2670a3d940E+0x102>
    8000268c:	a009                	j	8000268e <_ZN4core3fmt5write17hfdbb7c2670a3d940E+0x6e>
    8000268e:	21013503          	ld	a0,528(sp)
    80002692:	6d0c                	ld	a1,24(a0)
    80002694:	6110                	ld	a2,0(a0)
    80002696:	86b2                	mv	a3,a2
    80002698:	6518                	ld	a4,8(a0)
    8000269a:	87ba                	mv	a5,a4
    8000269c:	fb2e                	sd	a1,432(sp)
    8000269e:	f732                	sd	a2,424(sp)
    800026a0:	f336                	sd	a3,416(sp)
    800026a2:	ef3a                	sd	a4,408(sp)
    800026a4:	eb3e                	sd	a5,400(sp)
    800026a6:	00b76463          	bltu	a4,a1,800026ae <_ZN4core3fmt5write17hfdbb7c2670a3d940E+0x8e>
    800026aa:	755a                	ld	a0,432(sp)
    800026ac:	eb2a                	sd	a0,400(sp)
    800026ae:	655a                	ld	a0,400(sp)
    800026b0:	4581                	li	a1,0
    800026b2:	862e                	mv	a2,a1
    800026b4:	66fa                	ld	a3,408(sp)
    800026b6:	773a                	ld	a4,424(sp)
    800026b8:	e72a                	sd	a0,392(sp)
    800026ba:	e336                	sd	a3,384(sp)
    800026bc:	feba                	sd	a4,376(sp)
    800026be:	fab2                	sd	a2,368(sp)
    800026c0:	32b50963          	beq	a0,a1,800029f2 <_ZN4core3fmt5write17hfdbb7c2670a3d940E+0x3d2>
    800026c4:	a009                	j	800026c6 <_ZN4core3fmt5write17hfdbb7c2670a3d940E+0xa6>
    800026c6:	653e                	ld	a0,456(sp)
    800026c8:	21013583          	ld	a1,528(sp)
    800026cc:	02058613          	addi	a2,a1,32
    800026d0:	02858693          	addi	a3,a1,40
    800026d4:	0c38                	addi	a4,sp,536
    800026d6:	00870793          	addi	a5,a4,8 # 1c0008 <_ZN106_$LT$core..ops..range..Range$LT$usize$GT$$u20$as$u20$core..slice..index..SliceIndex$LT$$u5b$T$u5d$$GT$$GT$17get_unchecked_mut17h97f5b57f479b560dE-0x7fe3fff8>
    800026da:	0761                	addi	a4,a4,24
    800026dc:	781a                	ld	a6,416(sp)
    800026de:	00083583          	ld	a1,0(a6)
    800026e2:	00883883          	ld	a7,8(a6)
    800026e6:	20813283          	ld	t0,520(sp)
    800026ea:	0182b303          	ld	t1,24(t0)
    800026ee:	20013383          	ld	t2,512(sp)
    800026f2:	f6aa                	sd	a0,360(sp)
    800026f4:	851e                	mv	a0,t2
    800026f6:	f2b2                	sd	a2,352(sp)
    800026f8:	8646                	mv	a2,a7
    800026fa:	eeb6                	sd	a3,344(sp)
    800026fc:	eabe                	sd	a5,336(sp)
    800026fe:	e6ba                	sd	a4,328(sp)
    80002700:	9302                	jalr	t1
    80002702:	32051563          	bnez	a0,80002a2c <_ZN4core3fmt5write17hfdbb7c2670a3d940E+0x40c>
    80002706:	a009                	j	80002708 <_ZN4core3fmt5write17hfdbb7c2670a3d940E+0xe8>
    80002708:	757a                	ld	a0,440(sp)
    8000270a:	7596                	ld	a1,352(sp)
    8000270c:	6190                	ld	a2,0(a1)
    8000270e:	66f6                	ld	a3,344(sp)
    80002710:	6298                	ld	a4,0(a3)
    80002712:	4781                	li	a5,0
    80002714:	4805                	li	a6,1
    80002716:	e2b2                	sd	a2,320(sp)
    80002718:	fe3a                	sd	a4,312(sp)
    8000271a:	fa2a                	sd	a0,304(sp)
    8000271c:	f642                	sd	a6,296(sp)
    8000271e:	f23e                	sd	a5,288(sp)
    80002720:	a0f1                	j	800027ec <_ZN4core3fmt5write17hfdbb7c2670a3d940E+0x1cc>
    80002722:	21013503          	ld	a0,528(sp)
    80002726:	710c                	ld	a1,32(a0)
    80002728:	7510                	ld	a2,40(a0)
    8000272a:	6114                	ld	a3,0(a0)
    8000272c:	8736                	mv	a4,a3
    8000272e:	651c                	ld	a5,8(a0)
    80002730:	883e                	mv	a6,a5
    80002732:	ee2e                	sd	a1,280(sp)
    80002734:	ea32                	sd	a2,272(sp)
    80002736:	e636                	sd	a3,264(sp)
    80002738:	e23a                	sd	a4,256(sp)
    8000273a:	fdbe                	sd	a5,248(sp)
    8000273c:	f9c2                	sd	a6,240(sp)
    8000273e:	00c7e463          	bltu	a5,a2,80002746 <_ZN4core3fmt5write17hfdbb7c2670a3d940E+0x126>
    80002742:	6552                	ld	a0,272(sp)
    80002744:	f9aa                	sd	a0,240(sp)
    80002746:	754e                	ld	a0,240(sp)
    80002748:	4581                	li	a1,0
    8000274a:	862e                	mv	a2,a1
    8000274c:	76ee                	ld	a3,248(sp)
    8000274e:	6732                	ld	a4,264(sp)
    80002750:	f5aa                	sd	a0,232(sp)
    80002752:	e336                	sd	a3,384(sp)
    80002754:	feba                	sd	a4,376(sp)
    80002756:	fab2                	sd	a2,368(sp)
    80002758:	28b50d63          	beq	a0,a1,800029f2 <_ZN4core3fmt5write17hfdbb7c2670a3d940E+0x3d2>
    8000275c:	a009                	j	8000275e <_ZN4core3fmt5write17hfdbb7c2670a3d940E+0x13e>
    8000275e:	653e                	ld	a0,456(sp)
    80002760:	6592                	ld	a1,256(sp)
    80002762:	618c                	ld	a1,0(a1)
    80002764:	6612                	ld	a2,256(sp)
    80002766:	6610                	ld	a2,8(a2)
    80002768:	20813683          	ld	a3,520(sp)
    8000276c:	6e98                	ld	a4,24(a3)
    8000276e:	20013783          	ld	a5,512(sp)
    80002772:	f1aa                	sd	a0,224(sp)
    80002774:	853e                	mv	a0,a5
    80002776:	9702                	jalr	a4
    80002778:	4581                	li	a1,0
    8000277a:	4605                	li	a2,1
    8000277c:	edb2                	sd	a2,216(sp)
    8000277e:	e9ae                	sd	a1,208(sp)
    80002780:	2a051663          	bnez	a0,80002a2c <_ZN4core3fmt5write17hfdbb7c2670a3d940E+0x40c>
    80002784:	a009                	j	80002786 <_ZN4core3fmt5write17hfdbb7c2670a3d940E+0x166>
    80002786:	654e                	ld	a0,208(sp)
    80002788:	65ee                	ld	a1,216(sp)
    8000278a:	0512                	slli	a0,a0,0x4
    8000278c:	6672                	ld	a2,280(sp)
    8000278e:	9532                	add	a0,a0,a2
    80002790:	6514                	ld	a3,8(a0)
    80002792:	6108                	ld	a0,0(a0)
    80002794:	0c38                	addi	a4,sp,536
    80002796:	e5ae                	sd	a1,200(sp)
    80002798:	85ba                	mv	a1,a4
    8000279a:	9682                	jalr	a3
    8000279c:	28051863          	bnez	a0,80002a2c <_ZN4core3fmt5write17hfdbb7c2670a3d940E+0x40c>
    800027a0:	a009                	j	800027a2 <_ZN4core3fmt5write17hfdbb7c2670a3d940E+0x182>
    800027a2:	756e                	ld	a0,248(sp)
    800027a4:	65b2                	ld	a1,264(sp)
    800027a6:	762e                	ld	a2,232(sp)
    800027a8:	66ae                	ld	a3,200(sp)
    800027aa:	772e                	ld	a4,232(sp)
    800027ac:	e32a                	sd	a0,384(sp)
    800027ae:	feae                	sd	a1,376(sp)
    800027b0:	fab2                	sd	a2,368(sp)
    800027b2:	24e68063          	beq	a3,a4,800029f2 <_ZN4core3fmt5write17hfdbb7c2670a3d940E+0x3d2>
    800027b6:	a009                	j	800027b8 <_ZN4core3fmt5write17hfdbb7c2670a3d940E+0x198>
    800027b8:	655e                	ld	a0,464(sp)
    800027ba:	6108                	ld	a0,0(a0)
    800027bc:	758e                	ld	a1,224(sp)
    800027be:	6190                	ld	a2,0(a1)
    800027c0:	66ae                	ld	a3,200(sp)
    800027c2:	00168713          	addi	a4,a3,1
    800027c6:	00469793          	slli	a5,a3,0x4
    800027ca:	6812                	ld	a6,256(sp)
    800027cc:	97c2                	add	a5,a5,a6
    800027ce:	638c                	ld	a1,0(a5)
    800027d0:	679c                	ld	a5,8(a5)
    800027d2:	6e10                	ld	a2,24(a2)
    800027d4:	e1b2                	sd	a2,192(sp)
    800027d6:	863e                	mv	a2,a5
    800027d8:	678e                	ld	a5,192(sp)
    800027da:	fd3a                	sd	a4,184(sp)
    800027dc:	9782                	jalr	a5
    800027de:	75ea                	ld	a1,184(sp)
    800027e0:	662e                	ld	a2,200(sp)
    800027e2:	edae                	sd	a1,216(sp)
    800027e4:	e9b2                	sd	a2,208(sp)
    800027e6:	24051363          	bnez	a0,80002a2c <_ZN4core3fmt5write17hfdbb7c2670a3d940E+0x40c>
    800027ea:	bf71                	j	80002786 <_ZN4core3fmt5write17hfdbb7c2670a3d940E+0x166>
    800027ec:	7512                	ld	a0,288(sp)
    800027ee:	75b2                	ld	a1,296(sp)
    800027f0:	7652                	ld	a2,304(sp)
    800027f2:	03800693          	li	a3,56
    800027f6:	02d506b3          	mul	a3,a0,a3
    800027fa:	671e                	ld	a4,448(sp)
    800027fc:	96ba                	add	a3,a3,a4
    800027fe:	569c                	lw	a5,40(a3)
    80002800:	785e                	ld	a6,496(sp)
    80002802:	00f82023          	sw	a5,0(a6)
    80002806:	03068783          	lb	a5,48(a3)
    8000280a:	78be                	ld	a7,488(sp)
    8000280c:	00f88023          	sb	a5,0(a7)
    80002810:	565c                	lw	a5,44(a2)
    80002812:	72fe                	ld	t0,504(sp)
    80002814:	00f2a023          	sw	a5,0(t0)
    80002818:	6e9c                	ld	a5,24(a3)
    8000281a:	7294                	ld	a3,32(a3)
    8000281c:	4301                	li	t1,0
    8000281e:	839a                	mv	t2,t1
    80002820:	f92a                	sd	a0,176(sp)
    80002822:	f52e                	sd	a1,168(sp)
    80002824:	f132                	sd	a2,160(sp)
    80002826:	ed3e                	sd	a5,152(sp)
    80002828:	e936                	sd	a3,144(sp)
    8000282a:	e51e                	sd	t2,136(sp)
    8000282c:	02678263          	beq	a5,t1,80002850 <_ZN4core3fmt5write17hfdbb7c2670a3d940E+0x230>
    80002830:	a009                	j	80002832 <_ZN4core3fmt5write17hfdbb7c2670a3d940E+0x212>
    80002832:	4505                	li	a0,1
    80002834:	65ea                	ld	a1,152(sp)
    80002836:	00a58763          	beq	a1,a0,80002844 <_ZN4core3fmt5write17hfdbb7c2670a3d940E+0x224>
    8000283a:	a009                	j	8000283c <_ZN4core3fmt5write17hfdbb7c2670a3d940E+0x21c>
    8000283c:	65aa                	ld	a1,136(sp)
    8000283e:	e12a                	sd	a0,128(sp)
    80002840:	fcae                	sd	a1,120(sp)
    80002842:	a095                	j	800028a6 <_ZN4core3fmt5write17hfdbb7c2670a3d940E+0x286>
    80002844:	654a                	ld	a0,144(sp)
    80002846:	75f2                	ld	a1,312(sp)
    80002848:	00b56963          	bltu	a0,a1,8000285a <_ZN4core3fmt5write17hfdbb7c2670a3d940E+0x23a>
    8000284c:	a091                	j	80002890 <_ZN4core3fmt5write17hfdbb7c2670a3d940E+0x270>
    8000284e:	0000                	unimp
    80002850:	4505                	li	a0,1
    80002852:	65ca                	ld	a1,144(sp)
    80002854:	e12e                	sd	a1,128(sp)
    80002856:	fcaa                	sd	a0,120(sp)
    80002858:	a0b9                	j	800028a6 <_ZN4core3fmt5write17hfdbb7c2670a3d940E+0x286>
    8000285a:	654a                	ld	a0,144(sp)
    8000285c:	00451593          	slli	a1,a0,0x4
    80002860:	6616                	ld	a2,320(sp)
    80002862:	95b2                	add	a1,a1,a2
    80002864:	658c                	ld	a1,8(a1)
    80002866:	4681                	li	a3,0
    80002868:	fffff717          	auipc	a4,0xfffff
    8000286c:	ece70713          	addi	a4,a4,-306 # 80001736 <_ZN4core3ops8function6FnOnce9call_once17h35ae281d4cc49c3aE>
    80002870:	e13e                	sd	a5,128(sp)
    80002872:	fcb6                	sd	a3,120(sp)
    80002874:	02e59963          	bne	a1,a4,800028a6 <_ZN4core3fmt5write17hfdbb7c2670a3d940E+0x286>
    80002878:	a009                	j	8000287a <_ZN4core3fmt5write17hfdbb7c2670a3d940E+0x25a>
    8000287a:	654a                	ld	a0,144(sp)
    8000287c:	00451593          	slli	a1,a0,0x4
    80002880:	6616                	ld	a2,320(sp)
    80002882:	95b2                	add	a1,a1,a2
    80002884:	618c                	ld	a1,0(a1)
    80002886:	618c                	ld	a1,0(a1)
    80002888:	4685                	li	a3,1
    8000288a:	e12e                	sd	a1,128(sp)
    8000288c:	fcb6                	sd	a3,120(sp)
    8000288e:	a821                	j	800028a6 <_ZN4core3fmt5write17hfdbb7c2670a3d940E+0x286>
    80002890:	00001617          	auipc	a2,0x1
    80002894:	d4060613          	addi	a2,a2,-704 # 800035d0 <str.1+0x220>
    80002898:	654a                	ld	a0,144(sp)
    8000289a:	75f2                	ld	a1,312(sp)
    8000289c:	fffff097          	auipc	ra,0xfffff
    800028a0:	ece080e7          	jalr	-306(ra) # 8000176a <_ZN4core9panicking18panic_bounds_check17h5dcda81e3137698fE>
    800028a4:	0000                	unimp
    800028a6:	7566                	ld	a0,120(sp)
    800028a8:	658a                	ld	a1,128(sp)
    800028aa:	761e                	ld	a2,480(sp)
    800028ac:	e208                	sd	a0,0(a2)
    800028ae:	6556                	ld	a0,336(sp)
    800028b0:	e10c                	sd	a1,0(a0)
    800028b2:	03800593          	li	a1,56
    800028b6:	76ca                	ld	a3,176(sp)
    800028b8:	02b685b3          	mul	a1,a3,a1
    800028bc:	671e                	ld	a4,448(sp)
    800028be:	95ba                	add	a1,a1,a4
    800028c0:	659c                	ld	a5,8(a1)
    800028c2:	698c                	ld	a1,16(a1)
    800028c4:	4801                	li	a6,0
    800028c6:	88c2                	mv	a7,a6
    800028c8:	f8be                	sd	a5,112(sp)
    800028ca:	f4ae                	sd	a1,104(sp)
    800028cc:	f0c6                	sd	a7,96(sp)
    800028ce:	03078263          	beq	a5,a6,800028f2 <_ZN4core3fmt5write17hfdbb7c2670a3d940E+0x2d2>
    800028d2:	a009                	j	800028d4 <_ZN4core3fmt5write17hfdbb7c2670a3d940E+0x2b4>
    800028d4:	4505                	li	a0,1
    800028d6:	75c6                	ld	a1,112(sp)
    800028d8:	00a58763          	beq	a1,a0,800028e6 <_ZN4core3fmt5write17hfdbb7c2670a3d940E+0x2c6>
    800028dc:	a009                	j	800028de <_ZN4core3fmt5write17hfdbb7c2670a3d940E+0x2be>
    800028de:	7586                	ld	a1,96(sp)
    800028e0:	ecaa                	sd	a0,88(sp)
    800028e2:	e8ae                	sd	a1,80(sp)
    800028e4:	a095                	j	80002948 <_ZN4core3fmt5write17hfdbb7c2670a3d940E+0x328>
    800028e6:	7526                	ld	a0,104(sp)
    800028e8:	75f2                	ld	a1,312(sp)
    800028ea:	00b56963          	bltu	a0,a1,800028fc <_ZN4core3fmt5write17hfdbb7c2670a3d940E+0x2dc>
    800028ee:	a091                	j	80002932 <_ZN4core3fmt5write17hfdbb7c2670a3d940E+0x312>
    800028f0:	0000                	unimp
    800028f2:	4505                	li	a0,1
    800028f4:	75a6                	ld	a1,104(sp)
    800028f6:	ecae                	sd	a1,88(sp)
    800028f8:	e8aa                	sd	a0,80(sp)
    800028fa:	a0b9                	j	80002948 <_ZN4core3fmt5write17hfdbb7c2670a3d940E+0x328>
    800028fc:	7526                	ld	a0,104(sp)
    800028fe:	00451593          	slli	a1,a0,0x4
    80002902:	6616                	ld	a2,320(sp)
    80002904:	95b2                	add	a1,a1,a2
    80002906:	658c                	ld	a1,8(a1)
    80002908:	4681                	li	a3,0
    8000290a:	fffff717          	auipc	a4,0xfffff
    8000290e:	e2c70713          	addi	a4,a4,-468 # 80001736 <_ZN4core3ops8function6FnOnce9call_once17h35ae281d4cc49c3aE>
    80002912:	ecbe                	sd	a5,88(sp)
    80002914:	e8b6                	sd	a3,80(sp)
    80002916:	02e59963          	bne	a1,a4,80002948 <_ZN4core3fmt5write17hfdbb7c2670a3d940E+0x328>
    8000291a:	a009                	j	8000291c <_ZN4core3fmt5write17hfdbb7c2670a3d940E+0x2fc>
    8000291c:	7526                	ld	a0,104(sp)
    8000291e:	00451593          	slli	a1,a0,0x4
    80002922:	6616                	ld	a2,320(sp)
    80002924:	95b2                	add	a1,a1,a2
    80002926:	618c                	ld	a1,0(a1)
    80002928:	618c                	ld	a1,0(a1)
    8000292a:	4685                	li	a3,1
    8000292c:	ecae                	sd	a1,88(sp)
    8000292e:	e8b6                	sd	a3,80(sp)
    80002930:	a821                	j	80002948 <_ZN4core3fmt5write17hfdbb7c2670a3d940E+0x328>
    80002932:	00001617          	auipc	a2,0x1
    80002936:	c9e60613          	addi	a2,a2,-866 # 800035d0 <str.1+0x220>
    8000293a:	7526                	ld	a0,104(sp)
    8000293c:	75f2                	ld	a1,312(sp)
    8000293e:	fffff097          	auipc	ra,0xfffff
    80002942:	e2c080e7          	jalr	-468(ra) # 8000176a <_ZN4core9panicking18panic_bounds_check17h5dcda81e3137698fE>
    80002946:	0000                	unimp
    80002948:	6546                	ld	a0,80(sp)
    8000294a:	65e6                	ld	a1,88(sp)
    8000294c:	667e                	ld	a2,472(sp)
    8000294e:	e208                	sd	a0,0(a2)
    80002950:	6536                	ld	a0,328(sp)
    80002952:	e10c                	sd	a1,0(a0)
    80002954:	758a                	ld	a1,160(sp)
    80002956:	6194                	ld	a3,0(a1)
    80002958:	7772                	ld	a4,312(sp)
    8000295a:	e4b6                	sd	a3,72(sp)
    8000295c:	00e6ee63          	bltu	a3,a4,80002978 <_ZN4core3fmt5write17hfdbb7c2670a3d940E+0x358>
    80002960:	a009                	j	80002962 <_ZN4core3fmt5write17hfdbb7c2670a3d940E+0x342>
    80002962:	00001617          	auipc	a2,0x1
    80002966:	c8660613          	addi	a2,a2,-890 # 800035e8 <str.1+0x238>
    8000296a:	6526                	ld	a0,72(sp)
    8000296c:	75f2                	ld	a1,312(sp)
    8000296e:	fffff097          	auipc	ra,0xfffff
    80002972:	dfc080e7          	jalr	-516(ra) # 8000176a <_ZN4core9panicking18panic_bounds_check17h5dcda81e3137698fE>
    80002976:	0000                	unimp
    80002978:	6526                	ld	a0,72(sp)
    8000297a:	00451593          	slli	a1,a0,0x4
    8000297e:	6616                	ld	a2,320(sp)
    80002980:	95b2                	add	a1,a1,a2
    80002982:	6188                	ld	a0,0(a1)
    80002984:	658c                	ld	a1,8(a1)
    80002986:	0c34                	addi	a3,sp,536
    80002988:	e0ae                	sd	a1,64(sp)
    8000298a:	85b6                	mv	a1,a3
    8000298c:	6686                	ld	a3,64(sp)
    8000298e:	9682                	jalr	a3
    80002990:	ed51                	bnez	a0,80002a2c <_ZN4core3fmt5write17hfdbb7c2670a3d940E+0x40c>
    80002992:	a009                	j	80002994 <_ZN4core3fmt5write17hfdbb7c2670a3d940E+0x374>
    80002994:	657a                	ld	a0,408(sp)
    80002996:	75ba                	ld	a1,424(sp)
    80002998:	663a                	ld	a2,392(sp)
    8000299a:	76aa                	ld	a3,168(sp)
    8000299c:	673a                	ld	a4,392(sp)
    8000299e:	e32a                	sd	a0,384(sp)
    800029a0:	feae                	sd	a1,376(sp)
    800029a2:	fab2                	sd	a2,368(sp)
    800029a4:	04e68763          	beq	a3,a4,800029f2 <_ZN4core3fmt5write17hfdbb7c2670a3d940E+0x3d2>
    800029a8:	a009                	j	800029aa <_ZN4core3fmt5write17hfdbb7c2670a3d940E+0x38a>
    800029aa:	655e                	ld	a0,464(sp)
    800029ac:	6108                	ld	a0,0(a0)
    800029ae:	75b6                	ld	a1,360(sp)
    800029b0:	6190                	ld	a2,0(a1)
    800029b2:	76aa                	ld	a3,168(sp)
    800029b4:	00168713          	addi	a4,a3,1
    800029b8:	03800793          	li	a5,56
    800029bc:	02f687b3          	mul	a5,a3,a5
    800029c0:	681e                	ld	a6,448(sp)
    800029c2:	97c2                	add	a5,a5,a6
    800029c4:	00469893          	slli	a7,a3,0x4
    800029c8:	729a                	ld	t0,416(sp)
    800029ca:	9896                	add	a7,a7,t0
    800029cc:	0008b583          	ld	a1,0(a7)
    800029d0:	0088b883          	ld	a7,8(a7)
    800029d4:	6e10                	ld	a2,24(a2)
    800029d6:	fc32                	sd	a2,56(sp)
    800029d8:	8646                	mv	a2,a7
    800029da:	78e2                	ld	a7,56(sp)
    800029dc:	f83a                	sd	a4,48(sp)
    800029de:	f43e                	sd	a5,40(sp)
    800029e0:	9882                	jalr	a7
    800029e2:	75a2                	ld	a1,40(sp)
    800029e4:	7642                	ld	a2,48(sp)
    800029e6:	76aa                	ld	a3,168(sp)
    800029e8:	fa2e                	sd	a1,304(sp)
    800029ea:	f632                	sd	a2,296(sp)
    800029ec:	f236                	sd	a3,288(sp)
    800029ee:	ed1d                	bnez	a0,80002a2c <_ZN4core3fmt5write17hfdbb7c2670a3d940E+0x40c>
    800029f0:	bbf5                	j	800027ec <_ZN4core3fmt5write17hfdbb7c2670a3d940E+0x1cc>
    800029f2:	7556                	ld	a0,368(sp)
    800029f4:	75f6                	ld	a1,376(sp)
    800029f6:	661a                	ld	a2,384(sp)
    800029f8:	f02a                	sd	a0,32(sp)
    800029fa:	ec2e                	sd	a1,24(sp)
